
BootLoader_CNT_version.elf:     file format elf32-littlearm

Sections:
Idx Name          Size      VMA       LMA       File off  Algn
  0 .isr_vector   0000010c  08000000  08000000  00001000  2**0
                  CONTENTS, ALLOC, LOAD, READONLY, DATA
  1 .text         000023b0  0800010c  0800010c  0000110c  2**2
                  CONTENTS, ALLOC, LOAD, READONLY, CODE
  2 .rodata       00000064  080024bc  080024bc  000034bc  2**0
                  CONTENTS, ALLOC, LOAD, READONLY, DATA
  3 .ARM.extab    00000000  08002520  08002520  0000406c  2**0
                  CONTENTS, READONLY
  4 .ARM          00000000  08002520  08002520  0000406c  2**0
                  CONTENTS, READONLY
  5 .preinit_array 00000000  08002520  08002520  0000406c  2**0
                  CONTENTS, ALLOC, LOAD, DATA
  6 .init_array   00000004  08002520  08002520  00003520  2**2
                  CONTENTS, ALLOC, LOAD, READONLY, DATA
  7 .fini_array   00000004  08002524  08002524  00003524  2**2
                  CONTENTS, ALLOC, LOAD, READONLY, DATA
  8 .data         0000006c  20000000  08002528  00004000  2**2
                  CONTENTS, ALLOC, LOAD, DATA
  9 .bss          0000024c  20000070  08002594  00004070  2**3
                  ALLOC
 10 ._user_heap_stack 00000604  200002bc  08002594  000042bc  2**0
                  ALLOC
 11 .ARM.attributes 00000029  00000000  00000000  0000406c  2**0
                  CONTENTS, READONLY
 12 .debug_info   0000ba43  00000000  00000000  00004095  2**0
                  CONTENTS, READONLY, DEBUGGING, OCTETS
 13 .debug_abbrev 0000271d  00000000  00000000  0000fad8  2**0
                  CONTENTS, READONLY, DEBUGGING, OCTETS
 14 .debug_loclists 00004af3  00000000  00000000  000121f5  2**0
                  CONTENTS, READONLY, DEBUGGING, OCTETS
 15 .debug_aranges 00000800  00000000  00000000  00016ce8  2**3
                  CONTENTS, READONLY, DEBUGGING, OCTETS
 16 .debug_rnglists 0000089c  00000000  00000000  000174e8  2**0
                  CONTENTS, READONLY, DEBUGGING, OCTETS
 17 .debug_macro  0001832c  00000000  00000000  00017d84  2**0
                  CONTENTS, READONLY, DEBUGGING, OCTETS
 18 .debug_line   0000dccd  00000000  00000000  000300b0  2**0
                  CONTENTS, READONLY, DEBUGGING, OCTETS
 19 .debug_str    00084df8  00000000  00000000  0003dd7d  2**0
                  CONTENTS, READONLY, DEBUGGING, OCTETS
 20 .comment      00000043  00000000  00000000  000c2b75  2**0
                  CONTENTS, READONLY
 21 .debug_frame  00001944  00000000  00000000  000c2bb8  2**2
                  CONTENTS, READONLY, DEBUGGING, OCTETS
 22 .debug_line_str 00000066  00000000  00000000  000c44fc  2**0
                  CONTENTS, READONLY, DEBUGGING, OCTETS

Disassembly of section .text:

0800010c <__do_global_dtors_aux>:
 800010c:	b510      	push	{r4, lr}
 800010e:	4c05      	ldr	r4, [pc, #20]	@ (8000124 <__do_global_dtors_aux+0x18>)
 8000110:	7823      	ldrb	r3, [r4, #0]
 8000112:	b933      	cbnz	r3, 8000122 <__do_global_dtors_aux+0x16>
 8000114:	4b04      	ldr	r3, [pc, #16]	@ (8000128 <__do_global_dtors_aux+0x1c>)
 8000116:	b113      	cbz	r3, 800011e <__do_global_dtors_aux+0x12>
 8000118:	4804      	ldr	r0, [pc, #16]	@ (800012c <__do_global_dtors_aux+0x20>)
 800011a:	f3af 8000 	nop.w
 800011e:	2301      	movs	r3, #1
 8000120:	7023      	strb	r3, [r4, #0]
 8000122:	bd10      	pop	{r4, pc}
 8000124:	20000070 	.word	0x20000070
 8000128:	00000000 	.word	0x00000000
 800012c:	080024a4 	.word	0x080024a4

08000130 <frame_dummy>:
 8000130:	b508      	push	{r3, lr}
 8000132:	4b03      	ldr	r3, [pc, #12]	@ (8000140 <frame_dummy+0x10>)
 8000134:	b11b      	cbz	r3, 800013e <frame_dummy+0xe>
 8000136:	4903      	ldr	r1, [pc, #12]	@ (8000144 <frame_dummy+0x14>)
 8000138:	4803      	ldr	r0, [pc, #12]	@ (8000148 <frame_dummy+0x18>)
 800013a:	f3af 8000 	nop.w
 800013e:	bd08      	pop	{r3, pc}
 8000140:	00000000 	.word	0x00000000
 8000144:	20000074 	.word	0x20000074
 8000148:	080024a4 	.word	0x080024a4

0800014c <GetPage>:
#include <stdbool.h>
#include <stdio.h>

uint32_t crc_val = 400;

static uint32_t GetPage(uint32_t Address) {
 800014c:	4602      	mov	r2, r0
 800014e:	f04f 6300 	mov.w	r3, #134217728	@ 0x8000000
	for (int indx = 0; indx < 128; indx++) {
 8000152:	4906      	ldr	r1, [pc, #24]	@ (800016c <GetPage+0x20>)
		if ((Address < (0x08000000 + (FLASH_PAGE_SIZE * (indx + 1))))
 8000154:	4618      	mov	r0, r3
 8000156:	f503 6380 	add.w	r3, r3, #1024	@ 0x400
 800015a:	429a      	cmp	r2, r3
 800015c:	d201      	bcs.n	8000162 <GetPage+0x16>
				&& (Address >= (0x08000000 + FLASH_PAGE_SIZE * indx))) {
 800015e:	4282      	cmp	r2, r0
 8000160:	d202      	bcs.n	8000168 <GetPage+0x1c>
	for (int indx = 0; indx < 128; indx++) {
 8000162:	428b      	cmp	r3, r1
 8000164:	d1f6      	bne.n	8000154 <GetPage+0x8>
			return (0x08000000 + FLASH_PAGE_SIZE * indx);
		}
	}

	return 0;
 8000166:	2000      	movs	r0, #0
}
 8000168:	4770      	bx	lr
 800016a:	bf00      	nop
 800016c:	08020000 	.word	0x08020000

08000170 <Write_Data>:
 * @param WordSize: Number of words (32-bit) to be written.
 * @param is_first_word: Indicates whether it's the first word being written, used for Flash erase operation.
 * @retval HAL_FLASH status/error code.
 */
uint32_t Write_Data(uint32_t StartAddress, uint32_t *Data, uint16_t WordSize,
bool is_first_word) {
 8000170:	b5f7      	push	{r0, r1, r2, r4, r5, r6, r7, lr}
 8000172:	461c      	mov	r4, r3
 8000174:	4605      	mov	r5, r0
 8000176:	460f      	mov	r7, r1
 8000178:	4616      	mov	r6, r2
	static FLASH_EraseInitTypeDef EraseInitStruct; // Static structure for Flash erase configuration
	uint32_t PAGEError; // Error code for Flash erase operation
	int sofar = 0; // Counter for the number of words programmed so far

	/* Unlock the Flash to enable the flash control register access */
	HAL_FLASH_Unlock();
 800017a:	f000 fd09 	bl	8000b90 <HAL_FLASH_Unlock>

	/* Erase the user Flash area if it's the first word being written */
	if (is_first_word) {
 800017e:	b1f4      	cbz	r4, 80001be <Write_Data+0x4e>
		printf("Erasing the Flash memory...\r\n");
 8000180:	4818      	ldr	r0, [pc, #96]	@ (80001e4 <Write_Data+0x74>)
 8000182:	f001 fe01 	bl	8001d88 <puts>

		// Calculate start and end page addresses for erase operation
		uint32_t StartPage = GetPage(StartAddress);
 8000186:	4628      	mov	r0, r5
 8000188:	f7ff ffe0 	bl	800014c <GetPage>
 800018c:	4604      	mov	r4, r0
		uint32_t EndPageAddress = StartAddress + WordSize * 4;
		uint32_t EndPage = GetPage(EndPageAddress);
 800018e:	eb05 0086 	add.w	r0, r5, r6, lsl #2
 8000192:	f7ff ffdb 	bl	800014c <GetPage>
 8000196:	4603      	mov	r3, r0

		// Fill erase configuration structure
		EraseInitStruct.TypeErase = FLASH_TYPEERASE_PAGES;
 8000198:	2200      	movs	r2, #0
		EraseInitStruct.PageAddress = StartPage;
		EraseInitStruct.NbPages = ((EndPage - StartPage) / FLASH_PAGE_SIZE) + 1;
 800019a:	1b1b      	subs	r3, r3, r4
		EraseInitStruct.TypeErase = FLASH_TYPEERASE_PAGES;
 800019c:	4812      	ldr	r0, [pc, #72]	@ (80001e8 <Write_Data+0x78>)
		EraseInitStruct.NbPages = ((EndPage - StartPage) / FLASH_PAGE_SIZE) + 1;
 800019e:	0a9b      	lsrs	r3, r3, #10
 80001a0:	3301      	adds	r3, #1

		// Erase Flash pages
		if (HAL_FLASHEx_Erase(&EraseInitStruct, &PAGEError) != HAL_OK) {
 80001a2:	a901      	add	r1, sp, #4
		EraseInitStruct.TypeErase = FLASH_TYPEERASE_PAGES;
 80001a4:	6002      	str	r2, [r0, #0]
		EraseInitStruct.PageAddress = StartPage;
 80001a6:	6084      	str	r4, [r0, #8]
		EraseInitStruct.NbPages = ((EndPage - StartPage) / FLASH_PAGE_SIZE) + 1;
 80001a8:	60c3      	str	r3, [r0, #12]
		if (HAL_FLASHEx_Erase(&EraseInitStruct, &PAGEError) != HAL_OK) {
 80001aa:	f000 fda1 	bl	8000cf0 <HAL_FLASHEx_Erase>
 80001ae:	b118      	cbz	r0, 80001b8 <Write_Data+0x48>
				== HAL_OK) {
			StartAddress += 4; // Advance address by word size (4 bytes)
			sofar++; // Increment the count of words programmed
		} else {
			/* Error occurred while writing data in Flash memory */
			return HAL_FLASH_GetError();
 80001b0:	f000 fd0a 	bl	8000bc8 <HAL_FLASH_GetError>

	/* Lock the Flash to disable the flash control register access */
	HAL_FLASH_Lock();

	return 0; // Success
}
 80001b4:	b003      	add	sp, #12
 80001b6:	bdf0      	pop	{r4, r5, r6, r7, pc}
		printf("Erased the Flash memory...\r\n");
 80001b8:	480c      	ldr	r0, [pc, #48]	@ (80001ec <Write_Data+0x7c>)
 80001ba:	f001 fde5 	bl	8001d88 <puts>
bool is_first_word) {
 80001be:	2400      	movs	r4, #0
	while (sofar < WordSize) {
 80001c0:	42b4      	cmp	r4, r6
 80001c2:	eb05 0184 	add.w	r1, r5, r4, lsl #2
 80001c6:	db03      	blt.n	80001d0 <Write_Data+0x60>
	HAL_FLASH_Lock();
 80001c8:	f000 fcf4 	bl	8000bb4 <HAL_FLASH_Lock>
	return 0; // Success
 80001cc:	2000      	movs	r0, #0
 80001ce:	e7f1      	b.n	80001b4 <Write_Data+0x44>
		if (HAL_FLASH_Program(FLASH_TYPEPROGRAM_WORD, StartAddress, Data[sofar])
 80001d0:	2300      	movs	r3, #0
 80001d2:	2002      	movs	r0, #2
 80001d4:	f857 2024 	ldr.w	r2, [r7, r4, lsl #2]
 80001d8:	f000 fd26 	bl	8000c28 <HAL_FLASH_Program>
 80001dc:	2800      	cmp	r0, #0
 80001de:	d1e7      	bne.n	80001b0 <Write_Data+0x40>
			sofar++; // Increment the count of words programmed
 80001e0:	3401      	adds	r4, #1
 80001e2:	e7ed      	b.n	80001c0 <Write_Data+0x50>
 80001e4:	080024bc 	.word	0x080024bc
 80001e8:	2000009c 	.word	0x2000009c
 80001ec:	080024d9 	.word	0x080024d9

080001f0 <Read_Data>:
		*RxBuf = *(__IO uint32_t*) StartAddress;
		StartAddress += 4; // Move to the next word address
		RxBuf++; // Move to the next location in the buffer

		// Decrement WordSize and check if it reaches 0
		if (!(WordSize--))
 80001f0:	f64f 73ff 	movw	r3, #65535	@ 0xffff
void Read_Data(uint32_t StartAddress, uint32_t *RxBuf, uint16_t WordSize) {
 80001f4:	b510      	push	{r4, lr}
		*RxBuf = *(__IO uint32_t*) StartAddress;
 80001f6:	1a40      	subs	r0, r0, r1
		if (!(WordSize--))
 80001f8:	3a01      	subs	r2, #1
		*RxBuf = *(__IO uint32_t*) StartAddress;
 80001fa:	580c      	ldr	r4, [r1, r0]
		if (!(WordSize--))
 80001fc:	b292      	uxth	r2, r2
 80001fe:	429a      	cmp	r2, r3
		*RxBuf = *(__IO uint32_t*) StartAddress;
 8000200:	f841 4b04 	str.w	r4, [r1], #4
		if (!(WordSize--))
 8000204:	d1f8      	bne.n	80001f8 <Read_Data+0x8>
			break; // If WordSize becomes 0, exit the loop
	}
}
 8000206:	bd10      	pop	{r4, pc}

08000208 <Erase_APP_Slot>:

void Erase_APP_Slot() {
 8000208:	b507      	push	{r0, r1, r2, lr}

	HAL_FLASH_Unlock();
 800020a:	f000 fcc1 	bl	8000b90 <HAL_FLASH_Unlock>
	static FLASH_EraseInitTypeDef EraseInitStruct; // Static structure for Flash erase configuration
	uint32_t PAGEError;

	// Fill erase configuration structure
	EraseInitStruct.TypeErase = FLASH_TYPEERASE_PAGES;
 800020e:	2300      	movs	r3, #0
 8000210:	4808      	ldr	r0, [pc, #32]	@ (8000234 <Erase_APP_Slot+0x2c>)
	EraseInitStruct.PageAddress = APPLICATION_LOCATION;
	EraseInitStruct.NbPages = 43;
 8000212:	4909      	ldr	r1, [pc, #36]	@ (8000238 <Erase_APP_Slot+0x30>)
	EraseInitStruct.TypeErase = FLASH_TYPEERASE_PAGES;
 8000214:	6003      	str	r3, [r0, #0]
	EraseInitStruct.NbPages = 43;
 8000216:	232b      	movs	r3, #43	@ 0x2b
 8000218:	e9c0 1302 	strd	r1, r3, [r0, #8]

	// Erase Flash pages
	if (HAL_FLASHEx_Erase(&EraseInitStruct, &PAGEError) != HAL_OK) {
 800021c:	a901      	add	r1, sp, #4
 800021e:	f000 fd67 	bl	8000cf0 <HAL_FLASHEx_Erase>
 8000222:	b120      	cbz	r0, 800022e <Erase_APP_Slot+0x26>
		/* Error occurred while page erase */
		return HAL_FLASH_GetError();
 8000224:	f000 fcd0 	bl	8000bc8 <HAL_FLASH_GetError>
	}
	HAL_FLASH_Lock();
}
 8000228:	b003      	add	sp, #12
 800022a:	f85d fb04 	ldr.w	pc, [sp], #4
	HAL_FLASH_Lock();
 800022e:	f000 fcc1 	bl	8000bb4 <HAL_FLASH_Lock>
 8000232:	e7f9      	b.n	8000228 <Erase_APP_Slot+0x20>
 8000234:	2000008c 	.word	0x2000008c
 8000238:	08003800 	.word	0x08003800

0800023c <MX_IWDG_Init>:
  * @brief IWDG Initialization Function
  * @param None
  * @retval None
  */
static void MX_IWDG_Init(void)
{
 800023c:	b508      	push	{r3, lr}

  /* USER CODE BEGIN IWDG_Init 1 */

  /* USER CODE END IWDG_Init 1 */
  hiwdg.Instance = IWDG;
  hiwdg.Init.Prescaler = IWDG_PRESCALER_256;
 800023e:	2306      	movs	r3, #6
  hiwdg.Instance = IWDG;
 8000240:	4806      	ldr	r0, [pc, #24]	@ (800025c <MX_IWDG_Init+0x20>)
  hiwdg.Init.Prescaler = IWDG_PRESCALER_256;
 8000242:	4a07      	ldr	r2, [pc, #28]	@ (8000260 <MX_IWDG_Init+0x24>)
 8000244:	e9c0 2300 	strd	r2, r3, [r0]
  hiwdg.Init.Reload = 780;
 8000248:	f44f 7343 	mov.w	r3, #780	@ 0x30c
 800024c:	6083      	str	r3, [r0, #8]
  if (HAL_IWDG_Init(&hiwdg) != HAL_OK)
 800024e:	f000 fe77 	bl	8000f40 <HAL_IWDG_Init>
 8000252:	b108      	cbz	r0, 8000258 <MX_IWDG_Init+0x1c>
  \details Disables IRQ interrupts by setting the I-bit in the CPSR.
           Can only be executed in Privileged modes.
 */
__STATIC_FORCEINLINE void __disable_irq(void)
{
  __ASM volatile ("cpsid i" : : : "memory");
 8000254:	b672      	cpsid	i
void Error_Handler(void)
{
  /* USER CODE BEGIN Error_Handler_Debug */
  /* User can add his own implementation to report the HAL error return state */
  __disable_irq();
  while (1)
 8000256:	e7fe      	b.n	8000256 <MX_IWDG_Init+0x1a>
}
 8000258:	bd08      	pop	{r3, pc}
 800025a:	bf00      	nop
 800025c:	2000013c 	.word	0x2000013c
 8000260:	40003000 	.word	0x40003000

08000264 <calc_CRC>:
	uint8_t eof;
} __attribute__((packed)) OTA_RESP_;

#endif

uint16_t calc_CRC(uint8_t data[], uint8_t len) {
 8000264:	4603      	mov	r3, r0
	uint16_t crc = 0xFFFF;
 8000266:	f64f 70ff 	movw	r0, #65535	@ 0xffff
		crc ^= (uint16_t) data[pos];     // XOR byte into least sig. byte of crc

		for (int i = 8; i != 0; i--) {    // Loop over each bit
			if ((crc & 0x0001) != 0) {      // If the LSB is set
				crc >>= 1;                    // Shift right and XOR 0xA001
				crc ^= crc_val;
 800026a:	4a09      	ldr	r2, [pc, #36]	@ (8000290 <calc_CRC+0x2c>)
uint16_t calc_CRC(uint8_t data[], uint8_t len) {
 800026c:	b530      	push	{r4, r5, lr}
				crc ^= crc_val;
 800026e:	8815      	ldrh	r5, [r2, #0]
	for (int pos = (len - 1); pos >= 0; pos--) {
 8000270:	3901      	subs	r1, #1
 8000272:	1c4a      	adds	r2, r1, #1
 8000274:	d100      	bne.n	8000278 <calc_CRC+0x14>
				crc >>= 1;                    // Just shift right
		}
	}
	// Note, this number has low and high bytes swapped, so use it accordingly (or swap bytes)
	return crc;
}
 8000276:	bd30      	pop	{r4, r5, pc}
		crc ^= (uint16_t) data[pos];     // XOR byte into least sig. byte of crc
 8000278:	5c5a      	ldrb	r2, [r3, r1]
 800027a:	4050      	eors	r0, r2
 800027c:	2208      	movs	r2, #8
			if ((crc & 0x0001) != 0) {      // If the LSB is set
 800027e:	f340 0400 	sbfx	r4, r0, #0, #1
 8000282:	402c      	ands	r4, r5
		for (int i = 8; i != 0; i--) {    // Loop over each bit
 8000284:	3a01      	subs	r2, #1
			if ((crc & 0x0001) != 0) {      // If the LSB is set
 8000286:	ea84 0050 	eor.w	r0, r4, r0, lsr #1
		for (int i = 8; i != 0; i--) {    // Loop over each bit
 800028a:	d1f8      	bne.n	800027e <calc_CRC+0x1a>
	for (int pos = (len - 1); pos >= 0; pos--) {
 800028c:	3901      	subs	r1, #1
 800028e:	e7f0      	b.n	8000272 <calc_CRC+0xe>
 8000290:	20000000 	.word	0x20000000

08000294 <reverseArray>:

void reverseArray(uint8_t arr[], int size) {
	int start = 0;
 8000294:	2300      	movs	r3, #0
void reverseArray(uint8_t arr[], int size) {
 8000296:	b530      	push	{r4, r5, lr}
 8000298:	1e42      	subs	r2, r0, #1
 800029a:	4408      	add	r0, r1
	int end = size - 1;

	while (start < end) {
 800029c:	3901      	subs	r1, #1
 800029e:	1acc      	subs	r4, r1, r3
 80002a0:	42a3      	cmp	r3, r4
 80002a2:	db00      	blt.n	80002a6 <reverseArray+0x12>

		// Move indices towards the center
		start++;
		end--;
	}
}
 80002a4:	bd30      	pop	{r4, r5, pc}
		uint8_t temp = arr[start];
 80002a6:	f812 4f01 	ldrb.w	r4, [r2, #1]!
		arr[start] = arr[end];
 80002aa:	f810 5d01 	ldrb.w	r5, [r0, #-1]!
		start++;
 80002ae:	3301      	adds	r3, #1
		arr[start] = arr[end];
 80002b0:	7015      	strb	r5, [r2, #0]
		arr[end] = temp;
 80002b2:	7004      	strb	r4, [r0, #0]
		end--;
 80002b4:	e7f3      	b.n	800029e <reverseArray+0xa>

080002b6 <SystemClock_Config>:
  RCC_OscInitTypeDef RCC_OscInitStruct = {0};
 80002b6:	2220      	movs	r2, #32
{
 80002b8:	b510      	push	{r4, lr}
 80002ba:	b090      	sub	sp, #64	@ 0x40
  RCC_OscInitTypeDef RCC_OscInitStruct = {0};
 80002bc:	2100      	movs	r1, #0
 80002be:	eb0d 0002 	add.w	r0, sp, r2
 80002c2:	f001 fe41 	bl	8001f48 <memset>
  RCC_ClkInitTypeDef RCC_ClkInitStruct = {0};
 80002c6:	2100      	movs	r1, #0
 80002c8:	2214      	movs	r2, #20
 80002ca:	a801      	add	r0, sp, #4
 80002cc:	f001 fe3c 	bl	8001f48 <memset>
  RCC_OscInitStruct.HSEState = RCC_HSE_ON;
 80002d0:	f44f 3380 	mov.w	r3, #65536	@ 0x10000
 80002d4:	2209      	movs	r2, #9
  RCC_OscInitStruct.PLL.PLLState = RCC_PLL_ON;
 80002d6:	2402      	movs	r4, #2
  RCC_OscInitStruct.HSEState = RCC_HSE_ON;
 80002d8:	e9cd 2306 	strd	r2, r3, [sp, #24]
  RCC_OscInitStruct.HSIState = RCC_HSI_ON;
 80002dc:	2201      	movs	r2, #1
  if (HAL_RCC_OscConfig(&RCC_OscInitStruct) != HAL_OK)
 80002de:	a806      	add	r0, sp, #24
  RCC_OscInitStruct.PLL.PLLSource = RCC_PLLSOURCE_HSE;
 80002e0:	e9cd 430d 	strd	r4, r3, [sp, #52]	@ 0x34
  RCC_OscInitStruct.HSIState = RCC_HSI_ON;
 80002e4:	920a      	str	r2, [sp, #40]	@ 0x28
  RCC_OscInitStruct.LSIState = RCC_LSI_ON;
 80002e6:	920c      	str	r2, [sp, #48]	@ 0x30
  if (HAL_RCC_OscConfig(&RCC_OscInitStruct) != HAL_OK)
 80002e8:	f000 fec6 	bl	8001078 <HAL_RCC_OscConfig>
 80002ec:	4601      	mov	r1, r0
 80002ee:	b108      	cbz	r0, 80002f4 <SystemClock_Config+0x3e>
 80002f0:	b672      	cpsid	i
  while (1)
 80002f2:	e7fe      	b.n	80002f2 <SystemClock_Config+0x3c>
  RCC_ClkInitStruct.ClockType = RCC_CLOCKTYPE_HCLK|RCC_CLOCKTYPE_SYSCLK
 80002f4:	230f      	movs	r3, #15
  RCC_ClkInitStruct.APB1CLKDivider = RCC_HCLK_DIV1;
 80002f6:	e9cd 0003 	strd	r0, r0, [sp, #12]
  RCC_ClkInitStruct.APB2CLKDivider = RCC_HCLK_DIV1;
 80002fa:	9005      	str	r0, [sp, #20]
  if (HAL_RCC_ClockConfig(&RCC_ClkInitStruct, FLASH_LATENCY_0) != HAL_OK)
 80002fc:	a801      	add	r0, sp, #4
  RCC_ClkInitStruct.SYSCLKSource = RCC_SYSCLKSOURCE_PLLCLK;
 80002fe:	e9cd 3401 	strd	r3, r4, [sp, #4]
  if (HAL_RCC_ClockConfig(&RCC_ClkInitStruct, FLASH_LATENCY_0) != HAL_OK)
 8000302:	f001 f87b 	bl	80013fc <HAL_RCC_ClockConfig>
 8000306:	b108      	cbz	r0, 800030c <SystemClock_Config+0x56>
 8000308:	b672      	cpsid	i
  while (1)
 800030a:	e7fe      	b.n	800030a <SystemClock_Config+0x54>
}
 800030c:	b010      	add	sp, #64	@ 0x40
 800030e:	bd10      	pop	{r4, pc}

08000310 <send_response>:
	memset(rec_crc, 0, 16);
 8000310:	4b0f      	ldr	r3, [pc, #60]	@ (8000350 <send_response+0x40>)
void send_response(uint8_t is_success) {
 8000312:	b513      	push	{r0, r1, r4, lr}
	memset(rec_crc, 0, 16);
 8000314:	220f      	movs	r2, #15
void send_response(uint8_t is_success) {
 8000316:	4604      	mov	r4, r0
	memset(rec_crc, 0, 16);
 8000318:	2100      	movs	r1, #0
 800031a:	4618      	mov	r0, r3
 800031c:	f001 fe14 	bl	8001f48 <memset>
	OTA_RESP_ response = { .sof = OTA_SOF, .packet_type = OTA_RESPONSE,
 8000320:	4a0c      	ldr	r2, [pc, #48]	@ (8000354 <send_response+0x44>)
	rec_crc[0] = is_success;
 8000322:	f800 4c01 	strb.w	r4, [r0, #-1]
			.data_len = 1, .status = is_success, .crc = calc_CRC(rec_crc, 1),
 8000326:	2101      	movs	r1, #1
 8000328:	3801      	subs	r0, #1
	OTA_RESP_ response = { .sof = OTA_SOF, .packet_type = OTA_RESPONSE,
 800032a:	9200      	str	r2, [sp, #0]
 800032c:	f88d 4004 	strb.w	r4, [sp, #4]
			.data_len = 1, .status = is_success, .crc = calc_CRC(rec_crc, 1),
 8000330:	f7ff ff98 	bl	8000264 <calc_CRC>
	OTA_RESP_ response = { .sof = OTA_SOF, .packet_type = OTA_RESPONSE,
 8000334:	230a      	movs	r3, #10
 8000336:	f8ad 0005 	strh.w	r0, [sp, #5]
 800033a:	f88d 3007 	strb.w	r3, [sp, #7]
	HAL_UART_Transmit(&huart1, &response, 8, HAL_MAX_DELAY);
 800033e:	2208      	movs	r2, #8
 8000340:	f04f 33ff 	mov.w	r3, #4294967295
 8000344:	4669      	mov	r1, sp
 8000346:	4804      	ldr	r0, [pc, #16]	@ (8000358 <send_response+0x48>)
 8000348:	f001 f9dd 	bl	8001706 <HAL_UART_Transmit>
}
 800034c:	b002      	add	sp, #8
 800034e:	bd10      	pop	{r4, pc}
 8000350:	200000e1 	.word	0x200000e1
 8000354:	000105a1 	.word	0x000105a1
 8000358:	200000f4 	.word	0x200000f4

0800035c <frame_Handle>:
void frame_Handle(uint8_t *Frame) {
 800035c:	e92d 43f8 	stmdb	sp!, {r3, r4, r5, r6, r7, r8, r9, lr}
	switch (ota_state) {
 8000360:	4d5a      	ldr	r5, [pc, #360]	@ (80004cc <frame_Handle+0x170>)
void frame_Handle(uint8_t *Frame) {
 8000362:	4604      	mov	r4, r0
	switch (ota_state) {
 8000364:	782b      	ldrb	r3, [r5, #0]
 8000366:	4e5a      	ldr	r6, [pc, #360]	@ (80004d0 <frame_Handle+0x174>)
 8000368:	3b01      	subs	r3, #1
 800036a:	2b04      	cmp	r3, #4
 800036c:	d834      	bhi.n	80003d8 <frame_Handle+0x7c>
 800036e:	e8df f003 	tbb	[pc, r3]
 8000372:	1903      	.short	0x1903
 8000374:	613c      	.short	0x613c
 8000376:	8d          	.byte	0x8d
 8000377:	00          	.byte	0x00
		if (som->sof == OTA_HANDSHAKE && som->crc == 0xC8AA) {
 8000378:	7803      	ldrb	r3, [r0, #0]
 800037a:	2b23      	cmp	r3, #35	@ 0x23
 800037c:	d109      	bne.n	8000392 <frame_Handle+0x36>
 800037e:	f64c 03aa 	movw	r3, #51370	@ 0xc8aa
 8000382:	8a02      	ldrh	r2, [r0, #16]
 8000384:	429a      	cmp	r2, r3
 8000386:	d104      	bne.n	8000392 <frame_Handle+0x36>
			send_response(0x03);
 8000388:	2003      	movs	r0, #3
				send_response(OTA_NACK);
 800038a:	f7ff ffc1 	bl	8000310 <send_response>
				ota_state = OTA_STATE_START;
 800038e:	2302      	movs	r3, #2
 8000390:	e006      	b.n	80003a0 <frame_Handle+0x44>
			NACK_counter += 1;
 8000392:	6833      	ldr	r3, [r6, #0]
			send_response(OTA_NACK);
 8000394:	2002      	movs	r0, #2
			NACK_counter += 1;
 8000396:	3301      	adds	r3, #1
 8000398:	6033      	str	r3, [r6, #0]
			send_response(OTA_NACK);
 800039a:	f7ff ffb9 	bl	8000310 <send_response>
			ota_state = OTA_STATE_HANDSHAKE;
 800039e:	2301      	movs	r3, #1
				ota_state = OTA_STATE_END;
 80003a0:	702b      	strb	r3, [r5, #0]
 80003a2:	e019      	b.n	80003d8 <frame_Handle+0x7c>
		Write_Data(CONFIGURATION_LOCATION, Data, 1, 1);
 80003a4:	2301      	movs	r3, #1
		Data[0] = 0x03;
 80003a6:	2703      	movs	r7, #3
 80003a8:	494a      	ldr	r1, [pc, #296]	@ (80004d4 <frame_Handle+0x178>)
		Write_Data(CONFIGURATION_LOCATION, Data, 1, 1);
 80003aa:	461a      	mov	r2, r3
 80003ac:	484a      	ldr	r0, [pc, #296]	@ (80004d8 <frame_Handle+0x17c>)
		Data[0] = 0x03;
 80003ae:	600f      	str	r7, [r1, #0]
		Write_Data(CONFIGURATION_LOCATION, Data, 1, 1);
 80003b0:	f7ff fede 	bl	8000170 <Write_Data>
		if (cmd->packet_type == OTA_START) {
 80003b4:	f894 8001 	ldrb.w	r8, [r4, #1]
 80003b8:	f1b8 0f01 	cmp.w	r8, #1
 80003bc:	d10c      	bne.n	80003d8 <frame_Handle+0x7c>
			if (cmd->crc == calc_CRC(rec_crc, cmd->data_len)) {
 80003be:	8861      	ldrh	r1, [r4, #2]
 80003c0:	4846      	ldr	r0, [pc, #280]	@ (80004dc <frame_Handle+0x180>)
 80003c2:	b2c9      	uxtb	r1, r1
 80003c4:	f7ff ff4e 	bl	8000264 <calc_CRC>
 80003c8:	f8b4 9006 	ldrh.w	r9, [r4, #6]
 80003cc:	4581      	cmp	r9, r0
 80003ce:	d107      	bne.n	80003e0 <frame_Handle+0x84>
				send_response(OTA_ACK);
 80003d0:	4640      	mov	r0, r8
 80003d2:	f7ff ff9d 	bl	8000310 <send_response>
				ota_state = OTA_STATE_HEADER;
 80003d6:	702f      	strb	r7, [r5, #0]
	if (NACK_counter >= 3) {
 80003d8:	6833      	ldr	r3, [r6, #0]
 80003da:	2b02      	cmp	r3, #2
 80003dc:	d974      	bls.n	80004c8 <frame_Handle+0x16c>
		while (1)
 80003de:	e7fe      	b.n	80003de <frame_Handle+0x82>
				NACK_counter += 1;
 80003e0:	6833      	ldr	r3, [r6, #0]
				send_response(OTA_NACK);
 80003e2:	2002      	movs	r0, #2
				NACK_counter += 1;
 80003e4:	3301      	adds	r3, #1
 80003e6:	6033      	str	r3, [r6, #0]
				send_response(OTA_NACK);
 80003e8:	e7cf      	b.n	800038a <frame_Handle+0x2e>
		if (header->packet_type == OTA_APP_SIZE) {
 80003ea:	f890 8001 	ldrb.w	r8, [r0, #1]
 80003ee:	f1b8 0f02 	cmp.w	r8, #2
 80003f2:	d1f1      	bne.n	80003d8 <frame_Handle+0x7c>
			reverseArray(rec_crc, header->data_len);
 80003f4:	4f39      	ldr	r7, [pc, #228]	@ (80004dc <frame_Handle+0x180>)
 80003f6:	8841      	ldrh	r1, [r0, #2]
 80003f8:	4638      	mov	r0, r7
 80003fa:	f7ff ff4b 	bl	8000294 <reverseArray>
			if (header->crc == calc_CRC(rec_crc, header->data_len)) {
 80003fe:	8861      	ldrh	r1, [r4, #2]
 8000400:	4638      	mov	r0, r7
 8000402:	b2c9      	uxtb	r1, r1
 8000404:	f7ff ff2e 	bl	8000264 <calc_CRC>
 8000408:	f8b4 9006 	ldrh.w	r9, [r4, #6]
 800040c:	4581      	cmp	r9, r0
 800040e:	d109      	bne.n	8000424 <frame_Handle+0xc8>
				application_size = rec_crc[1] << 8 | rec_crc[0];
 8000410:	883a      	ldrh	r2, [r7, #0]
 8000412:	4b33      	ldr	r3, [pc, #204]	@ (80004e0 <frame_Handle+0x184>)
 8000414:	801a      	strh	r2, [r3, #0]
				Erase_APP_Slot();
 8000416:	f7ff fef7 	bl	8000208 <Erase_APP_Slot>
				send_response(OTA_ACK);
 800041a:	2001      	movs	r0, #1
				send_response(OTA_NACK);
 800041c:	f7ff ff78 	bl	8000310 <send_response>
				ota_state = OTA_STATE_DATA;
 8000420:	2304      	movs	r3, #4
 8000422:	e7bd      	b.n	80003a0 <frame_Handle+0x44>
				NACK_counter += 1;
 8000424:	6833      	ldr	r3, [r6, #0]
				send_response(OTA_NACK);
 8000426:	4640      	mov	r0, r8
				NACK_counter += 1;
 8000428:	3301      	adds	r3, #1
 800042a:	6033      	str	r3, [r6, #0]
				send_response(OTA_NACK);
 800042c:	f7ff ff70 	bl	8000310 <send_response>
				ota_state = OTA_STATE_HEADER;
 8000430:	2303      	movs	r3, #3
 8000432:	e7b5      	b.n	80003a0 <frame_Handle+0x44>
		if (data->packet_type == OTA_DATA) {
 8000434:	7843      	ldrb	r3, [r0, #1]
 8000436:	2b03      	cmp	r3, #3
 8000438:	d1ce      	bne.n	80003d8 <frame_Handle+0x7c>
			reverseArray(rec_crc, data->data_len);
 800043a:	8841      	ldrh	r1, [r0, #2]
 800043c:	4827      	ldr	r0, [pc, #156]	@ (80004dc <frame_Handle+0x180>)
 800043e:	f7ff ff29 	bl	8000294 <reverseArray>
			if (data->crc == calc_CRC(rec_crc, data->data_len)) {
 8000442:	8861      	ldrh	r1, [r4, #2]
 8000444:	4825      	ldr	r0, [pc, #148]	@ (80004dc <frame_Handle+0x180>)
 8000446:	b2c9      	uxtb	r1, r1
 8000448:	f7ff ff0c 	bl	8000264 <calc_CRC>
 800044c:	8aa7      	ldrh	r7, [r4, #20]
 800044e:	4287      	cmp	r7, r0
 8000450:	d117      	bne.n	8000482 <frame_Handle+0x126>
				Write_Data(
 8000452:	2204      	movs	r2, #4
				APPLICATION_LOCATION + application_write_idx, data->data, 4, 0);
 8000454:	4f23      	ldr	r7, [pc, #140]	@ (80004e4 <frame_Handle+0x188>)
				Write_Data(
 8000456:	18a1      	adds	r1, r4, r2
				APPLICATION_LOCATION + application_write_idx, data->data, 4, 0);
 8000458:	8838      	ldrh	r0, [r7, #0]
				Write_Data(
 800045a:	2300      	movs	r3, #0
 800045c:	f100 6000 	add.w	r0, r0, #134217728	@ 0x8000000
 8000460:	f500 5060 	add.w	r0, r0, #14336	@ 0x3800
 8000464:	f7ff fe84 	bl	8000170 <Write_Data>
				application_write_idx += 16;
 8000468:	883b      	ldrh	r3, [r7, #0]
				send_response(OTA_ACK);
 800046a:	2001      	movs	r0, #1
				application_write_idx += 16;
 800046c:	3310      	adds	r3, #16
 800046e:	803b      	strh	r3, [r7, #0]
				send_response(OTA_ACK);
 8000470:	f7ff ff4e 	bl	8000310 <send_response>
				if (application_write_idx >= application_size) {
 8000474:	4b1a      	ldr	r3, [pc, #104]	@ (80004e0 <frame_Handle+0x184>)
 8000476:	883a      	ldrh	r2, [r7, #0]
 8000478:	881b      	ldrh	r3, [r3, #0]
 800047a:	429a      	cmp	r2, r3
 800047c:	d3d0      	bcc.n	8000420 <frame_Handle+0xc4>
				ota_state = OTA_STATE_END;
 800047e:	2305      	movs	r3, #5
 8000480:	e78e      	b.n	80003a0 <frame_Handle+0x44>
				NACK_counter += 1;
 8000482:	6833      	ldr	r3, [r6, #0]
				send_response(OTA_NACK);
 8000484:	2002      	movs	r0, #2
				NACK_counter += 1;
 8000486:	3301      	adds	r3, #1
 8000488:	6033      	str	r3, [r6, #0]
				send_response(OTA_NACK);
 800048a:	e7c7      	b.n	800041c <frame_Handle+0xc0>
		if (end->packet_type == OTA_END) {
 800048c:	7843      	ldrb	r3, [r0, #1]
 800048e:	2b04      	cmp	r3, #4
 8000490:	d1a2      	bne.n	80003d8 <frame_Handle+0x7c>
			if (end->crc == calc_CRC(rec_crc, end->data_len)) {
 8000492:	8841      	ldrh	r1, [r0, #2]
 8000494:	88c7      	ldrh	r7, [r0, #6]
 8000496:	b2c9      	uxtb	r1, r1
 8000498:	4810      	ldr	r0, [pc, #64]	@ (80004dc <frame_Handle+0x180>)
 800049a:	f7ff fee3 	bl	8000264 <calc_CRC>
 800049e:	4287      	cmp	r7, r0
 80004a0:	d10b      	bne.n	80004ba <frame_Handle+0x15e>
				send_response(OTA_ACK);
 80004a2:	2001      	movs	r0, #1
 80004a4:	f7ff ff34 	bl	8000310 <send_response>
				Data[0] = 0x01;
 80004a8:	2301      	movs	r3, #1
 80004aa:	490a      	ldr	r1, [pc, #40]	@ (80004d4 <frame_Handle+0x178>)
				Write_Data(CONFIGURATION_LOCATION, Data, 1, 1);
 80004ac:	461a      	mov	r2, r3
 80004ae:	480a      	ldr	r0, [pc, #40]	@ (80004d8 <frame_Handle+0x17c>)
				Data[0] = 0x01;
 80004b0:	600b      	str	r3, [r1, #0]
				Write_Data(CONFIGURATION_LOCATION, Data, 1, 1);
 80004b2:	f7ff fe5d 	bl	8000170 <Write_Data>
				ota_state = OTA_STATE_IDLE;
 80004b6:	2300      	movs	r3, #0
 80004b8:	e772      	b.n	80003a0 <frame_Handle+0x44>
				NACK_counter += 1;
 80004ba:	6833      	ldr	r3, [r6, #0]
				send_response(OTA_NACK);
 80004bc:	2002      	movs	r0, #2
				NACK_counter += 1;
 80004be:	3301      	adds	r3, #1
 80004c0:	6033      	str	r3, [r6, #0]
				send_response(OTA_NACK);
 80004c2:	f7ff ff25 	bl	8000310 <send_response>
 80004c6:	e7da      	b.n	800047e <frame_Handle+0x122>
}
 80004c8:	e8bd 83f8 	ldmia.w	sp!, {r3, r4, r5, r6, r7, r8, r9, pc}
 80004cc:	200000ac 	.word	0x200000ac
 80004d0:	200000b0 	.word	0x200000b0
 80004d4:	200000d0 	.word	0x200000d0
 80004d8:	08002c00 	.word	0x08002c00
 80004dc:	200000e0 	.word	0x200000e0
 80004e0:	200000f2 	.word	0x200000f2
 80004e4:	200000f0 	.word	0x200000f0

080004e8 <HAL_UART_RxCpltCallback>:
void HAL_UART_RxCpltCallback(UART_HandleTypeDef *huart) {
 80004e8:	b570      	push	{r4, r5, r6, lr}
 80004ea:	4604      	mov	r4, r0
	if (huart == &huart1) { // check which UART peripheral generated the interrupt
 80004ec:	4e31      	ldr	r6, [pc, #196]	@ (80005b4 <HAL_UART_RxCpltCallback+0xcc>)
 	memset(rec_crc, 0, 16);
 80004ee:	2210      	movs	r2, #16
 80004f0:	2100      	movs	r1, #0
 80004f2:	4831      	ldr	r0, [pc, #196]	@ (80005b8 <HAL_UART_RxCpltCallback+0xd0>)
 80004f4:	f001 fd28 	bl	8001f48 <memset>
	if (huart == &huart1) { // check which UART peripheral generated the interrupt
 80004f8:	42b4      	cmp	r4, r6
 80004fa:	d15a      	bne.n	80005b2 <HAL_UART_RxCpltCallback+0xca>
		if (Rx_Dataframe[0] == 0x23 || Rx_Dataframe[0] == 0xA1) {
 80004fc:	4c2f      	ldr	r4, [pc, #188]	@ (80005bc <HAL_UART_RxCpltCallback+0xd4>)
		HAL_IWDG_Refresh(&hiwdg);
 80004fe:	4830      	ldr	r0, [pc, #192]	@ (80005c0 <HAL_UART_RxCpltCallback+0xd8>)
 8000500:	f000 fd47 	bl	8000f92 <HAL_IWDG_Refresh>
		if (Rx_Dataframe[0] == 0x23 || Rx_Dataframe[0] == 0xA1) {
 8000504:	7823      	ldrb	r3, [r4, #0]
 8000506:	4d2f      	ldr	r5, [pc, #188]	@ (80005c4 <HAL_UART_RxCpltCallback+0xdc>)
 8000508:	2b23      	cmp	r3, #35	@ 0x23
 800050a:	d001      	beq.n	8000510 <HAL_UART_RxCpltCallback+0x28>
 800050c:	2ba1      	cmp	r3, #161	@ 0xa1
 800050e:	d14c      	bne.n	80005aa <HAL_UART_RxCpltCallback+0xc2>
			HAL_IWDG_Refresh(&hiwdg);
 8000510:	482b      	ldr	r0, [pc, #172]	@ (80005c0 <HAL_UART_RxCpltCallback+0xd8>)
 8000512:	f000 fd3e 	bl	8000f92 <HAL_IWDG_Refresh>
			Rx_Dataframe[index1++] = huart->Instance->DR; // store the received byte in the buffer
 8000516:	882a      	ldrh	r2, [r5, #0]
 8000518:	6833      	ldr	r3, [r6, #0]
 800051a:	6859      	ldr	r1, [r3, #4]
 800051c:	1c53      	adds	r3, r2, #1
 800051e:	b29b      	uxth	r3, r3
 8000520:	54a1      	strb	r1, [r4, r2]
			if (Rx_Dataframe[index1 - 1] == 0x0A
 8000522:	18e2      	adds	r2, r4, r3
 8000524:	f812 2c01 	ldrb.w	r2, [r2, #-1]
			Rx_Dataframe[index1++] = huart->Instance->DR; // store the received byte in the buffer
 8000528:	802b      	strh	r3, [r5, #0]
			if (Rx_Dataframe[index1 - 1] == 0x0A
 800052a:	2a0a      	cmp	r2, #10
 800052c:	d107      	bne.n	800053e <HAL_UART_RxCpltCallback+0x56>
					&& (((index1 == 20 || index1 == 9)
 800052e:	2b14      	cmp	r3, #20
 8000530:	d001      	beq.n	8000536 <HAL_UART_RxCpltCallback+0x4e>
 8000532:	2b09      	cmp	r3, #9
 8000534:	d10b      	bne.n	800054e <HAL_UART_RxCpltCallback+0x66>
							&& ota_state != OTA_STATE_DATA) || index1 == 23)) { // check if the end of a line has been reached
 8000536:	4b24      	ldr	r3, [pc, #144]	@ (80005c8 <HAL_UART_RxCpltCallback+0xe0>)
 8000538:	781b      	ldrb	r3, [r3, #0]
 800053a:	2b04      	cmp	r3, #4
 800053c:	d109      	bne.n	8000552 <HAL_UART_RxCpltCallback+0x6a>
		HAL_UART_Receive_IT(&huart1, &Rx_Dataframe[index1], 1); // enable reception of the next byte
 800053e:	8829      	ldrh	r1, [r5, #0]
 8000540:	2201      	movs	r2, #1
 8000542:	4421      	add	r1, r4
 8000544:	481b      	ldr	r0, [pc, #108]	@ (80005b4 <HAL_UART_RxCpltCallback+0xcc>)
}
 8000546:	e8bd 4070 	ldmia.w	sp!, {r4, r5, r6, lr}
		HAL_UART_Receive_IT(&huart1, &Rx_Dataframe[index1], 1); // enable reception of the next byte
 800054a:	f001 baf4 	b.w	8001b36 <HAL_UART_Receive_IT>
							&& ota_state != OTA_STATE_DATA) || index1 == 23)) { // check if the end of a line has been reached
 800054e:	2b17      	cmp	r3, #23
 8000550:	d1f5      	bne.n	800053e <HAL_UART_RxCpltCallback+0x56>
				HAL_IWDG_Refresh(&hiwdg);
 8000552:	481b      	ldr	r0, [pc, #108]	@ (80005c0 <HAL_UART_RxCpltCallback+0xd8>)
 8000554:	f000 fd1d 	bl	8000f92 <HAL_IWDG_Refresh>
				if (ota_state != OTA_STATE_HANDSHAKE) {
 8000558:	4b1b      	ldr	r3, [pc, #108]	@ (80005c8 <HAL_UART_RxCpltCallback+0xe0>)
 800055a:	781b      	ldrb	r3, [r3, #0]
 800055c:	2b01      	cmp	r3, #1
 800055e:	d112      	bne.n	8000586 <HAL_UART_RxCpltCallback+0x9e>
				frame_Handle(Rx_Dataframe);
 8000560:	4816      	ldr	r0, [pc, #88]	@ (80005bc <HAL_UART_RxCpltCallback+0xd4>)
 8000562:	f7ff fefb 	bl	800035c <frame_Handle>
				memset(Rx_Dataframe, 0, 23);
 8000566:	2217      	movs	r2, #23
 8000568:	2100      	movs	r1, #0
 800056a:	4814      	ldr	r0, [pc, #80]	@ (80005bc <HAL_UART_RxCpltCallback+0xd4>)
			memset(Rx_Dataframe, 0, 23);
 800056c:	f001 fcec 	bl	8001f48 <memset>
			memset(rec_crc, 0, 16);
 8000570:	2210      	movs	r2, #16
 8000572:	2100      	movs	r1, #0
 8000574:	4810      	ldr	r0, [pc, #64]	@ (80005b8 <HAL_UART_RxCpltCallback+0xd0>)
 8000576:	f001 fce7 	bl	8001f48 <memset>
			index1 = 0;
 800057a:	2300      	movs	r3, #0
			HAL_IWDG_Refresh(&hiwdg);
 800057c:	4810      	ldr	r0, [pc, #64]	@ (80005c0 <HAL_UART_RxCpltCallback+0xd8>)
			index1 = 0;
 800057e:	802b      	strh	r3, [r5, #0]
			HAL_IWDG_Refresh(&hiwdg);
 8000580:	f000 fd07 	bl	8000f92 <HAL_IWDG_Refresh>
 8000584:	e7db      	b.n	800053e <HAL_UART_RxCpltCallback+0x56>
					temp = Rx_Dataframe[2];
 8000586:	78a2      	ldrb	r2, [r4, #2]
 8000588:	8863      	ldrh	r3, [r4, #2]
					Rx_Dataframe[2] = Rx_Dataframe[3];
 800058a:	78e1      	ldrb	r1, [r4, #3]
					Rx_Dataframe[3] = temp;
 800058c:	70e2      	strb	r2, [r4, #3]
					for (int i = 0; i < data_len; i++) {
 800058e:	2200      	movs	r2, #0
 8000590:	ba5b      	rev16	r3, r3
					Rx_Dataframe[2] = Rx_Dataframe[3];
 8000592:	70a1      	strb	r1, [r4, #2]
					for (int i = 0; i < data_len; i++) {
 8000594:	4808      	ldr	r0, [pc, #32]	@ (80005b8 <HAL_UART_RxCpltCallback+0xd0>)
 8000596:	490d      	ldr	r1, [pc, #52]	@ (80005cc <HAL_UART_RxCpltCallback+0xe4>)
 8000598:	b29b      	uxth	r3, r3
 800059a:	4293      	cmp	r3, r2
 800059c:	dde0      	ble.n	8000560 <HAL_UART_RxCpltCallback+0x78>
						rec_crc[i] = Rx_Dataframe[4 + i];
 800059e:	f811 6f01 	ldrb.w	r6, [r1, #1]!
					for (int i = 0; i < data_len; i++) {
 80005a2:	3201      	adds	r2, #1
						rec_crc[i] = Rx_Dataframe[4 + i];
 80005a4:	f800 6b01 	strb.w	r6, [r0], #1
					for (int i = 0; i < data_len; i++) {
 80005a8:	e7f7      	b.n	800059a <HAL_UART_RxCpltCallback+0xb2>
			memset(Rx_Dataframe, 0, 23);
 80005aa:	2217      	movs	r2, #23
 80005ac:	2100      	movs	r1, #0
 80005ae:	4620      	mov	r0, r4
 80005b0:	e7dc      	b.n	800056c <HAL_UART_RxCpltCallback+0x84>
}
 80005b2:	bd70      	pop	{r4, r5, r6, pc}
 80005b4:	200000f4 	.word	0x200000f4
 80005b8:	200000e0 	.word	0x200000e0
 80005bc:	200000b6 	.word	0x200000b6
 80005c0:	2000013c 	.word	0x2000013c
 80005c4:	200000b4 	.word	0x200000b4
 80005c8:	200000ac 	.word	0x200000ac
 80005cc:	200000b9 	.word	0x200000b9

080005d0 <main>:
  GPIO_InitTypeDef GPIO_InitStruct = {0};
 80005d0:	2500      	movs	r5, #0
{
 80005d2:	b500      	push	{lr}
 80005d4:	b089      	sub	sp, #36	@ 0x24
  HAL_Init();
 80005d6:	f000 f9c5 	bl	8000964 <HAL_Init>
  SystemClock_Config();
 80005da:	f7ff fe6c 	bl	80002b6 <SystemClock_Config>
  __HAL_RCC_GPIOD_CLK_ENABLE();
 80005de:	4b47      	ldr	r3, [pc, #284]	@ (80006fc <main+0x12c>)
  GPIO_InitTypeDef GPIO_InitStruct = {0};
 80005e0:	9506      	str	r5, [sp, #24]
  __HAL_RCC_GPIOD_CLK_ENABLE();
 80005e2:	699a      	ldr	r2, [r3, #24]
  GPIO_InitStruct.Mode = GPIO_MODE_AF_PP;
 80005e4:	2602      	movs	r6, #2
  __HAL_RCC_GPIOD_CLK_ENABLE();
 80005e6:	f042 0220 	orr.w	r2, r2, #32
 80005ea:	619a      	str	r2, [r3, #24]
 80005ec:	699a      	ldr	r2, [r3, #24]
  HAL_GPIO_Init(GPIOC, &GPIO_InitStruct);
 80005ee:	4844      	ldr	r0, [pc, #272]	@ (8000700 <main+0x130>)
  __HAL_RCC_GPIOD_CLK_ENABLE();
 80005f0:	f002 0220 	and.w	r2, r2, #32
 80005f4:	9200      	str	r2, [sp, #0]
 80005f6:	9a00      	ldr	r2, [sp, #0]
  __HAL_RCC_GPIOA_CLK_ENABLE();
 80005f8:	699a      	ldr	r2, [r3, #24]
  HAL_GPIO_Init(GPIOC, &GPIO_InitStruct);
 80005fa:	a904      	add	r1, sp, #16
  __HAL_RCC_GPIOA_CLK_ENABLE();
 80005fc:	f042 0204 	orr.w	r2, r2, #4
 8000600:	619a      	str	r2, [r3, #24]
 8000602:	699a      	ldr	r2, [r3, #24]
  huart1.Instance = USART1;
 8000604:	4c3f      	ldr	r4, [pc, #252]	@ (8000704 <main+0x134>)
  __HAL_RCC_GPIOA_CLK_ENABLE();
 8000606:	f002 0204 	and.w	r2, r2, #4
 800060a:	9201      	str	r2, [sp, #4]
 800060c:	9a01      	ldr	r2, [sp, #4]
  __HAL_RCC_GPIOC_CLK_ENABLE();
 800060e:	699a      	ldr	r2, [r3, #24]
 8000610:	f042 0210 	orr.w	r2, r2, #16
 8000614:	619a      	str	r2, [r3, #24]
 8000616:	699a      	ldr	r2, [r3, #24]
 8000618:	f002 0210 	and.w	r2, r2, #16
 800061c:	9202      	str	r2, [sp, #8]
 800061e:	9a02      	ldr	r2, [sp, #8]
  __HAL_RCC_GPIOB_CLK_ENABLE();
 8000620:	699a      	ldr	r2, [r3, #24]
 8000622:	f042 0208 	orr.w	r2, r2, #8
 8000626:	619a      	str	r2, [r3, #24]
 8000628:	699b      	ldr	r3, [r3, #24]
 800062a:	f003 0308 	and.w	r3, r3, #8
 800062e:	9303      	str	r3, [sp, #12]
 8000630:	9b03      	ldr	r3, [sp, #12]
  GPIO_InitStruct.Mode = GPIO_MODE_AF_PP;
 8000632:	f44f 6380 	mov.w	r3, #1024	@ 0x400
 8000636:	e9cd 3604 	strd	r3, r6, [sp, #16]
  GPIO_InitStruct.Speed = GPIO_SPEED_FREQ_HIGH;
 800063a:	2303      	movs	r3, #3
 800063c:	9307      	str	r3, [sp, #28]
  HAL_GPIO_Init(GPIOC, &GPIO_InitStruct);
 800063e:	f000 fbab 	bl	8000d98 <HAL_GPIO_Init>
  GPIO_InitStruct.Pin = GPIO_PIN_11;
 8000642:	f44f 6300 	mov.w	r3, #2048	@ 0x800
  HAL_GPIO_Init(GPIOC, &GPIO_InitStruct);
 8000646:	482e      	ldr	r0, [pc, #184]	@ (8000700 <main+0x130>)
 8000648:	a904      	add	r1, sp, #16
  GPIO_InitStruct.Mode = GPIO_MODE_INPUT;
 800064a:	e9cd 3504 	strd	r3, r5, [sp, #16]
  GPIO_InitStruct.Pull = GPIO_NOPULL;
 800064e:	9506      	str	r5, [sp, #24]
  HAL_GPIO_Init(GPIOC, &GPIO_InitStruct);
 8000650:	f000 fba2 	bl	8000d98 <HAL_GPIO_Init>
  __HAL_AFIO_REMAP_USART3_PARTIAL();
 8000654:	4a2c      	ldr	r2, [pc, #176]	@ (8000708 <main+0x138>)
  if (HAL_UART_Init(&huart1) != HAL_OK)
 8000656:	4620      	mov	r0, r4
  __HAL_AFIO_REMAP_USART3_PARTIAL();
 8000658:	6853      	ldr	r3, [r2, #4]
 800065a:	f023 0330 	bic.w	r3, r3, #48	@ 0x30
 800065e:	f043 63e0 	orr.w	r3, r3, #117440512	@ 0x7000000
 8000662:	f043 0310 	orr.w	r3, r3, #16
 8000666:	6053      	str	r3, [r2, #4]
  huart1.Init.BaudRate = 115200;
 8000668:	f44f 33e1 	mov.w	r3, #115200	@ 0x1c200
 800066c:	4a27      	ldr	r2, [pc, #156]	@ (800070c <main+0x13c>)
  huart1.Init.StopBits = UART_STOPBITS_1;
 800066e:	e9c4 5502 	strd	r5, r5, [r4, #8]
  huart1.Init.BaudRate = 115200;
 8000672:	e9c4 2300 	strd	r2, r3, [r4]
  huart1.Init.Mode = UART_MODE_TX_RX;
 8000676:	230c      	movs	r3, #12
  huart1.Init.Parity = UART_PARITY_NONE;
 8000678:	6125      	str	r5, [r4, #16]
  huart1.Init.HwFlowCtl = UART_HWCONTROL_NONE;
 800067a:	e9c4 3505 	strd	r3, r5, [r4, #20]
  huart1.Init.OverSampling = UART_OVERSAMPLING_16;
 800067e:	61e5      	str	r5, [r4, #28]
  if (HAL_UART_Init(&huart1) != HAL_OK)
 8000680:	f001 f812 	bl	80016a8 <HAL_UART_Init>
 8000684:	4605      	mov	r5, r0
 8000686:	b108      	cbz	r0, 800068c <main+0xbc>
 8000688:	b672      	cpsid	i
  while (1)
 800068a:	e7fe      	b.n	800068a <main+0xba>
    memset(Rx_Dataframe, 0, 23);
 800068c:	4601      	mov	r1, r0
 800068e:	2217      	movs	r2, #23
 8000690:	481f      	ldr	r0, [pc, #124]	@ (8000710 <main+0x140>)
 8000692:	f001 fc59 	bl	8001f48 <memset>
 	HAL_UART_Receive_IT(&huart1, Rx_Dataframe, 1);
 8000696:	4620      	mov	r0, r4
  	Read_Data(CONFIGURATION_LOCATION, RxVal, 1);
 8000698:	4c1e      	ldr	r4, [pc, #120]	@ (8000714 <main+0x144>)
 	HAL_UART_Receive_IT(&huart1, Rx_Dataframe, 1);
 800069a:	2201      	movs	r2, #1
 800069c:	491c      	ldr	r1, [pc, #112]	@ (8000710 <main+0x140>)
 800069e:	f001 fa4a 	bl	8001b36 <HAL_UART_Receive_IT>
  	Read_Data(CONFIGURATION_LOCATION, RxVal, 1);
 80006a2:	2201      	movs	r2, #1
 80006a4:	4621      	mov	r1, r4
 80006a6:	481c      	ldr	r0, [pc, #112]	@ (8000718 <main+0x148>)
 80006a8:	f7ff fda2 	bl	80001f0 <Read_Data>
  	if (RxVal[0] == 0x10)
 80006ac:	6823      	ldr	r3, [r4, #0]
 80006ae:	2b10      	cmp	r3, #16
 80006b0:	d107      	bne.n	80006c2 <main+0xf2>
  		send_response(OTA_ACK);
 80006b2:	2001      	movs	r0, #1
 80006b4:	f7ff fe2c 	bl	8000310 <send_response>
  		ota_state = OTA_STATE_START;
 80006b8:	4b18      	ldr	r3, [pc, #96]	@ (800071c <main+0x14c>)
 80006ba:	701e      	strb	r6, [r3, #0]
  		MX_IWDG_Init();
 80006bc:	f7ff fdbe 	bl	800023c <MX_IWDG_Init>
  		while (1);
 80006c0:	e7fe      	b.n	80006c0 <main+0xf0>
  	else if (RxVal[0] == 0x03)
 80006c2:	2b03      	cmp	r3, #3
 80006c4:	d105      	bne.n	80006d2 <main+0x102>
  		ota_state = OTA_STATE_HANDSHAKE;
 80006c6:	2201      	movs	r2, #1
 80006c8:	4b14      	ldr	r3, [pc, #80]	@ (800071c <main+0x14c>)
 80006ca:	701a      	strb	r2, [r3, #0]
  		MX_IWDG_Init();
 80006cc:	f7ff fdb6 	bl	800023c <MX_IWDG_Init>
  		while (1);
 80006d0:	e7fe      	b.n	80006d0 <main+0x100>
  	else if (RxVal[0] == 0x01)
 80006d2:	2b01      	cmp	r3, #1
 80006d4:	d110      	bne.n	80006f8 <main+0x128>
			void) = (void*)(*((volatile uint32_t*)(APPLICATION_LOCATION + 4U)));
 80006d6:	4c12      	ldr	r4, [pc, #72]	@ (8000720 <main+0x150>)
 80006d8:	f8d4 6804 	ldr.w	r6, [r4, #2052]	@ 0x804
	HAL_RCC_DeInit();
 80006dc:	f000 fc60 	bl	8000fa0 <HAL_RCC_DeInit>
	HAL_DeInit();
 80006e0:	f000 f90c 	bl	80008fc <HAL_DeInit>
	__set_MSP(*(volatile uint32_t*) APPLICATION_LOCATION);
 80006e4:	f8d4 3800 	ldr.w	r3, [r4, #2048]	@ 0x800
  \details Assigns the given value to the Main Stack Pointer (MSP).
  \param [in]    topOfMainStack  Main Stack Pointer value to set
 */
__STATIC_FORCEINLINE void __set_MSP(uint32_t topOfMainStack)
{
  __ASM volatile ("MSR msp, %0" : : "r" (topOfMainStack) : );
 80006e8:	f383 8808 	msr	MSP, r3
	SysTick->CTRL = 0;
 80006ec:	f04f 23e0 	mov.w	r3, #3758153728	@ 0xe000e000
 80006f0:	611d      	str	r5, [r3, #16]
	SysTick->LOAD = 0;
 80006f2:	615d      	str	r5, [r3, #20]
	SysTick->VAL = 0;
 80006f4:	619d      	str	r5, [r3, #24]
	app_reset_handler();
 80006f6:	47b0      	blx	r6
  while (1)
 80006f8:	e7fe      	b.n	80006f8 <main+0x128>
 80006fa:	bf00      	nop
 80006fc:	40021000 	.word	0x40021000
 8000700:	40011000 	.word	0x40011000
 8000704:	200000f4 	.word	0x200000f4
 8000708:	40010000 	.word	0x40010000
 800070c:	40013800 	.word	0x40013800
 8000710:	200000b6 	.word	0x200000b6
 8000714:	200000d8 	.word	0x200000d8
 8000718:	08002c00 	.word	0x08002c00
 800071c:	200000ac 	.word	0x200000ac
 8000720:	08003000 	.word	0x08003000

08000724 <HAL_MspInit>:

  /* USER CODE BEGIN MspInit 0 */

  /* USER CODE END MspInit 0 */

  __HAL_RCC_AFIO_CLK_ENABLE();
 8000724:	4b0e      	ldr	r3, [pc, #56]	@ (8000760 <HAL_MspInit+0x3c>)
{
 8000726:	b082      	sub	sp, #8
  __HAL_RCC_AFIO_CLK_ENABLE();
 8000728:	699a      	ldr	r2, [r3, #24]
 800072a:	f042 0201 	orr.w	r2, r2, #1
 800072e:	619a      	str	r2, [r3, #24]
 8000730:	699a      	ldr	r2, [r3, #24]
 8000732:	f002 0201 	and.w	r2, r2, #1
 8000736:	9200      	str	r2, [sp, #0]
 8000738:	9a00      	ldr	r2, [sp, #0]
  __HAL_RCC_PWR_CLK_ENABLE();
 800073a:	69da      	ldr	r2, [r3, #28]
 800073c:	f042 5280 	orr.w	r2, r2, #268435456	@ 0x10000000
 8000740:	61da      	str	r2, [r3, #28]
 8000742:	69db      	ldr	r3, [r3, #28]

  /* System interrupt init*/

  /** NOJTAG: JTAG-DP Disabled and SW-DP Enabled
  */
  __HAL_AFIO_REMAP_SWJ_NOJTAG();
 8000744:	4a07      	ldr	r2, [pc, #28]	@ (8000764 <HAL_MspInit+0x40>)
  __HAL_RCC_PWR_CLK_ENABLE();
 8000746:	f003 5380 	and.w	r3, r3, #268435456	@ 0x10000000
 800074a:	9301      	str	r3, [sp, #4]
 800074c:	9b01      	ldr	r3, [sp, #4]
  __HAL_AFIO_REMAP_SWJ_NOJTAG();
 800074e:	6853      	ldr	r3, [r2, #4]
 8000750:	f023 63e0 	bic.w	r3, r3, #117440512	@ 0x7000000
 8000754:	f043 7300 	orr.w	r3, r3, #33554432	@ 0x2000000
 8000758:	6053      	str	r3, [r2, #4]

  /* USER CODE BEGIN MspInit 1 */

  /* USER CODE END MspInit 1 */
}
 800075a:	b002      	add	sp, #8
 800075c:	4770      	bx	lr
 800075e:	bf00      	nop
 8000760:	40021000 	.word	0x40021000
 8000764:	40010000 	.word	0x40010000

08000768 <HAL_UART_MspInit>:
  * This function configures the hardware resources used in this example
  * @param huart: UART handle pointer
  * @retval None
  */
void HAL_UART_MspInit(UART_HandleTypeDef* huart)
{
 8000768:	b510      	push	{r4, lr}
 800076a:	4604      	mov	r4, r0
 800076c:	b086      	sub	sp, #24
  GPIO_InitTypeDef GPIO_InitStruct = {0};
 800076e:	2210      	movs	r2, #16
 8000770:	2100      	movs	r1, #0
 8000772:	a802      	add	r0, sp, #8
 8000774:	f001 fbe8 	bl	8001f48 <memset>
  if(huart->Instance==USART1)
 8000778:	6822      	ldr	r2, [r4, #0]
 800077a:	4b1d      	ldr	r3, [pc, #116]	@ (80007f0 <HAL_UART_MspInit+0x88>)
 800077c:	429a      	cmp	r2, r3
 800077e:	d135      	bne.n	80007ec <HAL_UART_MspInit+0x84>
  {
    /* USER CODE BEGIN USART1_MspInit 0 */

    /* USER CODE END USART1_MspInit 0 */
    /* Peripheral clock enable */
    __HAL_RCC_USART1_CLK_ENABLE();
 8000780:	f503 4358 	add.w	r3, r3, #55296	@ 0xd800
 8000784:	699a      	ldr	r2, [r3, #24]
    PB7     ------> USART1_RX
    */
    GPIO_InitStruct.Pin = GPIO_PIN_6;
    GPIO_InitStruct.Mode = GPIO_MODE_AF_PP;
    GPIO_InitStruct.Speed = GPIO_SPEED_FREQ_HIGH;
    HAL_GPIO_Init(GPIOB, &GPIO_InitStruct);
 8000786:	481b      	ldr	r0, [pc, #108]	@ (80007f4 <HAL_UART_MspInit+0x8c>)
    __HAL_RCC_USART1_CLK_ENABLE();
 8000788:	f442 4280 	orr.w	r2, r2, #16384	@ 0x4000
 800078c:	619a      	str	r2, [r3, #24]
 800078e:	699a      	ldr	r2, [r3, #24]
    HAL_GPIO_Init(GPIOB, &GPIO_InitStruct);
 8000790:	a902      	add	r1, sp, #8
    __HAL_RCC_USART1_CLK_ENABLE();
 8000792:	f402 4280 	and.w	r2, r2, #16384	@ 0x4000
 8000796:	9200      	str	r2, [sp, #0]
 8000798:	9a00      	ldr	r2, [sp, #0]
    __HAL_RCC_GPIOB_CLK_ENABLE();
 800079a:	699a      	ldr	r2, [r3, #24]

    GPIO_InitStruct.Pin = GPIO_PIN_7;
    GPIO_InitStruct.Mode = GPIO_MODE_INPUT;
 800079c:	2400      	movs	r4, #0
    __HAL_RCC_GPIOB_CLK_ENABLE();
 800079e:	f042 0208 	orr.w	r2, r2, #8
 80007a2:	619a      	str	r2, [r3, #24]
 80007a4:	699b      	ldr	r3, [r3, #24]
    GPIO_InitStruct.Mode = GPIO_MODE_AF_PP;
 80007a6:	2240      	movs	r2, #64	@ 0x40
    __HAL_RCC_GPIOB_CLK_ENABLE();
 80007a8:	f003 0308 	and.w	r3, r3, #8
 80007ac:	9301      	str	r3, [sp, #4]
 80007ae:	9b01      	ldr	r3, [sp, #4]
    GPIO_InitStruct.Mode = GPIO_MODE_AF_PP;
 80007b0:	2302      	movs	r3, #2
 80007b2:	e9cd 2302 	strd	r2, r3, [sp, #8]
    GPIO_InitStruct.Speed = GPIO_SPEED_FREQ_HIGH;
 80007b6:	2303      	movs	r3, #3
 80007b8:	9305      	str	r3, [sp, #20]
    HAL_GPIO_Init(GPIOB, &GPIO_InitStruct);
 80007ba:	f000 faed 	bl	8000d98 <HAL_GPIO_Init>
    GPIO_InitStruct.Mode = GPIO_MODE_INPUT;
 80007be:	2380      	movs	r3, #128	@ 0x80
    GPIO_InitStruct.Pull = GPIO_NOPULL;
    HAL_GPIO_Init(GPIOB, &GPIO_InitStruct);
 80007c0:	480c      	ldr	r0, [pc, #48]	@ (80007f4 <HAL_UART_MspInit+0x8c>)
 80007c2:	a902      	add	r1, sp, #8
    GPIO_InitStruct.Mode = GPIO_MODE_INPUT;
 80007c4:	e9cd 3402 	strd	r3, r4, [sp, #8]
    GPIO_InitStruct.Pull = GPIO_NOPULL;
 80007c8:	9404      	str	r4, [sp, #16]
    HAL_GPIO_Init(GPIOB, &GPIO_InitStruct);
 80007ca:	f000 fae5 	bl	8000d98 <HAL_GPIO_Init>

    __HAL_AFIO_REMAP_USART1_ENABLE();
 80007ce:	4a0a      	ldr	r2, [pc, #40]	@ (80007f8 <HAL_UART_MspInit+0x90>)

    /* USART1 interrupt Init */
    HAL_NVIC_SetPriority(USART1_IRQn, 0, 0);
 80007d0:	2025      	movs	r0, #37	@ 0x25
    __HAL_AFIO_REMAP_USART1_ENABLE();
 80007d2:	6853      	ldr	r3, [r2, #4]
    HAL_NVIC_SetPriority(USART1_IRQn, 0, 0);
 80007d4:	4621      	mov	r1, r4
    __HAL_AFIO_REMAP_USART1_ENABLE();
 80007d6:	f043 63e0 	orr.w	r3, r3, #117440512	@ 0x7000000
 80007da:	f043 0304 	orr.w	r3, r3, #4
 80007de:	6053      	str	r3, [r2, #4]
    HAL_NVIC_SetPriority(USART1_IRQn, 0, 0);
 80007e0:	4622      	mov	r2, r4
 80007e2:	f000 f8f5 	bl	80009d0 <HAL_NVIC_SetPriority>
    HAL_NVIC_EnableIRQ(USART1_IRQn);
 80007e6:	2025      	movs	r0, #37	@ 0x25
 80007e8:	f000 f922 	bl	8000a30 <HAL_NVIC_EnableIRQ>

    /* USER CODE END USART1_MspInit 1 */

  }

}
 80007ec:	b006      	add	sp, #24
 80007ee:	bd10      	pop	{r4, pc}
 80007f0:	40013800 	.word	0x40013800
 80007f4:	40010c00 	.word	0x40010c00
 80007f8:	40010000 	.word	0x40010000

080007fc <NMI_Handler>:
{
  /* USER CODE BEGIN NonMaskableInt_IRQn 0 */

  /* USER CODE END NonMaskableInt_IRQn 0 */
  /* USER CODE BEGIN NonMaskableInt_IRQn 1 */
   while (1)
 80007fc:	e7fe      	b.n	80007fc <NMI_Handler>

080007fe <HardFault_Handler>:
void HardFault_Handler(void)
{
  /* USER CODE BEGIN HardFault_IRQn 0 */

  /* USER CODE END HardFault_IRQn 0 */
  while (1)
 80007fe:	e7fe      	b.n	80007fe <HardFault_Handler>

08000800 <MemManage_Handler>:
void MemManage_Handler(void)
{
  /* USER CODE BEGIN MemoryManagement_IRQn 0 */

  /* USER CODE END MemoryManagement_IRQn 0 */
  while (1)
 8000800:	e7fe      	b.n	8000800 <MemManage_Handler>

08000802 <BusFault_Handler>:
void BusFault_Handler(void)
{
  /* USER CODE BEGIN BusFault_IRQn 0 */

  /* USER CODE END BusFault_IRQn 0 */
  while (1)
 8000802:	e7fe      	b.n	8000802 <BusFault_Handler>

08000804 <UsageFault_Handler>:
void UsageFault_Handler(void)
{
  /* USER CODE BEGIN UsageFault_IRQn 0 */

  /* USER CODE END UsageFault_IRQn 0 */
  while (1)
 8000804:	e7fe      	b.n	8000804 <UsageFault_Handler>

08000806 <SVC_Handler>:

  /* USER CODE END SVCall_IRQn 0 */
  /* USER CODE BEGIN SVCall_IRQn 1 */

  /* USER CODE END SVCall_IRQn 1 */
}
 8000806:	4770      	bx	lr

08000808 <DebugMon_Handler>:

/**
  * @brief This function handles Debug monitor.
  */
void DebugMon_Handler(void)
 8000808:	4770      	bx	lr

0800080a <PendSV_Handler>:
}

/**
  * @brief This function handles Pendable request for system service.
  */
void PendSV_Handler(void)
 800080a:	4770      	bx	lr

0800080c <SysTick_Handler>:
void SysTick_Handler(void)
{
  /* USER CODE BEGIN SysTick_IRQn 0 */

  /* USER CODE END SysTick_IRQn 0 */
  HAL_IncTick();
 800080c:	f000 b8bc 	b.w	8000988 <HAL_IncTick>

08000810 <USART1_IRQHandler>:
void USART1_IRQHandler(void)
{
  /* USER CODE BEGIN USART1_IRQn 0 */

  /* USER CODE END USART1_IRQn 0 */
  HAL_UART_IRQHandler(&huart1);
 8000810:	4801      	ldr	r0, [pc, #4]	@ (8000818 <USART1_IRQHandler+0x8>)
 8000812:	f001 b82d 	b.w	8001870 <HAL_UART_IRQHandler>
 8000816:	bf00      	nop
 8000818:	200000f4 	.word	0x200000f4

0800081c <_read>:
  _kill(status, -1);
  while (1) {}    /* Make sure we hang here */
}

__attribute__((weak)) int _read(int file, char *ptr, int len)
{
 800081c:	b570      	push	{r4, r5, r6, lr}
 800081e:	460d      	mov	r5, r1
 8000820:	4614      	mov	r4, r2
  (void)file;
  int DataIdx;

  for (DataIdx = 0; DataIdx < len; DataIdx++)
 8000822:	460e      	mov	r6, r1
 8000824:	1b73      	subs	r3, r6, r5
 8000826:	429c      	cmp	r4, r3
 8000828:	dc01      	bgt.n	800082e <_read+0x12>
  {
    *ptr++ = __io_getchar();
  }

  return len;
}
 800082a:	4620      	mov	r0, r4
 800082c:	bd70      	pop	{r4, r5, r6, pc}
    *ptr++ = __io_getchar();
 800082e:	f3af 8000 	nop.w
 8000832:	f806 0b01 	strb.w	r0, [r6], #1
  for (DataIdx = 0; DataIdx < len; DataIdx++)
 8000836:	e7f5      	b.n	8000824 <_read+0x8>

08000838 <_write>:

__attribute__((weak)) int _write(int file, char *ptr, int len)
{
 8000838:	b570      	push	{r4, r5, r6, lr}
 800083a:	460d      	mov	r5, r1
 800083c:	4614      	mov	r4, r2
  (void)file;
  int DataIdx;

  for (DataIdx = 0; DataIdx < len; DataIdx++)
 800083e:	460e      	mov	r6, r1
 8000840:	1b73      	subs	r3, r6, r5
 8000842:	429c      	cmp	r4, r3
 8000844:	dc01      	bgt.n	800084a <_write+0x12>
  {
    __io_putchar(*ptr++);
  }
  return len;
}
 8000846:	4620      	mov	r0, r4
 8000848:	bd70      	pop	{r4, r5, r6, pc}
    __io_putchar(*ptr++);
 800084a:	f816 0b01 	ldrb.w	r0, [r6], #1
 800084e:	f3af 8000 	nop.w
  for (DataIdx = 0; DataIdx < len; DataIdx++)
 8000852:	e7f5      	b.n	8000840 <_write+0x8>

08000854 <_close>:

int _close(int file)
{
  (void)file;
  return -1;
}
 8000854:	f04f 30ff 	mov.w	r0, #4294967295
 8000858:	4770      	bx	lr

0800085a <_fstat>:


int _fstat(int file, struct stat *st)
{
  (void)file;
  st->st_mode = S_IFCHR;
 800085a:	f44f 5300 	mov.w	r3, #8192	@ 0x2000
  return 0;
}
 800085e:	2000      	movs	r0, #0
  st->st_mode = S_IFCHR;
 8000860:	604b      	str	r3, [r1, #4]
}
 8000862:	4770      	bx	lr

08000864 <_isatty>:

int _isatty(int file)
{
  (void)file;
  return 1;
}
 8000864:	2001      	movs	r0, #1
 8000866:	4770      	bx	lr

08000868 <_lseek>:
{
  (void)file;
  (void)ptr;
  (void)dir;
  return 0;
}
 8000868:	2000      	movs	r0, #0
 800086a:	4770      	bx	lr

0800086c <_sbrk>:
  const uint32_t stack_limit = (uint32_t)&_estack - (uint32_t)&_Min_Stack_Size;
  const uint8_t *max_heap = (uint8_t *)stack_limit;
  uint8_t *prev_heap_end;

  /* Initialize heap end at first call */
  if (NULL == __sbrk_heap_end)
 800086c:	4a0b      	ldr	r2, [pc, #44]	@ (800089c <_sbrk+0x30>)
{
 800086e:	4603      	mov	r3, r0
  if (NULL == __sbrk_heap_end)
 8000870:	6811      	ldr	r1, [r2, #0]
{
 8000872:	b510      	push	{r4, lr}
  if (NULL == __sbrk_heap_end)
 8000874:	b909      	cbnz	r1, 800087a <_sbrk+0xe>
  {
    __sbrk_heap_end = &_end;
 8000876:	490a      	ldr	r1, [pc, #40]	@ (80008a0 <_sbrk+0x34>)
 8000878:	6011      	str	r1, [r2, #0]
  }

  /* Protect heap from growing into the reserved MSP stack */
  if (__sbrk_heap_end + incr > max_heap)
 800087a:	6810      	ldr	r0, [r2, #0]
 800087c:	4909      	ldr	r1, [pc, #36]	@ (80008a4 <_sbrk+0x38>)
 800087e:	4c0a      	ldr	r4, [pc, #40]	@ (80008a8 <_sbrk+0x3c>)
 8000880:	4403      	add	r3, r0
 8000882:	1b09      	subs	r1, r1, r4
 8000884:	428b      	cmp	r3, r1
 8000886:	d906      	bls.n	8000896 <_sbrk+0x2a>
  {
    errno = ENOMEM;
 8000888:	f001 fbac 	bl	8001fe4 <__errno>
 800088c:	230c      	movs	r3, #12
 800088e:	6003      	str	r3, [r0, #0]
    return (void *)-1;
 8000890:	f04f 30ff 	mov.w	r0, #4294967295

  prev_heap_end = __sbrk_heap_end;
  __sbrk_heap_end += incr;

  return (void *)prev_heap_end;
}
 8000894:	bd10      	pop	{r4, pc}
  __sbrk_heap_end += incr;
 8000896:	6013      	str	r3, [r2, #0]
  return (void *)prev_heap_end;
 8000898:	e7fc      	b.n	8000894 <_sbrk+0x28>
 800089a:	bf00      	nop
 800089c:	20000148 	.word	0x20000148
 80008a0:	200002c0 	.word	0x200002c0
 80008a4:	20005000 	.word	0x20005000
 80008a8:	00000400 	.word	0x00000400

080008ac <SystemInit>:

  /* Configure the Vector Table location -------------------------------------*/
#if defined(USER_VECT_TAB_ADDRESS)
  SCB->VTOR = VECT_TAB_BASE_ADDRESS | VECT_TAB_OFFSET; /* Vector Table Relocation in Internal SRAM. */
#endif /* USER_VECT_TAB_ADDRESS */
}
 80008ac:	4770      	bx	lr
	...

080008b0 <Reset_Handler>:
  .weak Reset_Handler
  .type Reset_Handler, %function
Reset_Handler:

/* Call the clock system initialization function.*/
    bl  SystemInit
 80008b0:	f7ff fffc 	bl	80008ac <SystemInit>

/* Copy the data segment initializers from flash to SRAM */
  ldr r0, =_sdata
 80008b4:	480b      	ldr	r0, [pc, #44]	@ (80008e4 <LoopFillZerobss+0xe>)
  ldr r1, =_edata
 80008b6:	490c      	ldr	r1, [pc, #48]	@ (80008e8 <LoopFillZerobss+0x12>)
  ldr r2, =_sidata
 80008b8:	4a0c      	ldr	r2, [pc, #48]	@ (80008ec <LoopFillZerobss+0x16>)
  movs r3, #0
 80008ba:	2300      	movs	r3, #0
  b LoopCopyDataInit
 80008bc:	e002      	b.n	80008c4 <LoopCopyDataInit>

080008be <CopyDataInit>:

CopyDataInit:
  ldr r4, [r2, r3]
 80008be:	58d4      	ldr	r4, [r2, r3]
  str r4, [r0, r3]
 80008c0:	50c4      	str	r4, [r0, r3]
  adds r3, r3, #4
 80008c2:	3304      	adds	r3, #4

080008c4 <LoopCopyDataInit>:

LoopCopyDataInit:
  adds r4, r0, r3
 80008c4:	18c4      	adds	r4, r0, r3
  cmp r4, r1
 80008c6:	428c      	cmp	r4, r1
  bcc CopyDataInit
 80008c8:	d3f9      	bcc.n	80008be <CopyDataInit>
  
/* Zero fill the bss segment. */
  ldr r2, =_sbss
 80008ca:	4a09      	ldr	r2, [pc, #36]	@ (80008f0 <LoopFillZerobss+0x1a>)
  ldr r4, =_ebss
 80008cc:	4c09      	ldr	r4, [pc, #36]	@ (80008f4 <LoopFillZerobss+0x1e>)
  movs r3, #0
 80008ce:	2300      	movs	r3, #0
  b LoopFillZerobss
 80008d0:	e001      	b.n	80008d6 <LoopFillZerobss>

080008d2 <FillZerobss>:

FillZerobss:
  str  r3, [r2]
 80008d2:	6013      	str	r3, [r2, #0]
  adds r2, r2, #4
 80008d4:	3204      	adds	r2, #4

080008d6 <LoopFillZerobss>:

LoopFillZerobss:
  cmp r2, r4
 80008d6:	42a2      	cmp	r2, r4
  bcc FillZerobss
 80008d8:	d3fb      	bcc.n	80008d2 <FillZerobss>

/* Call static constructors */
    bl __libc_init_array
 80008da:	f001 fb89 	bl	8001ff0 <__libc_init_array>
/* Call the application's entry point.*/
  bl main
 80008de:	f7ff fe77 	bl	80005d0 <main>
  bx lr
 80008e2:	4770      	bx	lr
  ldr r0, =_sdata
 80008e4:	20000000 	.word	0x20000000
  ldr r1, =_edata
 80008e8:	2000006c 	.word	0x2000006c
  ldr r2, =_sidata
 80008ec:	08002528 	.word	0x08002528
  ldr r2, =_sbss
 80008f0:	20000070 	.word	0x20000070
  ldr r4, =_ebss
 80008f4:	200002bc 	.word	0x200002bc

080008f8 <ADC1_2_IRQHandler>:
 * @retval : None
*/
    .section .text.Default_Handler,"ax",%progbits
Default_Handler:
Infinite_Loop:
  b Infinite_Loop
 80008f8:	e7fe      	b.n	80008f8 <ADC1_2_IRQHandler>

080008fa <HAL_MspDeInit>:

/**
  * @brief  DeInitializes the MSP.
  * @retval None
  */
__weak void HAL_MspDeInit(void)
 80008fa:	4770      	bx	lr

080008fc <HAL_DeInit>:
{
 80008fc:	b510      	push	{r4, lr}
  __HAL_RCC_APB1_FORCE_RESET();
 80008fe:	f04f 32ff 	mov.w	r2, #4294967295
  __HAL_RCC_APB1_RELEASE_RESET();
 8000902:	2400      	movs	r4, #0
  __HAL_RCC_APB1_FORCE_RESET();
 8000904:	4b04      	ldr	r3, [pc, #16]	@ (8000918 <HAL_DeInit+0x1c>)
 8000906:	611a      	str	r2, [r3, #16]
  __HAL_RCC_APB1_RELEASE_RESET();
 8000908:	611c      	str	r4, [r3, #16]
  __HAL_RCC_APB2_FORCE_RESET();
 800090a:	60da      	str	r2, [r3, #12]
  __HAL_RCC_APB2_RELEASE_RESET();
 800090c:	60dc      	str	r4, [r3, #12]
  HAL_MspDeInit();
 800090e:	f7ff fff4 	bl	80008fa <HAL_MspDeInit>
}
 8000912:	4620      	mov	r0, r4
 8000914:	bd10      	pop	{r4, pc}
 8000916:	bf00      	nop
 8000918:	40021000 	.word	0x40021000

0800091c <HAL_InitTick>:
  *       implementation  in user file.
  * @param TickPriority Tick interrupt priority.
  * @retval HAL status
  */
__weak HAL_StatusTypeDef HAL_InitTick(uint32_t TickPriority)
{
 800091c:	b538      	push	{r3, r4, r5, lr}
  /* Configure the SysTick to have interrupt in 1ms time basis*/
  if (HAL_SYSTICK_Config(SystemCoreClock / (1000U / uwTickFreq)) > 0U)
 800091e:	4b0e      	ldr	r3, [pc, #56]	@ (8000958 <HAL_InitTick+0x3c>)
{
 8000920:	4605      	mov	r5, r0
  if (HAL_SYSTICK_Config(SystemCoreClock / (1000U / uwTickFreq)) > 0U)
 8000922:	781a      	ldrb	r2, [r3, #0]
 8000924:	f44f 737a 	mov.w	r3, #1000	@ 0x3e8
 8000928:	fbb3 f3f2 	udiv	r3, r3, r2
 800092c:	4a0b      	ldr	r2, [pc, #44]	@ (800095c <HAL_InitTick+0x40>)
 800092e:	6810      	ldr	r0, [r2, #0]
 8000930:	fbb0 f0f3 	udiv	r0, r0, r3
 8000934:	f000 f88a 	bl	8000a4c <HAL_SYSTICK_Config>
 8000938:	4604      	mov	r4, r0
 800093a:	b958      	cbnz	r0, 8000954 <HAL_InitTick+0x38>
  {
    return HAL_ERROR;
  }

  /* Configure the SysTick IRQ priority */
  if (TickPriority < (1UL << __NVIC_PRIO_BITS))
 800093c:	2d0f      	cmp	r5, #15
 800093e:	d809      	bhi.n	8000954 <HAL_InitTick+0x38>
  {
    HAL_NVIC_SetPriority(SysTick_IRQn, TickPriority, 0U);
 8000940:	4602      	mov	r2, r0
 8000942:	4629      	mov	r1, r5
 8000944:	f04f 30ff 	mov.w	r0, #4294967295
 8000948:	f000 f842 	bl	80009d0 <HAL_NVIC_SetPriority>
    uwTickPrio = TickPriority;
 800094c:	4620      	mov	r0, r4
 800094e:	4b04      	ldr	r3, [pc, #16]	@ (8000960 <HAL_InitTick+0x44>)
 8000950:	601d      	str	r5, [r3, #0]
    return HAL_ERROR;
  }

  /* Return function status */
  return HAL_OK;
}
 8000952:	bd38      	pop	{r3, r4, r5, pc}
    return HAL_ERROR;
 8000954:	2001      	movs	r0, #1
 8000956:	e7fc      	b.n	8000952 <HAL_InitTick+0x36>
 8000958:	20000008 	.word	0x20000008
 800095c:	20000004 	.word	0x20000004
 8000960:	2000000c 	.word	0x2000000c

08000964 <HAL_Init>:
  __HAL_FLASH_PREFETCH_BUFFER_ENABLE();
 8000964:	4a07      	ldr	r2, [pc, #28]	@ (8000984 <HAL_Init+0x20>)
{
 8000966:	b508      	push	{r3, lr}
  __HAL_FLASH_PREFETCH_BUFFER_ENABLE();
 8000968:	6813      	ldr	r3, [r2, #0]
  HAL_NVIC_SetPriorityGrouping(NVIC_PRIORITYGROUP_4);
 800096a:	2003      	movs	r0, #3
  __HAL_FLASH_PREFETCH_BUFFER_ENABLE();
 800096c:	f043 0310 	orr.w	r3, r3, #16
 8000970:	6013      	str	r3, [r2, #0]
  HAL_NVIC_SetPriorityGrouping(NVIC_PRIORITYGROUP_4);
 8000972:	f000 f81b 	bl	80009ac <HAL_NVIC_SetPriorityGrouping>
  HAL_InitTick(TICK_INT_PRIORITY);
 8000976:	200f      	movs	r0, #15
 8000978:	f7ff ffd0 	bl	800091c <HAL_InitTick>
  HAL_MspInit();
 800097c:	f7ff fed2 	bl	8000724 <HAL_MspInit>
}
 8000980:	2000      	movs	r0, #0
 8000982:	bd08      	pop	{r3, pc}
 8000984:	40022000 	.word	0x40022000

08000988 <HAL_IncTick>:
  *      implementations in user file.
  * @retval None
  */
__weak void HAL_IncTick(void)
{
  uwTick += uwTickFreq;
 8000988:	4a03      	ldr	r2, [pc, #12]	@ (8000998 <HAL_IncTick+0x10>)
 800098a:	4b04      	ldr	r3, [pc, #16]	@ (800099c <HAL_IncTick+0x14>)
 800098c:	6811      	ldr	r1, [r2, #0]
 800098e:	781b      	ldrb	r3, [r3, #0]
 8000990:	440b      	add	r3, r1
 8000992:	6013      	str	r3, [r2, #0]
}
 8000994:	4770      	bx	lr
 8000996:	bf00      	nop
 8000998:	2000014c 	.word	0x2000014c
 800099c:	20000008 	.word	0x20000008

080009a0 <HAL_GetTick>:
  *       implementations in user file.
  * @retval tick value
  */
__weak uint32_t HAL_GetTick(void)
{
  return uwTick;
 80009a0:	4b01      	ldr	r3, [pc, #4]	@ (80009a8 <HAL_GetTick+0x8>)
 80009a2:	6818      	ldr	r0, [r3, #0]
}
 80009a4:	4770      	bx	lr
 80009a6:	bf00      	nop
 80009a8:	2000014c 	.word	0x2000014c

080009ac <HAL_NVIC_SetPriorityGrouping>:
__STATIC_INLINE void __NVIC_SetPriorityGrouping(uint32_t PriorityGroup)
{
  uint32_t reg_value;
  uint32_t PriorityGroupTmp = (PriorityGroup & (uint32_t)0x07UL);             /* only values 0..7 are used          */

  reg_value  =  SCB->AIRCR;                                                   /* read old register configuration    */
 80009ac:	4907      	ldr	r1, [pc, #28]	@ (80009cc <HAL_NVIC_SetPriorityGrouping+0x20>)
  reg_value &= ~((uint32_t)(SCB_AIRCR_VECTKEY_Msk | SCB_AIRCR_PRIGROUP_Msk)); /* clear bits to change               */
  reg_value  =  (reg_value                                   |
                ((uint32_t)0x5FAUL << SCB_AIRCR_VECTKEY_Pos) |
                (PriorityGroupTmp << SCB_AIRCR_PRIGROUP_Pos) );               /* Insert write key and priority group */
 80009ae:	0203      	lsls	r3, r0, #8
  reg_value  =  SCB->AIRCR;                                                   /* read old register configuration    */
 80009b0:	68ca      	ldr	r2, [r1, #12]
                (PriorityGroupTmp << SCB_AIRCR_PRIGROUP_Pos) );               /* Insert write key and priority group */
 80009b2:	f403 63e0 	and.w	r3, r3, #1792	@ 0x700
  reg_value &= ~((uint32_t)(SCB_AIRCR_VECTKEY_Msk | SCB_AIRCR_PRIGROUP_Msk)); /* clear bits to change               */
 80009b6:	f422 62e0 	bic.w	r2, r2, #1792	@ 0x700
 80009ba:	0412      	lsls	r2, r2, #16
 80009bc:	0c12      	lsrs	r2, r2, #16
                ((uint32_t)0x5FAUL << SCB_AIRCR_VECTKEY_Pos) |
 80009be:	4313      	orrs	r3, r2
  reg_value  =  (reg_value                                   |
 80009c0:	f043 63bf 	orr.w	r3, r3, #100139008	@ 0x5f80000
 80009c4:	f443 3300 	orr.w	r3, r3, #131072	@ 0x20000
  SCB->AIRCR =  reg_value;
 80009c8:	60cb      	str	r3, [r1, #12]
  /* Check the parameters */
  assert_param(IS_NVIC_PRIORITY_GROUP(PriorityGroup));
  
  /* Set the PRIGROUP[10:8] bits according to the PriorityGroup parameter value */
  NVIC_SetPriorityGrouping(PriorityGroup);
}
 80009ca:	4770      	bx	lr
 80009cc:	e000ed00 	.word	0xe000ed00

080009d0 <HAL_NVIC_SetPriority>:
  \details Reads the priority grouping field from the NVIC Interrupt Controller.
  \return                Priority grouping field (SCB->AIRCR [10:8] PRIGROUP field).
 */
__STATIC_INLINE uint32_t __NVIC_GetPriorityGrouping(void)
{
  return ((uint32_t)((SCB->AIRCR & SCB_AIRCR_PRIGROUP_Msk) >> SCB_AIRCR_PRIGROUP_Pos));
 80009d0:	4b15      	ldr	r3, [pc, #84]	@ (8000a28 <HAL_NVIC_SetPriority+0x58>)
  *         This parameter can be a value between 0 and 15
  *         A lower priority value indicates a higher priority.          
  * @retval None
  */
void HAL_NVIC_SetPriority(IRQn_Type IRQn, uint32_t PreemptPriority, uint32_t SubPriority)
{ 
 80009d2:	b530      	push	{r4, r5, lr}
 80009d4:	68dc      	ldr	r4, [r3, #12]
 80009d6:	f3c4 2402 	ubfx	r4, r4, #8, #3
{
  uint32_t PriorityGroupTmp = (PriorityGroup & (uint32_t)0x07UL);   /* only values 0..7 are used          */
  uint32_t PreemptPriorityBits;
  uint32_t SubPriorityBits;

  PreemptPriorityBits = ((7UL - PriorityGroupTmp) > (uint32_t)(__NVIC_PRIO_BITS)) ? (uint32_t)(__NVIC_PRIO_BITS) : (uint32_t)(7UL - PriorityGroupTmp);
 80009da:	f1c4 0307 	rsb	r3, r4, #7
  SubPriorityBits     = ((PriorityGroupTmp + (uint32_t)(__NVIC_PRIO_BITS)) < (uint32_t)7UL) ? (uint32_t)0UL : (uint32_t)((PriorityGroupTmp - 7UL) + (uint32_t)(__NVIC_PRIO_BITS));
 80009de:	1d25      	adds	r5, r4, #4
  PreemptPriorityBits = ((7UL - PriorityGroupTmp) > (uint32_t)(__NVIC_PRIO_BITS)) ? (uint32_t)(__NVIC_PRIO_BITS) : (uint32_t)(7UL - PriorityGroupTmp);
 80009e0:	2b04      	cmp	r3, #4
 80009e2:	bf28      	it	cs
 80009e4:	2304      	movcs	r3, #4
  SubPriorityBits     = ((PriorityGroupTmp + (uint32_t)(__NVIC_PRIO_BITS)) < (uint32_t)7UL) ? (uint32_t)0UL : (uint32_t)((PriorityGroupTmp - 7UL) + (uint32_t)(__NVIC_PRIO_BITS));
 80009e6:	2d06      	cmp	r5, #6

  return (
           ((PreemptPriority & (uint32_t)((1UL << (PreemptPriorityBits)) - 1UL)) << SubPriorityBits) |
 80009e8:	f04f 35ff 	mov.w	r5, #4294967295
  SubPriorityBits     = ((PriorityGroupTmp + (uint32_t)(__NVIC_PRIO_BITS)) < (uint32_t)7UL) ? (uint32_t)0UL : (uint32_t)((PriorityGroupTmp - 7UL) + (uint32_t)(__NVIC_PRIO_BITS));
 80009ec:	bf94      	ite	ls
 80009ee:	2400      	movls	r4, #0
 80009f0:	3c03      	subhi	r4, #3
           ((PreemptPriority & (uint32_t)((1UL << (PreemptPriorityBits)) - 1UL)) << SubPriorityBits) |
 80009f2:	fa05 f303 	lsl.w	r3, r5, r3
 80009f6:	ea21 0303 	bic.w	r3, r1, r3
           ((SubPriority     & (uint32_t)((1UL << (SubPriorityBits    )) - 1UL)))
 80009fa:	40a5      	lsls	r5, r4
 80009fc:	ea22 0205 	bic.w	r2, r2, r5
           ((PreemptPriority & (uint32_t)((1UL << (PreemptPriorityBits)) - 1UL)) << SubPriorityBits) |
 8000a00:	40a3      	lsls	r3, r4
  if ((int32_t)(IRQn) >= 0)
 8000a02:	2800      	cmp	r0, #0
           ((PreemptPriority & (uint32_t)((1UL << (PreemptPriorityBits)) - 1UL)) << SubPriorityBits) |
 8000a04:	ea43 0302 	orr.w	r3, r3, r2
    NVIC->IP[((uint32_t)IRQn)]               = (uint8_t)((priority << (8U - __NVIC_PRIO_BITS)) & (uint32_t)0xFFUL);
 8000a08:	bfac      	ite	ge
 8000a0a:	f100 4060 	addge.w	r0, r0, #3758096384	@ 0xe0000000
    SCB->SHP[(((uint32_t)IRQn) & 0xFUL)-4UL] = (uint8_t)((priority << (8U - __NVIC_PRIO_BITS)) & (uint32_t)0xFFUL);
 8000a0e:	4a07      	ldrlt	r2, [pc, #28]	@ (8000a2c <HAL_NVIC_SetPriority+0x5c>)
    NVIC->IP[((uint32_t)IRQn)]               = (uint8_t)((priority << (8U - __NVIC_PRIO_BITS)) & (uint32_t)0xFFUL);
 8000a10:	ea4f 1303 	mov.w	r3, r3, lsl #4
 8000a14:	b2db      	uxtb	r3, r3
 8000a16:	bfab      	itete	ge
 8000a18:	f500 4061 	addge.w	r0, r0, #57600	@ 0xe100
    SCB->SHP[(((uint32_t)IRQn) & 0xFUL)-4UL] = (uint8_t)((priority << (8U - __NVIC_PRIO_BITS)) & (uint32_t)0xFFUL);
 8000a1c:	f000 000f 	andlt.w	r0, r0, #15
    NVIC->IP[((uint32_t)IRQn)]               = (uint8_t)((priority << (8U - __NVIC_PRIO_BITS)) & (uint32_t)0xFFUL);
 8000a20:	f880 3300 	strbge.w	r3, [r0, #768]	@ 0x300
    SCB->SHP[(((uint32_t)IRQn) & 0xFUL)-4UL] = (uint8_t)((priority << (8U - __NVIC_PRIO_BITS)) & (uint32_t)0xFFUL);
 8000a24:	5413      	strblt	r3, [r2, r0]
  assert_param(IS_NVIC_PREEMPTION_PRIORITY(PreemptPriority));
  
  prioritygroup = NVIC_GetPriorityGrouping();
  
  NVIC_SetPriority(IRQn, NVIC_EncodePriority(prioritygroup, PreemptPriority, SubPriority));
}
 8000a26:	bd30      	pop	{r4, r5, pc}
 8000a28:	e000ed00 	.word	0xe000ed00
 8000a2c:	e000ed14 	.word	0xe000ed14

08000a30 <HAL_NVIC_EnableIRQ>:
  if ((int32_t)(IRQn) >= 0)
 8000a30:	2800      	cmp	r0, #0
 8000a32:	db07      	blt.n	8000a44 <HAL_NVIC_EnableIRQ+0x14>
    NVIC->ISER[(((uint32_t)IRQn) >> 5UL)] = (uint32_t)(1UL << (((uint32_t)IRQn) & 0x1FUL));
 8000a34:	2301      	movs	r3, #1
 8000a36:	0941      	lsrs	r1, r0, #5
 8000a38:	4a03      	ldr	r2, [pc, #12]	@ (8000a48 <HAL_NVIC_EnableIRQ+0x18>)
 8000a3a:	f000 001f 	and.w	r0, r0, #31
 8000a3e:	4083      	lsls	r3, r0
 8000a40:	f842 3021 	str.w	r3, [r2, r1, lsl #2]
  /* Check the parameters */
  assert_param(IS_NVIC_DEVICE_IRQ(IRQn));

  /* Enable interrupt */
  NVIC_EnableIRQ(IRQn);
}
 8000a44:	4770      	bx	lr
 8000a46:	bf00      	nop
 8000a48:	e000e100 	.word	0xe000e100

08000a4c <HAL_SYSTICK_Config>:
           function <b>SysTick_Config</b> is not included. In this case, the file <b><i>device</i>.h</b>
           must contain a vendor-specific implementation of this function.
 */
__STATIC_INLINE uint32_t SysTick_Config(uint32_t ticks)
{
  if ((ticks - 1UL) > SysTick_LOAD_RELOAD_Msk)
 8000a4c:	3801      	subs	r0, #1
 8000a4e:	f1b0 7f80 	cmp.w	r0, #16777216	@ 0x1000000
 8000a52:	d20b      	bcs.n	8000a6c <HAL_SYSTICK_Config+0x20>
  {
    return (1UL);                                                   /* Reload value impossible */
  }

  SysTick->LOAD  = (uint32_t)(ticks - 1UL);                         /* set reload register */
 8000a54:	f04f 23e0 	mov.w	r3, #3758153728	@ 0xe000e000
    SCB->SHP[(((uint32_t)IRQn) & 0xFUL)-4UL] = (uint8_t)((priority << (8U - __NVIC_PRIO_BITS)) & (uint32_t)0xFFUL);
 8000a58:	21f0      	movs	r1, #240	@ 0xf0
 8000a5a:	4a05      	ldr	r2, [pc, #20]	@ (8000a70 <HAL_SYSTICK_Config+0x24>)
  SysTick->LOAD  = (uint32_t)(ticks - 1UL);                         /* set reload register */
 8000a5c:	6158      	str	r0, [r3, #20]
    SCB->SHP[(((uint32_t)IRQn) & 0xFUL)-4UL] = (uint8_t)((priority << (8U - __NVIC_PRIO_BITS)) & (uint32_t)0xFFUL);
 8000a5e:	f882 1023 	strb.w	r1, [r2, #35]	@ 0x23
  NVIC_SetPriority (SysTick_IRQn, (1UL << __NVIC_PRIO_BITS) - 1UL); /* set Priority for Systick Interrupt */
  SysTick->VAL   = 0UL;                                             /* Load the SysTick Counter Value */
 8000a62:	2000      	movs	r0, #0
  SysTick->CTRL  = SysTick_CTRL_CLKSOURCE_Msk |
 8000a64:	2207      	movs	r2, #7
  SysTick->VAL   = 0UL;                                             /* Load the SysTick Counter Value */
 8000a66:	6198      	str	r0, [r3, #24]
  SysTick->CTRL  = SysTick_CTRL_CLKSOURCE_Msk |
 8000a68:	611a      	str	r2, [r3, #16]
                   SysTick_CTRL_TICKINT_Msk   |
                   SysTick_CTRL_ENABLE_Msk;                         /* Enable SysTick IRQ and SysTick Timer */
  return (0UL);                                                     /* Function successful */
 8000a6a:	4770      	bx	lr
    return (1UL);                                                   /* Reload value impossible */
 8000a6c:	2001      	movs	r0, #1
  *                  - 1  Function failed.
  */
uint32_t HAL_SYSTICK_Config(uint32_t TicksNumb)
{
   return SysTick_Config(TicksNumb);
}
 8000a6e:	4770      	bx	lr
 8000a70:	e000ed00 	.word	0xe000ed00

08000a74 <HAL_DMA_Abort>:
  */
HAL_StatusTypeDef HAL_DMA_Abort(DMA_HandleTypeDef *hdma)
{
  HAL_StatusTypeDef status = HAL_OK;
  
  if(hdma->State != HAL_DMA_STATE_BUSY)
 8000a74:	f890 2021 	ldrb.w	r2, [r0, #33]	@ 0x21
{
 8000a78:	4603      	mov	r3, r0
  if(hdma->State != HAL_DMA_STATE_BUSY)
 8000a7a:	2a02      	cmp	r2, #2
 8000a7c:	d006      	beq.n	8000a8c <HAL_DMA_Abort+0x18>
  {
    /* no transfer ongoing */
    hdma->ErrorCode = HAL_DMA_ERROR_NO_XFER;
 8000a7e:	2204      	movs	r2, #4
 8000a80:	6382      	str	r2, [r0, #56]	@ 0x38
    
    /* Process Unlocked */
    __HAL_UNLOCK(hdma);
    
    return HAL_ERROR;
 8000a82:	2001      	movs	r0, #1
    __HAL_UNLOCK(hdma);
 8000a84:	2200      	movs	r2, #0
 8000a86:	f883 2020 	strb.w	r2, [r3, #32]

  /* Process Unlocked */
  __HAL_UNLOCK(hdma);      
  
  return status; 
}
 8000a8a:	4770      	bx	lr
    __HAL_DMA_DISABLE_IT(hdma, (DMA_IT_TC | DMA_IT_HT | DMA_IT_TE));
 8000a8c:	6802      	ldr	r2, [r0, #0]
    hdma->DmaBaseAddress->IFCR = (DMA_ISR_GIF1 << hdma->ChannelIndex);
 8000a8e:	6bc0      	ldr	r0, [r0, #60]	@ 0x3c
    __HAL_DMA_DISABLE_IT(hdma, (DMA_IT_TC | DMA_IT_HT | DMA_IT_TE));
 8000a90:	6811      	ldr	r1, [r2, #0]
 8000a92:	f021 010e 	bic.w	r1, r1, #14
 8000a96:	6011      	str	r1, [r2, #0]
    __HAL_DMA_DISABLE(hdma);
 8000a98:	6811      	ldr	r1, [r2, #0]
 8000a9a:	f021 0101 	bic.w	r1, r1, #1
 8000a9e:	6011      	str	r1, [r2, #0]
    hdma->DmaBaseAddress->IFCR = (DMA_ISR_GIF1 << hdma->ChannelIndex);
 8000aa0:	2101      	movs	r1, #1
 8000aa2:	6c1a      	ldr	r2, [r3, #64]	@ 0x40
 8000aa4:	fa01 f202 	lsl.w	r2, r1, r2
 8000aa8:	6042      	str	r2, [r0, #4]
  return status; 
 8000aaa:	2000      	movs	r0, #0
  hdma->State = HAL_DMA_STATE_READY;
 8000aac:	f883 1021 	strb.w	r1, [r3, #33]	@ 0x21
  return status; 
 8000ab0:	e7e8      	b.n	8000a84 <HAL_DMA_Abort+0x10>
	...

08000ab4 <HAL_DMA_Abort_IT>:
  * @param  hdma  : pointer to a DMA_HandleTypeDef structure that contains
  *                 the configuration information for the specified DMA Channel.
  * @retval HAL status
  */
HAL_StatusTypeDef HAL_DMA_Abort_IT(DMA_HandleTypeDef *hdma)
{  
 8000ab4:	b508      	push	{r3, lr}
  HAL_StatusTypeDef status = HAL_OK;
  
  if(HAL_DMA_STATE_BUSY != hdma->State)
 8000ab6:	f890 3021 	ldrb.w	r3, [r0, #33]	@ 0x21
 8000aba:	2b02      	cmp	r3, #2
 8000abc:	d003      	beq.n	8000ac6 <HAL_DMA_Abort_IT+0x12>
  {
    /* no transfer ongoing */
    hdma->ErrorCode = HAL_DMA_ERROR_NO_XFER;
 8000abe:	2304      	movs	r3, #4
 8000ac0:	6383      	str	r3, [r0, #56]	@ 0x38
        
    status = HAL_ERROR;
 8000ac2:	2001      	movs	r0, #1
    {
      hdma->XferAbortCallback(hdma);
    } 
  }
  return status;
}
 8000ac4:	bd08      	pop	{r3, pc}
    __HAL_DMA_DISABLE_IT(hdma, (DMA_IT_TC | DMA_IT_HT | DMA_IT_TE));
 8000ac6:	6803      	ldr	r3, [r0, #0]
 8000ac8:	681a      	ldr	r2, [r3, #0]
 8000aca:	f022 020e 	bic.w	r2, r2, #14
 8000ace:	601a      	str	r2, [r3, #0]
    __HAL_DMA_DISABLE(hdma);
 8000ad0:	681a      	ldr	r2, [r3, #0]
 8000ad2:	f022 0201 	bic.w	r2, r2, #1
 8000ad6:	601a      	str	r2, [r3, #0]
    __HAL_DMA_CLEAR_FLAG(hdma, __HAL_DMA_GET_GI_FLAG_INDEX(hdma));
 8000ad8:	4a17      	ldr	r2, [pc, #92]	@ (8000b38 <HAL_DMA_Abort_IT+0x84>)
 8000ada:	4293      	cmp	r3, r2
 8000adc:	d01f      	beq.n	8000b1e <HAL_DMA_Abort_IT+0x6a>
 8000ade:	3214      	adds	r2, #20
 8000ae0:	4293      	cmp	r3, r2
 8000ae2:	d01e      	beq.n	8000b22 <HAL_DMA_Abort_IT+0x6e>
 8000ae4:	3214      	adds	r2, #20
 8000ae6:	4293      	cmp	r3, r2
 8000ae8:	d01d      	beq.n	8000b26 <HAL_DMA_Abort_IT+0x72>
 8000aea:	3214      	adds	r2, #20
 8000aec:	4293      	cmp	r3, r2
 8000aee:	d01d      	beq.n	8000b2c <HAL_DMA_Abort_IT+0x78>
 8000af0:	3214      	adds	r2, #20
 8000af2:	4293      	cmp	r3, r2
 8000af4:	d01d      	beq.n	8000b32 <HAL_DMA_Abort_IT+0x7e>
 8000af6:	3214      	adds	r2, #20
 8000af8:	4293      	cmp	r3, r2
 8000afa:	bf14      	ite	ne
 8000afc:	f04f 7380 	movne.w	r3, #16777216	@ 0x1000000
 8000b00:	f44f 1380 	moveq.w	r3, #1048576	@ 0x100000
 8000b04:	4a0d      	ldr	r2, [pc, #52]	@ (8000b3c <HAL_DMA_Abort_IT+0x88>)
 8000b06:	6053      	str	r3, [r2, #4]
    hdma->State = HAL_DMA_STATE_READY;
 8000b08:	2301      	movs	r3, #1
 8000b0a:	f880 3021 	strb.w	r3, [r0, #33]	@ 0x21
    __HAL_UNLOCK(hdma);
 8000b0e:	2300      	movs	r3, #0
 8000b10:	f880 3020 	strb.w	r3, [r0, #32]
    if(hdma->XferAbortCallback != NULL)
 8000b14:	6b43      	ldr	r3, [r0, #52]	@ 0x34
 8000b16:	b103      	cbz	r3, 8000b1a <HAL_DMA_Abort_IT+0x66>
      hdma->XferAbortCallback(hdma);
 8000b18:	4798      	blx	r3
  HAL_StatusTypeDef status = HAL_OK;
 8000b1a:	2000      	movs	r0, #0
 8000b1c:	e7d2      	b.n	8000ac4 <HAL_DMA_Abort_IT+0x10>
    __HAL_DMA_CLEAR_FLAG(hdma, __HAL_DMA_GET_GI_FLAG_INDEX(hdma));
 8000b1e:	2301      	movs	r3, #1
 8000b20:	e7f0      	b.n	8000b04 <HAL_DMA_Abort_IT+0x50>
 8000b22:	2310      	movs	r3, #16
 8000b24:	e7ee      	b.n	8000b04 <HAL_DMA_Abort_IT+0x50>
 8000b26:	f44f 7380 	mov.w	r3, #256	@ 0x100
 8000b2a:	e7eb      	b.n	8000b04 <HAL_DMA_Abort_IT+0x50>
 8000b2c:	f44f 5380 	mov.w	r3, #4096	@ 0x1000
 8000b30:	e7e8      	b.n	8000b04 <HAL_DMA_Abort_IT+0x50>
 8000b32:	f44f 3380 	mov.w	r3, #65536	@ 0x10000
 8000b36:	e7e5      	b.n	8000b04 <HAL_DMA_Abort_IT+0x50>
 8000b38:	40020008 	.word	0x40020008
 8000b3c:	40020000 	.word	0x40020000

08000b40 <FLASH_SetErrorCode>:
  uint32_t flags = 0U;
  
#if defined(FLASH_BANK2_END)
  if(__HAL_FLASH_GET_FLAG(FLASH_FLAG_WRPERR) || __HAL_FLASH_GET_FLAG(FLASH_FLAG_WRPERR_BANK2))
#else
  if(__HAL_FLASH_GET_FLAG(FLASH_FLAG_WRPERR))
 8000b40:	4a11      	ldr	r2, [pc, #68]	@ (8000b88 <FLASH_SetErrorCode+0x48>)
 8000b42:	68d3      	ldr	r3, [r2, #12]
 8000b44:	f013 0310 	ands.w	r3, r3, #16
 8000b48:	d005      	beq.n	8000b56 <FLASH_SetErrorCode+0x16>
#endif /* FLASH_BANK2_END */
  {
    pFlash.ErrorCode |= HAL_FLASH_ERROR_WRP;
 8000b4a:	4910      	ldr	r1, [pc, #64]	@ (8000b8c <FLASH_SetErrorCode+0x4c>)
 8000b4c:	69cb      	ldr	r3, [r1, #28]
 8000b4e:	f043 0302 	orr.w	r3, r3, #2
 8000b52:	61cb      	str	r3, [r1, #28]
#if defined(FLASH_BANK2_END)
    flags |= FLASH_FLAG_WRPERR | FLASH_FLAG_WRPERR_BANK2;
#else
    flags |= FLASH_FLAG_WRPERR;
 8000b54:	2310      	movs	r3, #16
#endif /* FLASH_BANK2_END */
  }
#if defined(FLASH_BANK2_END)
  if(__HAL_FLASH_GET_FLAG(FLASH_FLAG_PGERR) || __HAL_FLASH_GET_FLAG(FLASH_FLAG_PGERR_BANK2))
#else
  if(__HAL_FLASH_GET_FLAG(FLASH_FLAG_PGERR))
 8000b56:	68d2      	ldr	r2, [r2, #12]
 8000b58:	0750      	lsls	r0, r2, #29
 8000b5a:	d506      	bpl.n	8000b6a <FLASH_SetErrorCode+0x2a>
#endif /* FLASH_BANK2_END */
  {
    pFlash.ErrorCode |= HAL_FLASH_ERROR_PROG;
 8000b5c:	490b      	ldr	r1, [pc, #44]	@ (8000b8c <FLASH_SetErrorCode+0x4c>)
#if defined(FLASH_BANK2_END)
    flags |= FLASH_FLAG_PGERR | FLASH_FLAG_PGERR_BANK2;
#else
    flags |= FLASH_FLAG_PGERR;
 8000b5e:	f043 0304 	orr.w	r3, r3, #4
    pFlash.ErrorCode |= HAL_FLASH_ERROR_PROG;
 8000b62:	69ca      	ldr	r2, [r1, #28]
 8000b64:	f042 0201 	orr.w	r2, r2, #1
 8000b68:	61ca      	str	r2, [r1, #28]
#endif /* FLASH_BANK2_END */
  }
  if(__HAL_FLASH_GET_FLAG(FLASH_FLAG_OPTVERR))
 8000b6a:	4a07      	ldr	r2, [pc, #28]	@ (8000b88 <FLASH_SetErrorCode+0x48>)
 8000b6c:	69d1      	ldr	r1, [r2, #28]
 8000b6e:	07c9      	lsls	r1, r1, #31
 8000b70:	d508      	bpl.n	8000b84 <FLASH_SetErrorCode+0x44>
  {
    pFlash.ErrorCode |= HAL_FLASH_ERROR_OPTV;
 8000b72:	4806      	ldr	r0, [pc, #24]	@ (8000b8c <FLASH_SetErrorCode+0x4c>)
 8000b74:	69c1      	ldr	r1, [r0, #28]
 8000b76:	f041 0104 	orr.w	r1, r1, #4
 8000b7a:	61c1      	str	r1, [r0, #28]
  __HAL_FLASH_CLEAR_FLAG(FLASH_FLAG_OPTVERR);
 8000b7c:	69d1      	ldr	r1, [r2, #28]
 8000b7e:	f021 0101 	bic.w	r1, r1, #1
 8000b82:	61d1      	str	r1, [r2, #28]
  }

  /* Clear FLASH error pending bits */
  __HAL_FLASH_CLEAR_FLAG(flags);
 8000b84:	60d3      	str	r3, [r2, #12]
}  
 8000b86:	4770      	bx	lr
 8000b88:	40022000 	.word	0x40022000
 8000b8c:	20000150 	.word	0x20000150

08000b90 <HAL_FLASH_Unlock>:
  if(READ_BIT(FLASH->CR, FLASH_CR_LOCK) != RESET)
 8000b90:	4b06      	ldr	r3, [pc, #24]	@ (8000bac <HAL_FLASH_Unlock+0x1c>)
 8000b92:	6918      	ldr	r0, [r3, #16]
 8000b94:	f010 0080 	ands.w	r0, r0, #128	@ 0x80
 8000b98:	d007      	beq.n	8000baa <HAL_FLASH_Unlock+0x1a>
    WRITE_REG(FLASH->KEYR, FLASH_KEY1);
 8000b9a:	4a05      	ldr	r2, [pc, #20]	@ (8000bb0 <HAL_FLASH_Unlock+0x20>)
 8000b9c:	605a      	str	r2, [r3, #4]
    WRITE_REG(FLASH->KEYR, FLASH_KEY2);
 8000b9e:	f102 3288 	add.w	r2, r2, #2290649224	@ 0x88888888
 8000ba2:	605a      	str	r2, [r3, #4]
    if(READ_BIT(FLASH->CR, FLASH_CR_LOCK) != RESET)
 8000ba4:	6918      	ldr	r0, [r3, #16]
 8000ba6:	f3c0 10c0 	ubfx	r0, r0, #7, #1
}
 8000baa:	4770      	bx	lr
 8000bac:	40022000 	.word	0x40022000
 8000bb0:	45670123 	.word	0x45670123

08000bb4 <HAL_FLASH_Lock>:
  SET_BIT(FLASH->CR, FLASH_CR_LOCK);
 8000bb4:	4a03      	ldr	r2, [pc, #12]	@ (8000bc4 <HAL_FLASH_Lock+0x10>)
}
 8000bb6:	2000      	movs	r0, #0
  SET_BIT(FLASH->CR, FLASH_CR_LOCK);
 8000bb8:	6913      	ldr	r3, [r2, #16]
 8000bba:	f043 0380 	orr.w	r3, r3, #128	@ 0x80
 8000bbe:	6113      	str	r3, [r2, #16]
}
 8000bc0:	4770      	bx	lr
 8000bc2:	bf00      	nop
 8000bc4:	40022000 	.word	0x40022000

08000bc8 <HAL_FLASH_GetError>:
   return pFlash.ErrorCode;
 8000bc8:	4b01      	ldr	r3, [pc, #4]	@ (8000bd0 <HAL_FLASH_GetError+0x8>)
 8000bca:	69d8      	ldr	r0, [r3, #28]
}
 8000bcc:	4770      	bx	lr
 8000bce:	bf00      	nop
 8000bd0:	20000150 	.word	0x20000150

08000bd4 <FLASH_WaitForLastOperation>:
{
 8000bd4:	b570      	push	{r4, r5, r6, lr}
 8000bd6:	4605      	mov	r5, r0
  uint32_t tickstart = HAL_GetTick();
 8000bd8:	f7ff fee2 	bl	80009a0 <HAL_GetTick>
 8000bdc:	4606      	mov	r6, r0
  while(__HAL_FLASH_GET_FLAG(FLASH_FLAG_BSY)) 
 8000bde:	4c11      	ldr	r4, [pc, #68]	@ (8000c24 <FLASH_WaitForLastOperation+0x50>)
 8000be0:	68e3      	ldr	r3, [r4, #12]
 8000be2:	07d8      	lsls	r0, r3, #31
 8000be4:	d412      	bmi.n	8000c0c <FLASH_WaitForLastOperation+0x38>
  if (__HAL_FLASH_GET_FLAG(FLASH_FLAG_EOP))
 8000be6:	68e3      	ldr	r3, [r4, #12]
 8000be8:	0699      	lsls	r1, r3, #26
    __HAL_FLASH_CLEAR_FLAG(FLASH_FLAG_EOP);
 8000bea:	bf44      	itt	mi
 8000bec:	2320      	movmi	r3, #32
 8000bee:	60e3      	strmi	r3, [r4, #12]
  if(__HAL_FLASH_GET_FLAG(FLASH_FLAG_WRPERR)  || 
 8000bf0:	68e3      	ldr	r3, [r4, #12]
 8000bf2:	06da      	lsls	r2, r3, #27
 8000bf4:	d406      	bmi.n	8000c04 <FLASH_WaitForLastOperation+0x30>
     __HAL_FLASH_GET_FLAG(FLASH_FLAG_OPTVERR) || 
 8000bf6:	69e3      	ldr	r3, [r4, #28]
  if(__HAL_FLASH_GET_FLAG(FLASH_FLAG_WRPERR)  || 
 8000bf8:	07db      	lsls	r3, r3, #31
 8000bfa:	d403      	bmi.n	8000c04 <FLASH_WaitForLastOperation+0x30>
     __HAL_FLASH_GET_FLAG(FLASH_FLAG_PGERR))
 8000bfc:	68e0      	ldr	r0, [r4, #12]
     __HAL_FLASH_GET_FLAG(FLASH_FLAG_OPTVERR) || 
 8000bfe:	f010 0004 	ands.w	r0, r0, #4
 8000c02:	d007      	beq.n	8000c14 <FLASH_WaitForLastOperation+0x40>
    FLASH_SetErrorCode();
 8000c04:	f7ff ff9c 	bl	8000b40 <FLASH_SetErrorCode>
    return HAL_ERROR;
 8000c08:	2001      	movs	r0, #1
 8000c0a:	e003      	b.n	8000c14 <FLASH_WaitForLastOperation+0x40>
    if (Timeout != HAL_MAX_DELAY)
 8000c0c:	1c6b      	adds	r3, r5, #1
 8000c0e:	d0e7      	beq.n	8000be0 <FLASH_WaitForLastOperation+0xc>
      if((Timeout == 0U) || ((HAL_GetTick()-tickstart) > Timeout))
 8000c10:	b90d      	cbnz	r5, 8000c16 <FLASH_WaitForLastOperation+0x42>
        return HAL_TIMEOUT;
 8000c12:	2003      	movs	r0, #3
}
 8000c14:	bd70      	pop	{r4, r5, r6, pc}
      if((Timeout == 0U) || ((HAL_GetTick()-tickstart) > Timeout))
 8000c16:	f7ff fec3 	bl	80009a0 <HAL_GetTick>
 8000c1a:	1b80      	subs	r0, r0, r6
 8000c1c:	42a8      	cmp	r0, r5
 8000c1e:	d9df      	bls.n	8000be0 <FLASH_WaitForLastOperation+0xc>
 8000c20:	e7f7      	b.n	8000c12 <FLASH_WaitForLastOperation+0x3e>
 8000c22:	bf00      	nop
 8000c24:	40022000 	.word	0x40022000

08000c28 <HAL_FLASH_Program>:
{
 8000c28:	e92d 4ff8 	stmdb	sp!, {r3, r4, r5, r6, r7, r8, r9, sl, fp, lr}
  __HAL_LOCK(&pFlash);
 8000c2c:	f8df a094 	ldr.w	sl, [pc, #148]	@ 8000cc4 <HAL_FLASH_Program+0x9c>
{
 8000c30:	461f      	mov	r7, r3
  __HAL_LOCK(&pFlash);
 8000c32:	f89a 3018 	ldrb.w	r3, [sl, #24]
{
 8000c36:	4605      	mov	r5, r0
  __HAL_LOCK(&pFlash);
 8000c38:	2b01      	cmp	r3, #1
{
 8000c3a:	4688      	mov	r8, r1
 8000c3c:	4691      	mov	r9, r2
  __HAL_LOCK(&pFlash);
 8000c3e:	d03f      	beq.n	8000cc0 <HAL_FLASH_Program+0x98>
 8000c40:	2301      	movs	r3, #1
    status = FLASH_WaitForLastOperation(FLASH_TIMEOUT_VALUE);
 8000c42:	f24c 3050 	movw	r0, #50000	@ 0xc350
  __HAL_LOCK(&pFlash);
 8000c46:	f88a 3018 	strb.w	r3, [sl, #24]
    status = FLASH_WaitForLastOperation(FLASH_TIMEOUT_VALUE);
 8000c4a:	f7ff ffc3 	bl	8000bd4 <FLASH_WaitForLastOperation>
  if(status == HAL_OK)
 8000c4e:	bb90      	cbnz	r0, 8000cb6 <HAL_FLASH_Program+0x8e>
    if(TypeProgram == FLASH_TYPEPROGRAM_HALFWORD)
 8000c50:	2d01      	cmp	r5, #1
 8000c52:	d003      	beq.n	8000c5c <HAL_FLASH_Program+0x34>
      nbiterations = 2U;
 8000c54:	2d02      	cmp	r5, #2
 8000c56:	bf14      	ite	ne
 8000c58:	2504      	movne	r5, #4
 8000c5a:	2502      	moveq	r5, #2
      nbiterations = 4U;
 8000c5c:	2600      	movs	r6, #0
  pFlash.ErrorCode = HAL_FLASH_ERROR_NONE;
 8000c5e:	4633      	mov	r3, r6
    SET_BIT(FLASH->CR, FLASH_CR_PG);
 8000c60:	f8df b064 	ldr.w	fp, [pc, #100]	@ 8000cc8 <HAL_FLASH_Program+0xa0>
      FLASH_Program_HalfWord((Address + (2U*index)), (uint16_t)(Data >> (16U*index)));
 8000c64:	0134      	lsls	r4, r6, #4
 8000c66:	f1c4 0120 	rsb	r1, r4, #32
 8000c6a:	f1a4 0220 	sub.w	r2, r4, #32
 8000c6e:	fa07 f101 	lsl.w	r1, r7, r1
 8000c72:	fa29 f404 	lsr.w	r4, r9, r4
  pFlash.ErrorCode = HAL_FLASH_ERROR_NONE;
 8000c76:	f8ca 301c 	str.w	r3, [sl, #28]
      FLASH_Program_HalfWord((Address + (2U*index)), (uint16_t)(Data >> (16U*index)));
 8000c7a:	430c      	orrs	r4, r1
 8000c7c:	fa27 f202 	lsr.w	r2, r7, r2
 8000c80:	4314      	orrs	r4, r2
    SET_BIT(FLASH->CR, FLASH_CR_PG);
 8000c82:	f8db 2010 	ldr.w	r2, [fp, #16]
      FLASH_Program_HalfWord((Address + (2U*index)), (uint16_t)(Data >> (16U*index)));
 8000c86:	b2a4      	uxth	r4, r4
    SET_BIT(FLASH->CR, FLASH_CR_PG);
 8000c88:	f042 0201 	orr.w	r2, r2, #1
 8000c8c:	f8cb 2010 	str.w	r2, [fp, #16]
        status = FLASH_WaitForLastOperation(FLASH_TIMEOUT_VALUE);
 8000c90:	f24c 3050 	movw	r0, #50000	@ 0xc350
  *(__IO uint16_t*)Address = Data;
 8000c94:	f828 4016 	strh.w	r4, [r8, r6, lsl #1]
        status = FLASH_WaitForLastOperation(FLASH_TIMEOUT_VALUE);
 8000c98:	f7ff ff9c 	bl	8000bd4 <FLASH_WaitForLastOperation>
        CLEAR_BIT(FLASH->CR, FLASH_CR_PG);
 8000c9c:	f8db 2010 	ldr.w	r2, [fp, #16]
 8000ca0:	f022 0201 	bic.w	r2, r2, #1
 8000ca4:	f8cb 2010 	str.w	r2, [fp, #16]
      if (status != HAL_OK)
 8000ca8:	b928      	cbnz	r0, 8000cb6 <HAL_FLASH_Program+0x8e>
    for (index = 0U; index < nbiterations; index++)
 8000caa:	3601      	adds	r6, #1
 8000cac:	b2f2      	uxtb	r2, r6
 8000cae:	4295      	cmp	r5, r2
 8000cb0:	f04f 0300 	mov.w	r3, #0
 8000cb4:	d8d6      	bhi.n	8000c64 <HAL_FLASH_Program+0x3c>
  __HAL_UNLOCK(&pFlash);
 8000cb6:	2300      	movs	r3, #0
 8000cb8:	f88a 3018 	strb.w	r3, [sl, #24]
}
 8000cbc:	e8bd 8ff8 	ldmia.w	sp!, {r3, r4, r5, r6, r7, r8, r9, sl, fp, pc}
  __HAL_LOCK(&pFlash);
 8000cc0:	2002      	movs	r0, #2
 8000cc2:	e7fb      	b.n	8000cbc <HAL_FLASH_Program+0x94>
 8000cc4:	20000150 	.word	0x20000150
 8000cc8:	40022000 	.word	0x40022000

08000ccc <FLASH_PageErase>:
  * @retval None
  */
void FLASH_PageErase(uint32_t PageAddress)
{
  /* Clean the error context */
  pFlash.ErrorCode = HAL_FLASH_ERROR_NONE;
 8000ccc:	2200      	movs	r2, #0
 8000cce:	4b06      	ldr	r3, [pc, #24]	@ (8000ce8 <FLASH_PageErase+0x1c>)
 8000cd0:	61da      	str	r2, [r3, #28]
  }
  else
  {
#endif /* FLASH_BANK2_END */
    /* Proceed to erase the page */
    SET_BIT(FLASH->CR, FLASH_CR_PER);
 8000cd2:	4b06      	ldr	r3, [pc, #24]	@ (8000cec <FLASH_PageErase+0x20>)
 8000cd4:	691a      	ldr	r2, [r3, #16]
 8000cd6:	f042 0202 	orr.w	r2, r2, #2
 8000cda:	611a      	str	r2, [r3, #16]
    WRITE_REG(FLASH->AR, PageAddress);
 8000cdc:	6158      	str	r0, [r3, #20]
    SET_BIT(FLASH->CR, FLASH_CR_STRT);
 8000cde:	691a      	ldr	r2, [r3, #16]
 8000ce0:	f042 0240 	orr.w	r2, r2, #64	@ 0x40
 8000ce4:	611a      	str	r2, [r3, #16]
#if defined(FLASH_BANK2_END)
  }
#endif /* FLASH_BANK2_END */
}
 8000ce6:	4770      	bx	lr
 8000ce8:	20000150 	.word	0x20000150
 8000cec:	40022000 	.word	0x40022000

08000cf0 <HAL_FLASHEx_Erase>:
{
 8000cf0:	e92d 41f0 	stmdb	sp!, {r4, r5, r6, r7, r8, lr}
  __HAL_LOCK(&pFlash);
 8000cf4:	4f26      	ldr	r7, [pc, #152]	@ (8000d90 <HAL_FLASHEx_Erase+0xa0>)
{
 8000cf6:	4605      	mov	r5, r0
  __HAL_LOCK(&pFlash);
 8000cf8:	7e3b      	ldrb	r3, [r7, #24]
{
 8000cfa:	4688      	mov	r8, r1
  __HAL_LOCK(&pFlash);
 8000cfc:	2b01      	cmp	r3, #1
 8000cfe:	d044      	beq.n	8000d8a <HAL_FLASHEx_Erase+0x9a>
 8000d00:	2401      	movs	r4, #1
 8000d02:	763c      	strb	r4, [r7, #24]
  if (pEraseInit->TypeErase == FLASH_TYPEERASE_MASSERASE)
 8000d04:	6803      	ldr	r3, [r0, #0]
      if (FLASH_WaitForLastOperation((uint32_t)FLASH_TIMEOUT_VALUE) == HAL_OK)
 8000d06:	f24c 3050 	movw	r0, #50000	@ 0xc350
  if (pEraseInit->TypeErase == FLASH_TYPEERASE_MASSERASE)
 8000d0a:	2b02      	cmp	r3, #2
 8000d0c:	d11a      	bne.n	8000d44 <HAL_FLASHEx_Erase+0x54>
      if (FLASH_WaitForLastOperation((uint32_t)FLASH_TIMEOUT_VALUE) == HAL_OK)
 8000d0e:	f7ff ff61 	bl	8000bd4 <FLASH_WaitForLastOperation>
 8000d12:	b120      	cbz	r0, 8000d1e <HAL_FLASHEx_Erase+0x2e>
  HAL_StatusTypeDef status = HAL_ERROR;
 8000d14:	2001      	movs	r0, #1
  __HAL_UNLOCK(&pFlash);
 8000d16:	2300      	movs	r3, #0
 8000d18:	763b      	strb	r3, [r7, #24]
}
 8000d1a:	e8bd 81f0 	ldmia.w	sp!, {r4, r5, r6, r7, r8, pc}
    SET_BIT(FLASH->CR, FLASH_CR_MER);
 8000d1e:	4c1d      	ldr	r4, [pc, #116]	@ (8000d94 <HAL_FLASHEx_Erase+0xa4>)
  pFlash.ErrorCode = HAL_FLASH_ERROR_NONE;
 8000d20:	61f8      	str	r0, [r7, #28]
    SET_BIT(FLASH->CR, FLASH_CR_MER);
 8000d22:	6923      	ldr	r3, [r4, #16]
        status = FLASH_WaitForLastOperation((uint32_t)FLASH_TIMEOUT_VALUE);
 8000d24:	f24c 3050 	movw	r0, #50000	@ 0xc350
    SET_BIT(FLASH->CR, FLASH_CR_MER);
 8000d28:	f043 0304 	orr.w	r3, r3, #4
 8000d2c:	6123      	str	r3, [r4, #16]
    SET_BIT(FLASH->CR, FLASH_CR_STRT);
 8000d2e:	6923      	ldr	r3, [r4, #16]
 8000d30:	f043 0340 	orr.w	r3, r3, #64	@ 0x40
 8000d34:	6123      	str	r3, [r4, #16]
        status = FLASH_WaitForLastOperation((uint32_t)FLASH_TIMEOUT_VALUE);
 8000d36:	f7ff ff4d 	bl	8000bd4 <FLASH_WaitForLastOperation>
        CLEAR_BIT(FLASH->CR, FLASH_CR_MER);
 8000d3a:	6923      	ldr	r3, [r4, #16]
 8000d3c:	f023 0304 	bic.w	r3, r3, #4
 8000d40:	6123      	str	r3, [r4, #16]
 8000d42:	e7e8      	b.n	8000d16 <HAL_FLASHEx_Erase+0x26>
      if (FLASH_WaitForLastOperation((uint32_t)FLASH_TIMEOUT_VALUE) == HAL_OK)
 8000d44:	f7ff ff46 	bl	8000bd4 <FLASH_WaitForLastOperation>
 8000d48:	2800      	cmp	r0, #0
 8000d4a:	d1e3      	bne.n	8000d14 <HAL_FLASHEx_Erase+0x24>
        *PageError = 0xFFFFFFFFU;
 8000d4c:	f04f 33ff 	mov.w	r3, #4294967295
 8000d50:	f8c8 3000 	str.w	r3, [r8]
  HAL_StatusTypeDef status = HAL_ERROR;
 8000d54:	4620      	mov	r0, r4
        for(address = pEraseInit->PageAddress;
 8000d56:	68ae      	ldr	r6, [r5, #8]
          CLEAR_BIT(FLASH->CR, FLASH_CR_PER);
 8000d58:	4c0e      	ldr	r4, [pc, #56]	@ (8000d94 <HAL_FLASHEx_Erase+0xa4>)
            address < ((pEraseInit->NbPages * FLASH_PAGE_SIZE) + pEraseInit->PageAddress);
 8000d5a:	e9d5 3202 	ldrd	r3, r2, [r5, #8]
 8000d5e:	eb03 2382 	add.w	r3, r3, r2, lsl #10
 8000d62:	42b3      	cmp	r3, r6
 8000d64:	d9d7      	bls.n	8000d16 <HAL_FLASHEx_Erase+0x26>
          FLASH_PageErase(address);
 8000d66:	4630      	mov	r0, r6
 8000d68:	f7ff ffb0 	bl	8000ccc <FLASH_PageErase>
          status = FLASH_WaitForLastOperation((uint32_t)FLASH_TIMEOUT_VALUE);
 8000d6c:	f24c 3050 	movw	r0, #50000	@ 0xc350
 8000d70:	f7ff ff30 	bl	8000bd4 <FLASH_WaitForLastOperation>
          CLEAR_BIT(FLASH->CR, FLASH_CR_PER);
 8000d74:	6923      	ldr	r3, [r4, #16]
 8000d76:	f023 0302 	bic.w	r3, r3, #2
 8000d7a:	6123      	str	r3, [r4, #16]
          if (status != HAL_OK)
 8000d7c:	b110      	cbz	r0, 8000d84 <HAL_FLASHEx_Erase+0x94>
            *PageError = address;
 8000d7e:	f8c8 6000 	str.w	r6, [r8]
            break;
 8000d82:	e7c8      	b.n	8000d16 <HAL_FLASHEx_Erase+0x26>
            address += FLASH_PAGE_SIZE)
 8000d84:	f506 6680 	add.w	r6, r6, #1024	@ 0x400
 8000d88:	e7e7      	b.n	8000d5a <HAL_FLASHEx_Erase+0x6a>
  __HAL_LOCK(&pFlash);
 8000d8a:	2002      	movs	r0, #2
 8000d8c:	e7c5      	b.n	8000d1a <HAL_FLASHEx_Erase+0x2a>
 8000d8e:	bf00      	nop
 8000d90:	20000150 	.word	0x20000150
 8000d94:	40022000 	.word	0x40022000

08000d98 <HAL_GPIO_Init>:
  * @param  GPIO_Init: pointer to a GPIO_InitTypeDef structure that contains
  *         the configuration information for the specified GPIO peripheral.
  * @retval None
  */
void HAL_GPIO_Init(GPIO_TypeDef  *GPIOx, GPIO_InitTypeDef *GPIO_Init)
{
 8000d98:	e92d 4ff7 	stmdb	sp!, {r0, r1, r2, r4, r5, r6, r7, r8, r9, sl, fp, lr}
  uint32_t position = 0x00u;
  uint32_t ioposition;
  uint32_t iocurrent;
  uint32_t temp;
  uint32_t config = 0x00u;
 8000d9c:	2400      	movs	r4, #0
       in order to address CRH or CRL register*/
      configregister = (iocurrent < GPIO_PIN_8) ? &GPIOx->CRL     : &GPIOx->CRH;
      registeroffset = (iocurrent < GPIO_PIN_8) ? (position << 2u) : ((position - 8u) << 2u);

      /* Apply the new configuration of the pin to the register */
      MODIFY_REG((*configregister), ((GPIO_CRL_MODE0 | GPIO_CRL_CNF0) << registeroffset), (config << registeroffset));
 8000d9e:	f04f 0e0f 	mov.w	lr, #15
  uint32_t position = 0x00u;
 8000da2:	4626      	mov	r6, r4
      /*--------------------- EXTI Mode Configuration ------------------------*/
      /* Configure the External Interrupt or event for the current IO */
      if ((GPIO_Init->Mode & EXTI_MODE) == EXTI_MODE)
      {
        /* Enable AFIO Clock */
        __HAL_RCC_AFIO_CLK_ENABLE();
 8000da4:	f8df c184 	ldr.w	ip, [pc, #388]	@ 8000f2c <HAL_GPIO_Init+0x194>
 8000da8:	4b61      	ldr	r3, [pc, #388]	@ (8000f30 <HAL_GPIO_Init+0x198>)
      configregister = (iocurrent < GPIO_PIN_8) ? &GPIOx->CRL     : &GPIOx->CRH;
 8000daa:	f100 0804 	add.w	r8, r0, #4
  while (((GPIO_Init->Pin) >> position) != 0x00u)
 8000dae:	680a      	ldr	r2, [r1, #0]
 8000db0:	fa32 f506 	lsrs.w	r5, r2, r6
 8000db4:	d102      	bne.n	8000dbc <HAL_GPIO_Init+0x24>
      }
    }

	position++;
  }
}
 8000db6:	b003      	add	sp, #12
 8000db8:	e8bd 8ff0 	ldmia.w	sp!, {r4, r5, r6, r7, r8, r9, sl, fp, pc}
    ioposition = (0x01uL << position);
 8000dbc:	2501      	movs	r5, #1
 8000dbe:	fa05 f706 	lsl.w	r7, r5, r6
    iocurrent = (uint32_t)(GPIO_Init->Pin) & ioposition;
 8000dc2:	ea02 0507 	and.w	r5, r2, r7
    if (iocurrent == ioposition)
 8000dc6:	ea37 0202 	bics.w	r2, r7, r2
 8000dca:	d176      	bne.n	8000eba <HAL_GPIO_Init+0x122>
      switch (GPIO_Init->Mode)
 8000dcc:	684a      	ldr	r2, [r1, #4]
 8000dce:	2a03      	cmp	r2, #3
 8000dd0:	d807      	bhi.n	8000de2 <HAL_GPIO_Init+0x4a>
 8000dd2:	3a01      	subs	r2, #1
 8000dd4:	2a02      	cmp	r2, #2
 8000dd6:	f200 8083 	bhi.w	8000ee0 <HAL_GPIO_Init+0x148>
 8000dda:	e8df f002 	tbb	[pc, r2]
 8000dde:	9691      	.short	0x9691
 8000de0:	9c          	.byte	0x9c
 8000de1:	00          	.byte	0x00
 8000de2:	2a12      	cmp	r2, #18
 8000de4:	f000 8094 	beq.w	8000f10 <HAL_GPIO_Init+0x178>
 8000de8:	d869      	bhi.n	8000ebe <HAL_GPIO_Init+0x126>
 8000dea:	2a11      	cmp	r2, #17
 8000dec:	f000 808a 	beq.w	8000f04 <HAL_GPIO_Init+0x16c>
      configregister = (iocurrent < GPIO_PIN_8) ? &GPIOx->CRL     : &GPIOx->CRH;
 8000df0:	2dff      	cmp	r5, #255	@ 0xff
 8000df2:	bf94      	ite	ls
 8000df4:	4681      	movls	r9, r0
 8000df6:	46c1      	movhi	r9, r8
      registeroffset = (iocurrent < GPIO_PIN_8) ? (position << 2u) : ((position - 8u) << 2u);
 8000df8:	ea4f 0286 	mov.w	r2, r6, lsl #2
      MODIFY_REG((*configregister), ((GPIO_CRL_MODE0 | GPIO_CRL_CNF0) << registeroffset), (config << registeroffset));
 8000dfc:	f8d9 7000 	ldr.w	r7, [r9]
      registeroffset = (iocurrent < GPIO_PIN_8) ? (position << 2u) : ((position - 8u) << 2u);
 8000e00:	bf88      	it	hi
 8000e02:	3a20      	subhi	r2, #32
      MODIFY_REG((*configregister), ((GPIO_CRL_MODE0 | GPIO_CRL_CNF0) << registeroffset), (config << registeroffset));
 8000e04:	fa0e fa02 	lsl.w	sl, lr, r2
 8000e08:	ea27 070a 	bic.w	r7, r7, sl
 8000e0c:	fa04 f202 	lsl.w	r2, r4, r2
 8000e10:	4317      	orrs	r7, r2
 8000e12:	f8c9 7000 	str.w	r7, [r9]
      if ((GPIO_Init->Mode & EXTI_MODE) == EXTI_MODE)
 8000e16:	f8d1 9004 	ldr.w	r9, [r1, #4]
 8000e1a:	f019 5f80 	tst.w	r9, #268435456	@ 0x10000000
 8000e1e:	d04c      	beq.n	8000eba <HAL_GPIO_Init+0x122>
        __HAL_RCC_AFIO_CLK_ENABLE();
 8000e20:	f8dc 2018 	ldr.w	r2, [ip, #24]
 8000e24:	f026 0703 	bic.w	r7, r6, #3
 8000e28:	f042 0201 	orr.w	r2, r2, #1
 8000e2c:	f8cc 2018 	str.w	r2, [ip, #24]
 8000e30:	f8dc 2018 	ldr.w	r2, [ip, #24]
 8000e34:	f107 4780 	add.w	r7, r7, #1073741824	@ 0x40000000
 8000e38:	f002 0201 	and.w	r2, r2, #1
 8000e3c:	9201      	str	r2, [sp, #4]
 8000e3e:	f507 3780 	add.w	r7, r7, #65536	@ 0x10000
        CLEAR_BIT(temp, (0x0Fu) << (4u * (position & 0x03u)));
 8000e42:	f006 0a03 	and.w	sl, r6, #3
        __HAL_RCC_AFIO_CLK_ENABLE();
 8000e46:	9a01      	ldr	r2, [sp, #4]
        CLEAR_BIT(temp, (0x0Fu) << (4u * (position & 0x03u)));
 8000e48:	ea4f 0a8a 	mov.w	sl, sl, lsl #2
        temp = AFIO->EXTICR[position >> 2u];
 8000e4c:	68ba      	ldr	r2, [r7, #8]
        CLEAR_BIT(temp, (0x0Fu) << (4u * (position & 0x03u)));
 8000e4e:	fa0e fb0a 	lsl.w	fp, lr, sl
 8000e52:	ea22 0b0b 	bic.w	fp, r2, fp
        SET_BIT(temp, (GPIO_GET_INDEX(GPIOx)) << (4u * (position & 0x03u)));
 8000e56:	4a37      	ldr	r2, [pc, #220]	@ (8000f34 <HAL_GPIO_Init+0x19c>)
 8000e58:	4290      	cmp	r0, r2
 8000e5a:	d060      	beq.n	8000f1e <HAL_GPIO_Init+0x186>
 8000e5c:	f502 6280 	add.w	r2, r2, #1024	@ 0x400
 8000e60:	4290      	cmp	r0, r2
 8000e62:	d05e      	beq.n	8000f22 <HAL_GPIO_Init+0x18a>
 8000e64:	f502 6280 	add.w	r2, r2, #1024	@ 0x400
 8000e68:	4290      	cmp	r0, r2
 8000e6a:	d05c      	beq.n	8000f26 <HAL_GPIO_Init+0x18e>
 8000e6c:	f502 6280 	add.w	r2, r2, #1024	@ 0x400
 8000e70:	4290      	cmp	r0, r2
 8000e72:	bf14      	ite	ne
 8000e74:	2204      	movne	r2, #4
 8000e76:	2203      	moveq	r2, #3
 8000e78:	fa02 f20a 	lsl.w	r2, r2, sl
 8000e7c:	ea42 020b 	orr.w	r2, r2, fp
        AFIO->EXTICR[position >> 2u] = temp;
 8000e80:	60ba      	str	r2, [r7, #8]
          SET_BIT(EXTI->RTSR, iocurrent);
 8000e82:	689a      	ldr	r2, [r3, #8]
        if ((GPIO_Init->Mode & RISING_EDGE) == RISING_EDGE)
 8000e84:	f419 1f80 	tst.w	r9, #1048576	@ 0x100000
          SET_BIT(EXTI->RTSR, iocurrent);
 8000e88:	bf14      	ite	ne
 8000e8a:	432a      	orrne	r2, r5
          CLEAR_BIT(EXTI->RTSR, iocurrent);
 8000e8c:	43aa      	biceq	r2, r5
 8000e8e:	609a      	str	r2, [r3, #8]
          SET_BIT(EXTI->FTSR, iocurrent);
 8000e90:	68da      	ldr	r2, [r3, #12]
        if ((GPIO_Init->Mode & FALLING_EDGE) == FALLING_EDGE)
 8000e92:	f419 1f00 	tst.w	r9, #2097152	@ 0x200000
          SET_BIT(EXTI->FTSR, iocurrent);
 8000e96:	bf14      	ite	ne
 8000e98:	432a      	orrne	r2, r5
          CLEAR_BIT(EXTI->FTSR, iocurrent);
 8000e9a:	43aa      	biceq	r2, r5
 8000e9c:	60da      	str	r2, [r3, #12]
          SET_BIT(EXTI->EMR, iocurrent);
 8000e9e:	685a      	ldr	r2, [r3, #4]
        if ((GPIO_Init->Mode & GPIO_MODE_EVT) == GPIO_MODE_EVT)
 8000ea0:	f419 3f00 	tst.w	r9, #131072	@ 0x20000
          SET_BIT(EXTI->EMR, iocurrent);
 8000ea4:	bf14      	ite	ne
 8000ea6:	432a      	orrne	r2, r5
          CLEAR_BIT(EXTI->EMR, iocurrent);
 8000ea8:	43aa      	biceq	r2, r5
 8000eaa:	605a      	str	r2, [r3, #4]
          SET_BIT(EXTI->IMR, iocurrent);
 8000eac:	681a      	ldr	r2, [r3, #0]
        if ((GPIO_Init->Mode & GPIO_MODE_IT) == GPIO_MODE_IT)
 8000eae:	f419 3f80 	tst.w	r9, #65536	@ 0x10000
          SET_BIT(EXTI->IMR, iocurrent);
 8000eb2:	bf14      	ite	ne
 8000eb4:	432a      	orrne	r2, r5
          CLEAR_BIT(EXTI->IMR, iocurrent);
 8000eb6:	43aa      	biceq	r2, r5
 8000eb8:	601a      	str	r2, [r3, #0]
	position++;
 8000eba:	3601      	adds	r6, #1
 8000ebc:	e777      	b.n	8000dae <HAL_GPIO_Init+0x16>
      switch (GPIO_Init->Mode)
 8000ebe:	f8df 9078 	ldr.w	r9, [pc, #120]	@ 8000f38 <HAL_GPIO_Init+0x1a0>
 8000ec2:	454a      	cmp	r2, r9
 8000ec4:	d00c      	beq.n	8000ee0 <HAL_GPIO_Init+0x148>
 8000ec6:	d814      	bhi.n	8000ef2 <HAL_GPIO_Init+0x15a>
 8000ec8:	f5a9 1980 	sub.w	r9, r9, #1048576	@ 0x100000
 8000ecc:	454a      	cmp	r2, r9
 8000ece:	d007      	beq.n	8000ee0 <HAL_GPIO_Init+0x148>
 8000ed0:	f509 2970 	add.w	r9, r9, #983040	@ 0xf0000
 8000ed4:	454a      	cmp	r2, r9
 8000ed6:	d003      	beq.n	8000ee0 <HAL_GPIO_Init+0x148>
 8000ed8:	f5a9 1980 	sub.w	r9, r9, #1048576	@ 0x100000
 8000edc:	454a      	cmp	r2, r9
 8000ede:	d187      	bne.n	8000df0 <HAL_GPIO_Init+0x58>
          if (GPIO_Init->Pull == GPIO_NOPULL)
 8000ee0:	688a      	ldr	r2, [r1, #8]
 8000ee2:	b1d2      	cbz	r2, 8000f1a <HAL_GPIO_Init+0x182>
          else if (GPIO_Init->Pull == GPIO_PULLUP)
 8000ee4:	2a01      	cmp	r2, #1
            config = GPIO_CR_MODE_INPUT + GPIO_CR_CNF_INPUT_PU_PD;
 8000ee6:	f04f 0408 	mov.w	r4, #8
            GPIOx->BSRR = ioposition;
 8000eea:	bf0c      	ite	eq
 8000eec:	6107      	streq	r7, [r0, #16]
            GPIOx->BRR = ioposition;
 8000eee:	6147      	strne	r7, [r0, #20]
 8000ef0:	e77e      	b.n	8000df0 <HAL_GPIO_Init+0x58>
      switch (GPIO_Init->Mode)
 8000ef2:	f8df 9048 	ldr.w	r9, [pc, #72]	@ 8000f3c <HAL_GPIO_Init+0x1a4>
 8000ef6:	454a      	cmp	r2, r9
 8000ef8:	d0f2      	beq.n	8000ee0 <HAL_GPIO_Init+0x148>
 8000efa:	f509 3980 	add.w	r9, r9, #65536	@ 0x10000
 8000efe:	e7ed      	b.n	8000edc <HAL_GPIO_Init+0x144>
          config = GPIO_Init->Speed + GPIO_CR_CNF_GP_OUTPUT_PP;
 8000f00:	68cc      	ldr	r4, [r1, #12]
          break;
 8000f02:	e775      	b.n	8000df0 <HAL_GPIO_Init+0x58>
          config = GPIO_Init->Speed + GPIO_CR_CNF_GP_OUTPUT_OD;
 8000f04:	68cc      	ldr	r4, [r1, #12]
 8000f06:	3404      	adds	r4, #4
          break;
 8000f08:	e772      	b.n	8000df0 <HAL_GPIO_Init+0x58>
          config = GPIO_Init->Speed + GPIO_CR_CNF_AF_OUTPUT_PP;
 8000f0a:	68cc      	ldr	r4, [r1, #12]
 8000f0c:	3408      	adds	r4, #8
          break;
 8000f0e:	e76f      	b.n	8000df0 <HAL_GPIO_Init+0x58>
          config = GPIO_Init->Speed + GPIO_CR_CNF_AF_OUTPUT_OD;
 8000f10:	68cc      	ldr	r4, [r1, #12]
 8000f12:	340c      	adds	r4, #12
          break;
 8000f14:	e76c      	b.n	8000df0 <HAL_GPIO_Init+0x58>
      switch (GPIO_Init->Mode)
 8000f16:	2400      	movs	r4, #0
 8000f18:	e76a      	b.n	8000df0 <HAL_GPIO_Init+0x58>
            config = GPIO_CR_MODE_INPUT + GPIO_CR_CNF_INPUT_FLOATING;
 8000f1a:	2404      	movs	r4, #4
 8000f1c:	e768      	b.n	8000df0 <HAL_GPIO_Init+0x58>
        SET_BIT(temp, (GPIO_GET_INDEX(GPIOx)) << (4u * (position & 0x03u)));
 8000f1e:	2200      	movs	r2, #0
 8000f20:	e7aa      	b.n	8000e78 <HAL_GPIO_Init+0xe0>
 8000f22:	2201      	movs	r2, #1
 8000f24:	e7a8      	b.n	8000e78 <HAL_GPIO_Init+0xe0>
 8000f26:	2202      	movs	r2, #2
 8000f28:	e7a6      	b.n	8000e78 <HAL_GPIO_Init+0xe0>
 8000f2a:	bf00      	nop
 8000f2c:	40021000 	.word	0x40021000
 8000f30:	40010400 	.word	0x40010400
 8000f34:	40010800 	.word	0x40010800
 8000f38:	10220000 	.word	0x10220000
 8000f3c:	10310000 	.word	0x10310000

08000f40 <HAL_IWDG_Init>:
  * @param  hiwdg  pointer to a IWDG_HandleTypeDef structure that contains
  *                the configuration information for the specified IWDG module.
  * @retval HAL status
  */
HAL_StatusTypeDef HAL_IWDG_Init(IWDG_HandleTypeDef *hiwdg)
{
 8000f40:	b570      	push	{r4, r5, r6, lr}
  uint32_t tickstart;

  /* Check the IWDG handle allocation */
  if (hiwdg == NULL)
 8000f42:	4604      	mov	r4, r0
 8000f44:	b318      	cbz	r0, 8000f8e <HAL_IWDG_Init+0x4e>
  assert_param(IS_IWDG_ALL_INSTANCE(hiwdg->Instance));
  assert_param(IS_IWDG_PRESCALER(hiwdg->Init.Prescaler));
  assert_param(IS_IWDG_RELOAD(hiwdg->Init.Reload));

  /* Enable IWDG. LSI is turned on automatically */
  __HAL_IWDG_START(hiwdg);
 8000f46:	f64c 42cc 	movw	r2, #52428	@ 0xcccc
 8000f4a:	6803      	ldr	r3, [r0, #0]
  tickstart = HAL_GetTick();

  /* Wait for register to be updated */
  while ((hiwdg->Instance->SR & IWDG_KERNEL_UPDATE_FLAGS) != 0x00u)
  {
    if ((HAL_GetTick() - tickstart) > HAL_IWDG_DEFAULT_TIMEOUT)
 8000f4c:	f241 363c 	movw	r6, #4924	@ 0x133c
  __HAL_IWDG_START(hiwdg);
 8000f50:	601a      	str	r2, [r3, #0]
  IWDG_ENABLE_WRITE_ACCESS(hiwdg);
 8000f52:	f245 5255 	movw	r2, #21845	@ 0x5555
 8000f56:	601a      	str	r2, [r3, #0]
  hiwdg->Instance->PR = hiwdg->Init.Prescaler;
 8000f58:	6842      	ldr	r2, [r0, #4]
 8000f5a:	605a      	str	r2, [r3, #4]
  hiwdg->Instance->RLR = hiwdg->Init.Reload;
 8000f5c:	6882      	ldr	r2, [r0, #8]
 8000f5e:	609a      	str	r2, [r3, #8]
  tickstart = HAL_GetTick();
 8000f60:	f7ff fd1e 	bl	80009a0 <HAL_GetTick>
 8000f64:	4605      	mov	r5, r0
  while ((hiwdg->Instance->SR & IWDG_KERNEL_UPDATE_FLAGS) != 0x00u)
 8000f66:	6822      	ldr	r2, [r4, #0]
 8000f68:	68d0      	ldr	r0, [r2, #12]
 8000f6a:	f010 0003 	ands.w	r0, r0, #3
 8000f6e:	d103      	bne.n	8000f78 <HAL_IWDG_Init+0x38>
      }
    }
  }

  /* Reload IWDG counter with value defined in the reload register */
  __HAL_IWDG_RELOAD_COUNTER(hiwdg);
 8000f70:	f64a 23aa 	movw	r3, #43690	@ 0xaaaa
 8000f74:	6013      	str	r3, [r2, #0]

  /* Return function status */
  return HAL_OK;
}
 8000f76:	bd70      	pop	{r4, r5, r6, pc}
    if ((HAL_GetTick() - tickstart) > HAL_IWDG_DEFAULT_TIMEOUT)
 8000f78:	f7ff fd12 	bl	80009a0 <HAL_GetTick>
 8000f7c:	1b40      	subs	r0, r0, r5
 8000f7e:	42b0      	cmp	r0, r6
 8000f80:	d9f1      	bls.n	8000f66 <HAL_IWDG_Init+0x26>
      if ((hiwdg->Instance->SR & IWDG_KERNEL_UPDATE_FLAGS) != 0x00u)
 8000f82:	6823      	ldr	r3, [r4, #0]
 8000f84:	68db      	ldr	r3, [r3, #12]
 8000f86:	079b      	lsls	r3, r3, #30
 8000f88:	d0ed      	beq.n	8000f66 <HAL_IWDG_Init+0x26>
        return HAL_TIMEOUT;
 8000f8a:	2003      	movs	r0, #3
 8000f8c:	e7f3      	b.n	8000f76 <HAL_IWDG_Init+0x36>
    return HAL_ERROR;
 8000f8e:	2001      	movs	r0, #1
 8000f90:	e7f1      	b.n	8000f76 <HAL_IWDG_Init+0x36>

08000f92 <HAL_IWDG_Refresh>:
  * @retval HAL status
  */
HAL_StatusTypeDef HAL_IWDG_Refresh(IWDG_HandleTypeDef *hiwdg)
{
  /* Reload IWDG counter with value defined in the reload register */
  __HAL_IWDG_RELOAD_COUNTER(hiwdg);
 8000f92:	f64a 22aa 	movw	r2, #43690	@ 0xaaaa
 8000f96:	6803      	ldr	r3, [r0, #0]

  /* Return function status */
  return HAL_OK;
}
 8000f98:	2000      	movs	r0, #0
  __HAL_IWDG_RELOAD_COUNTER(hiwdg);
 8000f9a:	601a      	str	r2, [r3, #0]
}
 8000f9c:	4770      	bx	lr
	...

08000fa0 <HAL_RCC_DeInit>:
  *            - Peripheral clocks
  *            - LSI, LSE and RTC clocks
  * @retval HAL_StatusTypeDef
  */
HAL_StatusTypeDef HAL_RCC_DeInit(void)
{
 8000fa0:	b570      	push	{r4, r5, r6, lr}
  uint32_t tickstart;

  /* Get Start Tick */
  tickstart = HAL_GetTick();
 8000fa2:	f7ff fcfd 	bl	80009a0 <HAL_GetTick>
 8000fa6:	4605      	mov	r5, r0

  /* Set HSION bit */
  SET_BIT(RCC->CR, RCC_CR_HSION);
 8000fa8:	4c2f      	ldr	r4, [pc, #188]	@ (8001068 <HAL_RCC_DeInit+0xc8>)
 8000faa:	6823      	ldr	r3, [r4, #0]
 8000fac:	f043 0301 	orr.w	r3, r3, #1
 8000fb0:	6023      	str	r3, [r4, #0]

  /* Wait till HSI is ready */
  while (READ_BIT(RCC->CR, RCC_CR_HSIRDY) == RESET)
 8000fb2:	6823      	ldr	r3, [r4, #0]
 8000fb4:	079b      	lsls	r3, r3, #30
 8000fb6:	d53b      	bpl.n	8001030 <HAL_RCC_DeInit+0x90>
      return HAL_TIMEOUT;
    }
  }

  /* Set HSITRIM bits to the reset value */
  MODIFY_REG(RCC->CR, RCC_CR_HSITRIM, (0x10U << RCC_CR_HSITRIM_Pos));
 8000fb8:	6823      	ldr	r3, [r4, #0]
  CLEAR_REG(RCC->CFGR);

  /* Wait till clock switch is ready */
  while (READ_BIT(RCC->CFGR, RCC_CFGR_SWS) != RESET)
  {
    if ((HAL_GetTick() - tickstart) > CLOCKSWITCH_TIMEOUT_VALUE)
 8000fba:	f241 3688 	movw	r6, #5000	@ 0x1388
  MODIFY_REG(RCC->CR, RCC_CR_HSITRIM, (0x10U << RCC_CR_HSITRIM_Pos));
 8000fbe:	f023 03f8 	bic.w	r3, r3, #248	@ 0xf8
 8000fc2:	f043 0380 	orr.w	r3, r3, #128	@ 0x80
 8000fc6:	6023      	str	r3, [r4, #0]
  tickstart = HAL_GetTick();
 8000fc8:	f7ff fcea 	bl	80009a0 <HAL_GetTick>
  CLEAR_REG(RCC->CFGR);
 8000fcc:	2300      	movs	r3, #0
  tickstart = HAL_GetTick();
 8000fce:	4605      	mov	r5, r0
  CLEAR_REG(RCC->CFGR);
 8000fd0:	6063      	str	r3, [r4, #4]
  while (READ_BIT(RCC->CFGR, RCC_CFGR_SWS) != RESET)
 8000fd2:	6863      	ldr	r3, [r4, #4]
 8000fd4:	f013 0f0c 	tst.w	r3, #12
 8000fd8:	d132      	bne.n	8001040 <HAL_RCC_DeInit+0xa0>
      return HAL_TIMEOUT;
    }
  }

  /* Update the SystemCoreClock global variable */
  SystemCoreClock = HSI_VALUE;
 8000fda:	4b24      	ldr	r3, [pc, #144]	@ (800106c <HAL_RCC_DeInit+0xcc>)
 8000fdc:	4a24      	ldr	r2, [pc, #144]	@ (8001070 <HAL_RCC_DeInit+0xd0>)
 8000fde:	601a      	str	r2, [r3, #0]

  /* Adapt Systick interrupt period */
  if (HAL_InitTick(uwTickPrio) != HAL_OK)
 8000fe0:	4b24      	ldr	r3, [pc, #144]	@ (8001074 <HAL_RCC_DeInit+0xd4>)
 8000fe2:	6818      	ldr	r0, [r3, #0]
 8000fe4:	f7ff fc9a 	bl	800091c <HAL_InitTick>
 8000fe8:	4605      	mov	r5, r0
 8000fea:	2800      	cmp	r0, #0
 8000fec:	d13a      	bne.n	8001064 <HAL_RCC_DeInit+0xc4>
  {
    return HAL_ERROR;
  }

  /* Get Start Tick */
  tickstart = HAL_GetTick();
 8000fee:	f7ff fcd7 	bl	80009a0 <HAL_GetTick>
 8000ff2:	4606      	mov	r6, r0

  /* Second step is to clear PLLON bit */
  CLEAR_BIT(RCC->CR, RCC_CR_PLLON);
 8000ff4:	6823      	ldr	r3, [r4, #0]
 8000ff6:	f023 7380 	bic.w	r3, r3, #16777216	@ 0x1000000
 8000ffa:	6023      	str	r3, [r4, #0]

  /* Wait till PLL is disabled */
  while (READ_BIT(RCC->CR, RCC_CR_PLLRDY) != RESET)
 8000ffc:	6823      	ldr	r3, [r4, #0]
 8000ffe:	f013 7300 	ands.w	r3, r3, #33554432	@ 0x2000000
 8001002:	d123      	bne.n	800104c <HAL_RCC_DeInit+0xac>
      return HAL_TIMEOUT;
    }
  }

  /* Ensure to reset PLLSRC and PLLMUL bits */
  CLEAR_REG(RCC->CFGR);
 8001004:	6063      	str	r3, [r4, #4]

  /* Get Start Tick */
  tickstart = HAL_GetTick();
 8001006:	f7ff fccb 	bl	80009a0 <HAL_GetTick>
 800100a:	4606      	mov	r6, r0

  /* Reset HSEON & CSSON bits */
  CLEAR_BIT(RCC->CR, RCC_CR_HSEON | RCC_CR_CSSON);
 800100c:	6823      	ldr	r3, [r4, #0]
 800100e:	f423 2310 	bic.w	r3, r3, #589824	@ 0x90000
 8001012:	6023      	str	r3, [r4, #0]

  /* Wait till HSE is disabled */
  while (READ_BIT(RCC->CR, RCC_CR_HSERDY) != RESET)
 8001014:	6823      	ldr	r3, [r4, #0]
 8001016:	f413 3300 	ands.w	r3, r3, #131072	@ 0x20000
 800101a:	d11d      	bne.n	8001058 <HAL_RCC_DeInit+0xb8>
      return HAL_TIMEOUT;
    }
  }

  /* Reset HSEBYP bit */
  CLEAR_BIT(RCC->CR, RCC_CR_HSEBYP);
 800101c:	6822      	ldr	r2, [r4, #0]
 800101e:	f422 2280 	bic.w	r2, r2, #262144	@ 0x40000
 8001022:	6022      	str	r2, [r4, #0]
  /* Reset CFGR2 register */
  CLEAR_REG(RCC->CFGR2);
#endif /* RCC_CFGR2_PREDIV1 */

  /* Reset all CSR flags */
  SET_BIT(RCC->CSR, RCC_CSR_RMVF);
 8001024:	6a62      	ldr	r2, [r4, #36]	@ 0x24
 8001026:	f042 7280 	orr.w	r2, r2, #16777216	@ 0x1000000
 800102a:	6262      	str	r2, [r4, #36]	@ 0x24

  /* Disable all interrupts */
  CLEAR_REG(RCC->CIR);
 800102c:	60a3      	str	r3, [r4, #8]

  return HAL_OK;
 800102e:	e005      	b.n	800103c <HAL_RCC_DeInit+0x9c>
    if ((HAL_GetTick() - tickstart) > HSI_TIMEOUT_VALUE)
 8001030:	f7ff fcb6 	bl	80009a0 <HAL_GetTick>
 8001034:	1b40      	subs	r0, r0, r5
 8001036:	2802      	cmp	r0, #2
 8001038:	d9bb      	bls.n	8000fb2 <HAL_RCC_DeInit+0x12>
      return HAL_TIMEOUT;
 800103a:	2503      	movs	r5, #3
}
 800103c:	4628      	mov	r0, r5
 800103e:	bd70      	pop	{r4, r5, r6, pc}
    if ((HAL_GetTick() - tickstart) > CLOCKSWITCH_TIMEOUT_VALUE)
 8001040:	f7ff fcae 	bl	80009a0 <HAL_GetTick>
 8001044:	1b40      	subs	r0, r0, r5
 8001046:	42b0      	cmp	r0, r6
 8001048:	d9c3      	bls.n	8000fd2 <HAL_RCC_DeInit+0x32>
 800104a:	e7f6      	b.n	800103a <HAL_RCC_DeInit+0x9a>
    if ((HAL_GetTick() - tickstart) > PLL_TIMEOUT_VALUE)
 800104c:	f7ff fca8 	bl	80009a0 <HAL_GetTick>
 8001050:	1b80      	subs	r0, r0, r6
 8001052:	2802      	cmp	r0, #2
 8001054:	d9d2      	bls.n	8000ffc <HAL_RCC_DeInit+0x5c>
 8001056:	e7f0      	b.n	800103a <HAL_RCC_DeInit+0x9a>
    if ((HAL_GetTick() - tickstart) > HSE_TIMEOUT_VALUE)
 8001058:	f7ff fca2 	bl	80009a0 <HAL_GetTick>
 800105c:	1b80      	subs	r0, r0, r6
 800105e:	2864      	cmp	r0, #100	@ 0x64
 8001060:	d9d8      	bls.n	8001014 <HAL_RCC_DeInit+0x74>
 8001062:	e7ea      	b.n	800103a <HAL_RCC_DeInit+0x9a>
    return HAL_ERROR;
 8001064:	2501      	movs	r5, #1
 8001066:	e7e9      	b.n	800103c <HAL_RCC_DeInit+0x9c>
 8001068:	40021000 	.word	0x40021000
 800106c:	20000004 	.word	0x20000004
 8001070:	007a1200 	.word	0x007a1200
 8001074:	2000000c 	.word	0x2000000c

08001078 <HAL_RCC_OscConfig>:
  *         supported by this macro. User should request a transition to HSE Off
  *         first and then HSE On or HSE Bypass.
  * @retval HAL status
  */
HAL_StatusTypeDef HAL_RCC_OscConfig(RCC_OscInitTypeDef  *RCC_OscInitStruct)
{
 8001078:	e92d 41f3 	stmdb	sp!, {r0, r1, r4, r5, r6, r7, r8, lr}
  uint32_t tickstart;
  uint32_t pll_config;

  /* Check Null pointer */
  if (RCC_OscInitStruct == NULL)
 800107c:	4605      	mov	r5, r0
 800107e:	b338      	cbz	r0, 80010d0 <HAL_RCC_OscConfig+0x58>

  /* Check the parameters */
  assert_param(IS_RCC_OSCILLATORTYPE(RCC_OscInitStruct->OscillatorType));

  /*------------------------------- HSE Configuration ------------------------*/
  if (((RCC_OscInitStruct->OscillatorType) & RCC_OSCILLATORTYPE_HSE) == RCC_OSCILLATORTYPE_HSE)
 8001080:	6803      	ldr	r3, [r0, #0]
 8001082:	07db      	lsls	r3, r3, #31
 8001084:	d410      	bmi.n	80010a8 <HAL_RCC_OscConfig+0x30>
        }
      }
    }
  }
  /*----------------------------- HSI Configuration --------------------------*/
  if (((RCC_OscInitStruct->OscillatorType) & RCC_OSCILLATORTYPE_HSI) == RCC_OSCILLATORTYPE_HSI)
 8001086:	682b      	ldr	r3, [r5, #0]
 8001088:	079f      	lsls	r7, r3, #30
 800108a:	d45e      	bmi.n	800114a <HAL_RCC_OscConfig+0xd2>
        }
      }
    }
  }
  /*------------------------------ LSI Configuration -------------------------*/
  if (((RCC_OscInitStruct->OscillatorType) & RCC_OSCILLATORTYPE_LSI) == RCC_OSCILLATORTYPE_LSI)
 800108c:	682b      	ldr	r3, [r5, #0]
 800108e:	0719      	lsls	r1, r3, #28
 8001090:	f100 8095 	bmi.w	80011be <HAL_RCC_OscConfig+0x146>
        }
      }
    }
  }
  /*------------------------------ LSE Configuration -------------------------*/
  if (((RCC_OscInitStruct->OscillatorType) & RCC_OSCILLATORTYPE_LSE) == RCC_OSCILLATORTYPE_LSE)
 8001094:	682b      	ldr	r3, [r5, #0]
 8001096:	075a      	lsls	r2, r3, #29
 8001098:	f100 80c1 	bmi.w	800121e <HAL_RCC_OscConfig+0x1a6>

#endif /* RCC_CR_PLL2ON */
  /*-------------------------------- PLL Configuration -----------------------*/
  /* Check the parameters */
  assert_param(IS_RCC_PLL(RCC_OscInitStruct->PLL.PLLState));
  if ((RCC_OscInitStruct->PLL.PLLState) != RCC_PLL_NONE)
 800109c:	69eb      	ldr	r3, [r5, #28]
 800109e:	2b00      	cmp	r3, #0
 80010a0:	f040 812c 	bne.w	80012fc <HAL_RCC_OscConfig+0x284>
        }
      }
    }
  }

  return HAL_OK;
 80010a4:	2000      	movs	r0, #0
 80010a6:	e029      	b.n	80010fc <HAL_RCC_OscConfig+0x84>
    if ((__HAL_RCC_GET_SYSCLK_SOURCE() == RCC_SYSCLKSOURCE_STATUS_HSE)
 80010a8:	4c90      	ldr	r4, [pc, #576]	@ (80012ec <HAL_RCC_OscConfig+0x274>)
 80010aa:	6863      	ldr	r3, [r4, #4]
 80010ac:	f003 030c 	and.w	r3, r3, #12
 80010b0:	2b04      	cmp	r3, #4
 80010b2:	d007      	beq.n	80010c4 <HAL_RCC_OscConfig+0x4c>
        || ((__HAL_RCC_GET_SYSCLK_SOURCE() == RCC_SYSCLKSOURCE_STATUS_PLLCLK) && (__HAL_RCC_GET_PLL_OSCSOURCE() == RCC_PLLSOURCE_HSE)))
 80010b4:	6863      	ldr	r3, [r4, #4]
 80010b6:	f003 030c 	and.w	r3, r3, #12
 80010ba:	2b08      	cmp	r3, #8
 80010bc:	d10a      	bne.n	80010d4 <HAL_RCC_OscConfig+0x5c>
 80010be:	6863      	ldr	r3, [r4, #4]
 80010c0:	03de      	lsls	r6, r3, #15
 80010c2:	d507      	bpl.n	80010d4 <HAL_RCC_OscConfig+0x5c>
      if ((__HAL_RCC_GET_FLAG(RCC_FLAG_HSERDY) != RESET) && (RCC_OscInitStruct->HSEState == RCC_HSE_OFF))
 80010c4:	6823      	ldr	r3, [r4, #0]
 80010c6:	039c      	lsls	r4, r3, #14
 80010c8:	d5dd      	bpl.n	8001086 <HAL_RCC_OscConfig+0xe>
 80010ca:	686b      	ldr	r3, [r5, #4]
 80010cc:	2b00      	cmp	r3, #0
 80010ce:	d1da      	bne.n	8001086 <HAL_RCC_OscConfig+0xe>
    return HAL_ERROR;
 80010d0:	2001      	movs	r0, #1
 80010d2:	e013      	b.n	80010fc <HAL_RCC_OscConfig+0x84>
      __HAL_RCC_HSE_CONFIG(RCC_OscInitStruct->HSEState);
 80010d4:	686b      	ldr	r3, [r5, #4]
 80010d6:	f5b3 3f80 	cmp.w	r3, #65536	@ 0x10000
 80010da:	d112      	bne.n	8001102 <HAL_RCC_OscConfig+0x8a>
 80010dc:	6823      	ldr	r3, [r4, #0]
 80010de:	f443 3380 	orr.w	r3, r3, #65536	@ 0x10000
 80010e2:	6023      	str	r3, [r4, #0]
        tickstart = HAL_GetTick();
 80010e4:	f7ff fc5c 	bl	80009a0 <HAL_GetTick>
 80010e8:	4606      	mov	r6, r0
        while (__HAL_RCC_GET_FLAG(RCC_FLAG_HSERDY) == RESET)
 80010ea:	6823      	ldr	r3, [r4, #0]
 80010ec:	0398      	lsls	r0, r3, #14
 80010ee:	d4ca      	bmi.n	8001086 <HAL_RCC_OscConfig+0xe>
          if ((HAL_GetTick() - tickstart) > HSE_TIMEOUT_VALUE)
 80010f0:	f7ff fc56 	bl	80009a0 <HAL_GetTick>
 80010f4:	1b80      	subs	r0, r0, r6
 80010f6:	2864      	cmp	r0, #100	@ 0x64
 80010f8:	d9f7      	bls.n	80010ea <HAL_RCC_OscConfig+0x72>
            return HAL_TIMEOUT;
 80010fa:	2003      	movs	r0, #3
}
 80010fc:	b002      	add	sp, #8
 80010fe:	e8bd 81f0 	ldmia.w	sp!, {r4, r5, r6, r7, r8, pc}
      __HAL_RCC_HSE_CONFIG(RCC_OscInitStruct->HSEState);
 8001102:	b99b      	cbnz	r3, 800112c <HAL_RCC_OscConfig+0xb4>
 8001104:	6823      	ldr	r3, [r4, #0]
 8001106:	f423 3380 	bic.w	r3, r3, #65536	@ 0x10000
 800110a:	6023      	str	r3, [r4, #0]
 800110c:	6823      	ldr	r3, [r4, #0]
 800110e:	f423 2380 	bic.w	r3, r3, #262144	@ 0x40000
 8001112:	6023      	str	r3, [r4, #0]
        tickstart = HAL_GetTick();
 8001114:	f7ff fc44 	bl	80009a0 <HAL_GetTick>
 8001118:	4606      	mov	r6, r0
        while (__HAL_RCC_GET_FLAG(RCC_FLAG_HSERDY) != RESET)
 800111a:	6823      	ldr	r3, [r4, #0]
 800111c:	0399      	lsls	r1, r3, #14
 800111e:	d5b2      	bpl.n	8001086 <HAL_RCC_OscConfig+0xe>
          if ((HAL_GetTick() - tickstart) > HSE_TIMEOUT_VALUE)
 8001120:	f7ff fc3e 	bl	80009a0 <HAL_GetTick>
 8001124:	1b80      	subs	r0, r0, r6
 8001126:	2864      	cmp	r0, #100	@ 0x64
 8001128:	d9f7      	bls.n	800111a <HAL_RCC_OscConfig+0xa2>
 800112a:	e7e6      	b.n	80010fa <HAL_RCC_OscConfig+0x82>
      __HAL_RCC_HSE_CONFIG(RCC_OscInitStruct->HSEState);
 800112c:	f5b3 2fa0 	cmp.w	r3, #327680	@ 0x50000
 8001130:	6823      	ldr	r3, [r4, #0]
 8001132:	d103      	bne.n	800113c <HAL_RCC_OscConfig+0xc4>
 8001134:	f443 2380 	orr.w	r3, r3, #262144	@ 0x40000
 8001138:	6023      	str	r3, [r4, #0]
 800113a:	e7cf      	b.n	80010dc <HAL_RCC_OscConfig+0x64>
 800113c:	f423 3380 	bic.w	r3, r3, #65536	@ 0x10000
 8001140:	6023      	str	r3, [r4, #0]
 8001142:	6823      	ldr	r3, [r4, #0]
 8001144:	f423 2380 	bic.w	r3, r3, #262144	@ 0x40000
 8001148:	e7cb      	b.n	80010e2 <HAL_RCC_OscConfig+0x6a>
    if ((__HAL_RCC_GET_SYSCLK_SOURCE() == RCC_SYSCLKSOURCE_STATUS_HSI)
 800114a:	4c68      	ldr	r4, [pc, #416]	@ (80012ec <HAL_RCC_OscConfig+0x274>)
 800114c:	6863      	ldr	r3, [r4, #4]
 800114e:	f013 0f0c 	tst.w	r3, #12
 8001152:	d007      	beq.n	8001164 <HAL_RCC_OscConfig+0xec>
        || ((__HAL_RCC_GET_SYSCLK_SOURCE() == RCC_SYSCLKSOURCE_STATUS_PLLCLK) && (__HAL_RCC_GET_PLL_OSCSOURCE() == RCC_PLLSOURCE_HSI_DIV2)))
 8001154:	6863      	ldr	r3, [r4, #4]
 8001156:	f003 030c 	and.w	r3, r3, #12
 800115a:	2b08      	cmp	r3, #8
 800115c:	d110      	bne.n	8001180 <HAL_RCC_OscConfig+0x108>
 800115e:	6863      	ldr	r3, [r4, #4]
 8001160:	03da      	lsls	r2, r3, #15
 8001162:	d40d      	bmi.n	8001180 <HAL_RCC_OscConfig+0x108>
      if ((__HAL_RCC_GET_FLAG(RCC_FLAG_HSIRDY) != RESET) && (RCC_OscInitStruct->HSIState != RCC_HSI_ON))
 8001164:	6823      	ldr	r3, [r4, #0]
 8001166:	079b      	lsls	r3, r3, #30
 8001168:	d502      	bpl.n	8001170 <HAL_RCC_OscConfig+0xf8>
 800116a:	692b      	ldr	r3, [r5, #16]
 800116c:	2b01      	cmp	r3, #1
 800116e:	d1af      	bne.n	80010d0 <HAL_RCC_OscConfig+0x58>
        __HAL_RCC_HSI_CALIBRATIONVALUE_ADJUST(RCC_OscInitStruct->HSICalibrationValue);
 8001170:	6823      	ldr	r3, [r4, #0]
 8001172:	696a      	ldr	r2, [r5, #20]
 8001174:	f023 03f8 	bic.w	r3, r3, #248	@ 0xf8
 8001178:	ea43 03c2 	orr.w	r3, r3, r2, lsl #3
 800117c:	6023      	str	r3, [r4, #0]
 800117e:	e785      	b.n	800108c <HAL_RCC_OscConfig+0x14>
      if (RCC_OscInitStruct->HSIState != RCC_HSI_OFF)
 8001180:	692a      	ldr	r2, [r5, #16]
 8001182:	4b5b      	ldr	r3, [pc, #364]	@ (80012f0 <HAL_RCC_OscConfig+0x278>)
 8001184:	b16a      	cbz	r2, 80011a2 <HAL_RCC_OscConfig+0x12a>
        __HAL_RCC_HSI_ENABLE();
 8001186:	2201      	movs	r2, #1
 8001188:	601a      	str	r2, [r3, #0]
        tickstart = HAL_GetTick();
 800118a:	f7ff fc09 	bl	80009a0 <HAL_GetTick>
 800118e:	4606      	mov	r6, r0
        while (__HAL_RCC_GET_FLAG(RCC_FLAG_HSIRDY) == RESET)
 8001190:	6823      	ldr	r3, [r4, #0]
 8001192:	079f      	lsls	r7, r3, #30
 8001194:	d4ec      	bmi.n	8001170 <HAL_RCC_OscConfig+0xf8>
          if ((HAL_GetTick() - tickstart) > HSI_TIMEOUT_VALUE)
 8001196:	f7ff fc03 	bl	80009a0 <HAL_GetTick>
 800119a:	1b80      	subs	r0, r0, r6
 800119c:	2802      	cmp	r0, #2
 800119e:	d9f7      	bls.n	8001190 <HAL_RCC_OscConfig+0x118>
 80011a0:	e7ab      	b.n	80010fa <HAL_RCC_OscConfig+0x82>
        __HAL_RCC_HSI_DISABLE();
 80011a2:	601a      	str	r2, [r3, #0]
        tickstart = HAL_GetTick();
 80011a4:	f7ff fbfc 	bl	80009a0 <HAL_GetTick>
 80011a8:	4606      	mov	r6, r0
        while (__HAL_RCC_GET_FLAG(RCC_FLAG_HSIRDY) != RESET)
 80011aa:	6823      	ldr	r3, [r4, #0]
 80011ac:	0798      	lsls	r0, r3, #30
 80011ae:	f57f af6d 	bpl.w	800108c <HAL_RCC_OscConfig+0x14>
          if ((HAL_GetTick() - tickstart) > HSI_TIMEOUT_VALUE)
 80011b2:	f7ff fbf5 	bl	80009a0 <HAL_GetTick>
 80011b6:	1b80      	subs	r0, r0, r6
 80011b8:	2802      	cmp	r0, #2
 80011ba:	d9f6      	bls.n	80011aa <HAL_RCC_OscConfig+0x132>
 80011bc:	e79d      	b.n	80010fa <HAL_RCC_OscConfig+0x82>
    if (RCC_OscInitStruct->LSIState != RCC_LSI_OFF)
 80011be:	69aa      	ldr	r2, [r5, #24]
 80011c0:	4e4a      	ldr	r6, [pc, #296]	@ (80012ec <HAL_RCC_OscConfig+0x274>)
 80011c2:	4b4b      	ldr	r3, [pc, #300]	@ (80012f0 <HAL_RCC_OscConfig+0x278>)
 80011c4:	b1e2      	cbz	r2, 8001200 <HAL_RCC_OscConfig+0x188>
      __HAL_RCC_LSI_ENABLE();
 80011c6:	2201      	movs	r2, #1
 80011c8:	f8c3 2480 	str.w	r2, [r3, #1152]	@ 0x480
      tickstart = HAL_GetTick();
 80011cc:	f7ff fbe8 	bl	80009a0 <HAL_GetTick>
 80011d0:	4604      	mov	r4, r0
      while (__HAL_RCC_GET_FLAG(RCC_FLAG_LSIRDY) == RESET)
 80011d2:	6a73      	ldr	r3, [r6, #36]	@ 0x24
 80011d4:	079b      	lsls	r3, r3, #30
 80011d6:	d50d      	bpl.n	80011f4 <HAL_RCC_OscConfig+0x17c>
  * @param  mdelay: specifies the delay time length, in milliseconds.
  * @retval None
  */
static void RCC_Delay(uint32_t mdelay)
{
  __IO uint32_t Delay = mdelay * (SystemCoreClock / 8U / 1000U);
 80011d8:	f44f 52fa 	mov.w	r2, #8000	@ 0x1f40
 80011dc:	4b45      	ldr	r3, [pc, #276]	@ (80012f4 <HAL_RCC_OscConfig+0x27c>)
 80011de:	681b      	ldr	r3, [r3, #0]
 80011e0:	fbb3 f3f2 	udiv	r3, r3, r2
 80011e4:	9301      	str	r3, [sp, #4]
  do
  {
    __NOP();
 80011e6:	bf00      	nop
  }
  while (Delay --);
 80011e8:	9b01      	ldr	r3, [sp, #4]
 80011ea:	1e5a      	subs	r2, r3, #1
 80011ec:	9201      	str	r2, [sp, #4]
 80011ee:	2b00      	cmp	r3, #0
 80011f0:	d1f9      	bne.n	80011e6 <HAL_RCC_OscConfig+0x16e>
 80011f2:	e74f      	b.n	8001094 <HAL_RCC_OscConfig+0x1c>
        if ((HAL_GetTick() - tickstart) > LSI_TIMEOUT_VALUE)
 80011f4:	f7ff fbd4 	bl	80009a0 <HAL_GetTick>
 80011f8:	1b00      	subs	r0, r0, r4
 80011fa:	2802      	cmp	r0, #2
 80011fc:	d9e9      	bls.n	80011d2 <HAL_RCC_OscConfig+0x15a>
 80011fe:	e77c      	b.n	80010fa <HAL_RCC_OscConfig+0x82>
      __HAL_RCC_LSI_DISABLE();
 8001200:	f8c3 2480 	str.w	r2, [r3, #1152]	@ 0x480
      tickstart = HAL_GetTick();
 8001204:	f7ff fbcc 	bl	80009a0 <HAL_GetTick>
 8001208:	4604      	mov	r4, r0
      while (__HAL_RCC_GET_FLAG(RCC_FLAG_LSIRDY) != RESET)
 800120a:	6a73      	ldr	r3, [r6, #36]	@ 0x24
 800120c:	079f      	lsls	r7, r3, #30
 800120e:	f57f af41 	bpl.w	8001094 <HAL_RCC_OscConfig+0x1c>
        if ((HAL_GetTick() - tickstart) > LSI_TIMEOUT_VALUE)
 8001212:	f7ff fbc5 	bl	80009a0 <HAL_GetTick>
 8001216:	1b00      	subs	r0, r0, r4
 8001218:	2802      	cmp	r0, #2
 800121a:	d9f6      	bls.n	800120a <HAL_RCC_OscConfig+0x192>
 800121c:	e76d      	b.n	80010fa <HAL_RCC_OscConfig+0x82>
    if (__HAL_RCC_PWR_IS_CLK_DISABLED())
 800121e:	4c33      	ldr	r4, [pc, #204]	@ (80012ec <HAL_RCC_OscConfig+0x274>)
 8001220:	69e3      	ldr	r3, [r4, #28]
 8001222:	00d8      	lsls	r0, r3, #3
 8001224:	d424      	bmi.n	8001270 <HAL_RCC_OscConfig+0x1f8>
      pwrclkchanged = SET;
 8001226:	2701      	movs	r7, #1
      __HAL_RCC_PWR_CLK_ENABLE();
 8001228:	69e3      	ldr	r3, [r4, #28]
 800122a:	f043 5380 	orr.w	r3, r3, #268435456	@ 0x10000000
 800122e:	61e3      	str	r3, [r4, #28]
 8001230:	69e3      	ldr	r3, [r4, #28]
 8001232:	f003 5380 	and.w	r3, r3, #268435456	@ 0x10000000
 8001236:	9300      	str	r3, [sp, #0]
 8001238:	9b00      	ldr	r3, [sp, #0]
    if (HAL_IS_BIT_CLR(PWR->CR, PWR_CR_DBP))
 800123a:	4e2f      	ldr	r6, [pc, #188]	@ (80012f8 <HAL_RCC_OscConfig+0x280>)
 800123c:	6833      	ldr	r3, [r6, #0]
 800123e:	05d9      	lsls	r1, r3, #23
 8001240:	d518      	bpl.n	8001274 <HAL_RCC_OscConfig+0x1fc>
    __HAL_RCC_LSE_CONFIG(RCC_OscInitStruct->LSEState);
 8001242:	68eb      	ldr	r3, [r5, #12]
 8001244:	2b01      	cmp	r3, #1
 8001246:	d126      	bne.n	8001296 <HAL_RCC_OscConfig+0x21e>
 8001248:	6a23      	ldr	r3, [r4, #32]
 800124a:	f043 0301 	orr.w	r3, r3, #1
 800124e:	6223      	str	r3, [r4, #32]
      tickstart = HAL_GetTick();
 8001250:	f7ff fba6 	bl	80009a0 <HAL_GetTick>
        if ((HAL_GetTick() - tickstart) > RCC_LSE_TIMEOUT_VALUE)
 8001254:	f241 3888 	movw	r8, #5000	@ 0x1388
      tickstart = HAL_GetTick();
 8001258:	4606      	mov	r6, r0
      while (__HAL_RCC_GET_FLAG(RCC_FLAG_LSERDY) == RESET)
 800125a:	6a23      	ldr	r3, [r4, #32]
 800125c:	079b      	lsls	r3, r3, #30
 800125e:	d53f      	bpl.n	80012e0 <HAL_RCC_OscConfig+0x268>
    if (pwrclkchanged == SET)
 8001260:	2f00      	cmp	r7, #0
 8001262:	f43f af1b 	beq.w	800109c <HAL_RCC_OscConfig+0x24>
      __HAL_RCC_PWR_CLK_DISABLE();
 8001266:	69e3      	ldr	r3, [r4, #28]
 8001268:	f023 5380 	bic.w	r3, r3, #268435456	@ 0x10000000
 800126c:	61e3      	str	r3, [r4, #28]
 800126e:	e715      	b.n	800109c <HAL_RCC_OscConfig+0x24>
    FlagStatus       pwrclkchanged = RESET;
 8001270:	2700      	movs	r7, #0
 8001272:	e7e2      	b.n	800123a <HAL_RCC_OscConfig+0x1c2>
      SET_BIT(PWR->CR, PWR_CR_DBP);
 8001274:	6833      	ldr	r3, [r6, #0]
 8001276:	f443 7380 	orr.w	r3, r3, #256	@ 0x100
 800127a:	6033      	str	r3, [r6, #0]
      tickstart = HAL_GetTick();
 800127c:	f7ff fb90 	bl	80009a0 <HAL_GetTick>
 8001280:	4680      	mov	r8, r0
      while (HAL_IS_BIT_CLR(PWR->CR, PWR_CR_DBP))
 8001282:	6833      	ldr	r3, [r6, #0]
 8001284:	05da      	lsls	r2, r3, #23
 8001286:	d4dc      	bmi.n	8001242 <HAL_RCC_OscConfig+0x1ca>
        if ((HAL_GetTick() - tickstart) > RCC_DBP_TIMEOUT_VALUE)
 8001288:	f7ff fb8a 	bl	80009a0 <HAL_GetTick>
 800128c:	eba0 0008 	sub.w	r0, r0, r8
 8001290:	2864      	cmp	r0, #100	@ 0x64
 8001292:	d9f6      	bls.n	8001282 <HAL_RCC_OscConfig+0x20a>
 8001294:	e731      	b.n	80010fa <HAL_RCC_OscConfig+0x82>
    __HAL_RCC_LSE_CONFIG(RCC_OscInitStruct->LSEState);
 8001296:	b9ab      	cbnz	r3, 80012c4 <HAL_RCC_OscConfig+0x24c>
 8001298:	6a23      	ldr	r3, [r4, #32]
        if ((HAL_GetTick() - tickstart) > RCC_LSE_TIMEOUT_VALUE)
 800129a:	f241 3888 	movw	r8, #5000	@ 0x1388
    __HAL_RCC_LSE_CONFIG(RCC_OscInitStruct->LSEState);
 800129e:	f023 0301 	bic.w	r3, r3, #1
 80012a2:	6223      	str	r3, [r4, #32]
 80012a4:	6a23      	ldr	r3, [r4, #32]
 80012a6:	f023 0304 	bic.w	r3, r3, #4
 80012aa:	6223      	str	r3, [r4, #32]
      tickstart = HAL_GetTick();
 80012ac:	f7ff fb78 	bl	80009a0 <HAL_GetTick>
 80012b0:	4606      	mov	r6, r0
      while (__HAL_RCC_GET_FLAG(RCC_FLAG_LSERDY) != RESET)
 80012b2:	6a23      	ldr	r3, [r4, #32]
 80012b4:	0798      	lsls	r0, r3, #30
 80012b6:	d5d3      	bpl.n	8001260 <HAL_RCC_OscConfig+0x1e8>
        if ((HAL_GetTick() - tickstart) > RCC_LSE_TIMEOUT_VALUE)
 80012b8:	f7ff fb72 	bl	80009a0 <HAL_GetTick>
 80012bc:	1b80      	subs	r0, r0, r6
 80012be:	4540      	cmp	r0, r8
 80012c0:	d9f7      	bls.n	80012b2 <HAL_RCC_OscConfig+0x23a>
 80012c2:	e71a      	b.n	80010fa <HAL_RCC_OscConfig+0x82>
    __HAL_RCC_LSE_CONFIG(RCC_OscInitStruct->LSEState);
 80012c4:	2b05      	cmp	r3, #5
 80012c6:	6a23      	ldr	r3, [r4, #32]
 80012c8:	d103      	bne.n	80012d2 <HAL_RCC_OscConfig+0x25a>
 80012ca:	f043 0304 	orr.w	r3, r3, #4
 80012ce:	6223      	str	r3, [r4, #32]
 80012d0:	e7ba      	b.n	8001248 <HAL_RCC_OscConfig+0x1d0>
 80012d2:	f023 0301 	bic.w	r3, r3, #1
 80012d6:	6223      	str	r3, [r4, #32]
 80012d8:	6a23      	ldr	r3, [r4, #32]
 80012da:	f023 0304 	bic.w	r3, r3, #4
 80012de:	e7b6      	b.n	800124e <HAL_RCC_OscConfig+0x1d6>
        if ((HAL_GetTick() - tickstart) > RCC_LSE_TIMEOUT_VALUE)
 80012e0:	f7ff fb5e 	bl	80009a0 <HAL_GetTick>
 80012e4:	1b80      	subs	r0, r0, r6
 80012e6:	4540      	cmp	r0, r8
 80012e8:	d9b7      	bls.n	800125a <HAL_RCC_OscConfig+0x1e2>
 80012ea:	e706      	b.n	80010fa <HAL_RCC_OscConfig+0x82>
 80012ec:	40021000 	.word	0x40021000
 80012f0:	42420000 	.word	0x42420000
 80012f4:	20000004 	.word	0x20000004
 80012f8:	40007000 	.word	0x40007000
    if (__HAL_RCC_GET_SYSCLK_SOURCE() != RCC_SYSCLKSOURCE_STATUS_PLLCLK)
 80012fc:	4c2a      	ldr	r4, [pc, #168]	@ (80013a8 <HAL_RCC_OscConfig+0x330>)
 80012fe:	6862      	ldr	r2, [r4, #4]
 8001300:	f002 020c 	and.w	r2, r2, #12
 8001304:	2a08      	cmp	r2, #8
 8001306:	d03e      	beq.n	8001386 <HAL_RCC_OscConfig+0x30e>
      if ((RCC_OscInitStruct->PLL.PLLState) == RCC_PLL_ON)
 8001308:	2200      	movs	r2, #0
 800130a:	2b02      	cmp	r3, #2
 800130c:	4b27      	ldr	r3, [pc, #156]	@ (80013ac <HAL_RCC_OscConfig+0x334>)
        __HAL_RCC_PLL_DISABLE();
 800130e:	661a      	str	r2, [r3, #96]	@ 0x60
      if ((RCC_OscInitStruct->PLL.PLLState) == RCC_PLL_ON)
 8001310:	d12c      	bne.n	800136c <HAL_RCC_OscConfig+0x2f4>
        tickstart = HAL_GetTick();
 8001312:	f7ff fb45 	bl	80009a0 <HAL_GetTick>
 8001316:	4606      	mov	r6, r0
        while (__HAL_RCC_GET_FLAG(RCC_FLAG_PLLRDY)  != RESET)
 8001318:	6823      	ldr	r3, [r4, #0]
 800131a:	0199      	lsls	r1, r3, #6
 800131c:	d420      	bmi.n	8001360 <HAL_RCC_OscConfig+0x2e8>
        if (RCC_OscInitStruct->PLL.PLLSource == RCC_PLLSOURCE_HSE)
 800131e:	6a2b      	ldr	r3, [r5, #32]
 8001320:	f5b3 3f80 	cmp.w	r3, #65536	@ 0x10000
 8001324:	d105      	bne.n	8001332 <HAL_RCC_OscConfig+0x2ba>
          __HAL_RCC_HSE_PREDIV_CONFIG(RCC_OscInitStruct->HSEPredivValue);
 8001326:	6862      	ldr	r2, [r4, #4]
 8001328:	68a9      	ldr	r1, [r5, #8]
 800132a:	f422 3200 	bic.w	r2, r2, #131072	@ 0x20000
 800132e:	430a      	orrs	r2, r1
 8001330:	6062      	str	r2, [r4, #4]
        __HAL_RCC_PLL_CONFIG(RCC_OscInitStruct->PLL.PLLSource,
 8001332:	6a69      	ldr	r1, [r5, #36]	@ 0x24
 8001334:	6862      	ldr	r2, [r4, #4]
 8001336:	430b      	orrs	r3, r1
 8001338:	f422 1274 	bic.w	r2, r2, #3997696	@ 0x3d0000
 800133c:	4313      	orrs	r3, r2
        __HAL_RCC_PLL_ENABLE();
 800133e:	2201      	movs	r2, #1
        __HAL_RCC_PLL_CONFIG(RCC_OscInitStruct->PLL.PLLSource,
 8001340:	6063      	str	r3, [r4, #4]
        __HAL_RCC_PLL_ENABLE();
 8001342:	4b1a      	ldr	r3, [pc, #104]	@ (80013ac <HAL_RCC_OscConfig+0x334>)
 8001344:	661a      	str	r2, [r3, #96]	@ 0x60
        tickstart = HAL_GetTick();
 8001346:	f7ff fb2b 	bl	80009a0 <HAL_GetTick>
 800134a:	4605      	mov	r5, r0
        while (__HAL_RCC_GET_FLAG(RCC_FLAG_PLLRDY)  == RESET)
 800134c:	6823      	ldr	r3, [r4, #0]
 800134e:	019a      	lsls	r2, r3, #6
 8001350:	f53f aea8 	bmi.w	80010a4 <HAL_RCC_OscConfig+0x2c>
          if ((HAL_GetTick() - tickstart) > PLL_TIMEOUT_VALUE)
 8001354:	f7ff fb24 	bl	80009a0 <HAL_GetTick>
 8001358:	1b40      	subs	r0, r0, r5
 800135a:	2802      	cmp	r0, #2
 800135c:	d9f6      	bls.n	800134c <HAL_RCC_OscConfig+0x2d4>
 800135e:	e6cc      	b.n	80010fa <HAL_RCC_OscConfig+0x82>
          if ((HAL_GetTick() - tickstart) > PLL_TIMEOUT_VALUE)
 8001360:	f7ff fb1e 	bl	80009a0 <HAL_GetTick>
 8001364:	1b80      	subs	r0, r0, r6
 8001366:	2802      	cmp	r0, #2
 8001368:	d9d6      	bls.n	8001318 <HAL_RCC_OscConfig+0x2a0>
 800136a:	e6c6      	b.n	80010fa <HAL_RCC_OscConfig+0x82>
        tickstart = HAL_GetTick();
 800136c:	f7ff fb18 	bl	80009a0 <HAL_GetTick>
 8001370:	4605      	mov	r5, r0
        while (__HAL_RCC_GET_FLAG(RCC_FLAG_PLLRDY)  != RESET)
 8001372:	6823      	ldr	r3, [r4, #0]
 8001374:	019b      	lsls	r3, r3, #6
 8001376:	f57f ae95 	bpl.w	80010a4 <HAL_RCC_OscConfig+0x2c>
          if ((HAL_GetTick() - tickstart) > PLL_TIMEOUT_VALUE)
 800137a:	f7ff fb11 	bl	80009a0 <HAL_GetTick>
 800137e:	1b40      	subs	r0, r0, r5
 8001380:	2802      	cmp	r0, #2
 8001382:	d9f6      	bls.n	8001372 <HAL_RCC_OscConfig+0x2fa>
 8001384:	e6b9      	b.n	80010fa <HAL_RCC_OscConfig+0x82>
      if ((RCC_OscInitStruct->PLL.PLLState) == RCC_PLL_OFF)
 8001386:	2b01      	cmp	r3, #1
 8001388:	f43f aea2 	beq.w	80010d0 <HAL_RCC_OscConfig+0x58>
        pll_config = RCC->CFGR;
 800138c:	6860      	ldr	r0, [r4, #4]
        if ((READ_BIT(pll_config, RCC_CFGR_PLLSRC) != RCC_OscInitStruct->PLL.PLLSource) ||
 800138e:	6a2b      	ldr	r3, [r5, #32]
 8001390:	f400 3280 	and.w	r2, r0, #65536	@ 0x10000
 8001394:	429a      	cmp	r2, r3
 8001396:	f47f ae9b 	bne.w	80010d0 <HAL_RCC_OscConfig+0x58>
 800139a:	6a6b      	ldr	r3, [r5, #36]	@ 0x24
            (READ_BIT(pll_config, RCC_CFGR_PLLMULL) != RCC_OscInitStruct->PLL.PLLMUL))
 800139c:	f400 1070 	and.w	r0, r0, #3932160	@ 0x3c0000
        if ((READ_BIT(pll_config, RCC_CFGR_PLLSRC) != RCC_OscInitStruct->PLL.PLLSource) ||
 80013a0:	1ac0      	subs	r0, r0, r3
 80013a2:	bf18      	it	ne
 80013a4:	2001      	movne	r0, #1
 80013a6:	e6a9      	b.n	80010fc <HAL_RCC_OscConfig+0x84>
 80013a8:	40021000 	.word	0x40021000
 80013ac:	42420000 	.word	0x42420000

080013b0 <HAL_RCC_GetSysClockFreq>:
  tmpreg = RCC->CFGR;
 80013b0:	4a0d      	ldr	r2, [pc, #52]	@ (80013e8 <HAL_RCC_GetSysClockFreq+0x38>)
 80013b2:	6853      	ldr	r3, [r2, #4]
  switch (tmpreg & RCC_CFGR_SWS)
 80013b4:	f003 010c 	and.w	r1, r3, #12
 80013b8:	2908      	cmp	r1, #8
 80013ba:	d112      	bne.n	80013e2 <HAL_RCC_GetSysClockFreq+0x32>
      pllmul = aPLLMULFactorTable[(uint32_t)(tmpreg & RCC_CFGR_PLLMULL) >> RCC_CFGR_PLLMULL_Pos];
 80013bc:	480b      	ldr	r0, [pc, #44]	@ (80013ec <HAL_RCC_GetSysClockFreq+0x3c>)
 80013be:	f3c3 4183 	ubfx	r1, r3, #18, #4
      if ((tmpreg & RCC_CFGR_PLLSRC) != RCC_PLLSOURCE_HSI_DIV2)
 80013c2:	03db      	lsls	r3, r3, #15
      pllmul = aPLLMULFactorTable[(uint32_t)(tmpreg & RCC_CFGR_PLLMULL) >> RCC_CFGR_PLLMULL_Pos];
 80013c4:	5c40      	ldrb	r0, [r0, r1]
      if ((tmpreg & RCC_CFGR_PLLSRC) != RCC_PLLSOURCE_HSI_DIV2)
 80013c6:	d509      	bpl.n	80013dc <HAL_RCC_GetSysClockFreq+0x2c>
        prediv = aPredivFactorTable[(uint32_t)(RCC->CFGR & RCC_CFGR_PLLXTPRE) >> RCC_CFGR_PLLXTPRE_Pos];
 80013c8:	6853      	ldr	r3, [r2, #4]
        pllclk = (uint32_t)((HSE_VALUE  * pllmul) / prediv);
 80013ca:	4a09      	ldr	r2, [pc, #36]	@ (80013f0 <HAL_RCC_GetSysClockFreq+0x40>)
        prediv = aPredivFactorTable[(uint32_t)(RCC->CFGR & RCC_CFGR_PLLXTPRE) >> RCC_CFGR_PLLXTPRE_Pos];
 80013cc:	f3c3 4340 	ubfx	r3, r3, #17, #1
        pllclk = (uint32_t)((HSE_VALUE  * pllmul) / prediv);
 80013d0:	4350      	muls	r0, r2
        prediv = aPredivFactorTable[(uint32_t)(RCC->CFGR & RCC_CFGR_PLLXTPRE) >> RCC_CFGR_PLLXTPRE_Pos];
 80013d2:	4a08      	ldr	r2, [pc, #32]	@ (80013f4 <HAL_RCC_GetSysClockFreq+0x44>)
 80013d4:	5cd3      	ldrb	r3, [r2, r3]
        pllclk = (uint32_t)((HSE_VALUE  * pllmul) / prediv);
 80013d6:	fbb0 f0f3 	udiv	r0, r0, r3
 80013da:	4770      	bx	lr
        pllclk = (uint32_t)((HSI_VALUE >> 1) * pllmul);
 80013dc:	4b06      	ldr	r3, [pc, #24]	@ (80013f8 <HAL_RCC_GetSysClockFreq+0x48>)
 80013de:	4358      	muls	r0, r3
 80013e0:	4770      	bx	lr
      sysclockfreq = HSE_VALUE;
 80013e2:	4803      	ldr	r0, [pc, #12]	@ (80013f0 <HAL_RCC_GetSysClockFreq+0x40>)
}
 80013e4:	4770      	bx	lr
 80013e6:	bf00      	nop
 80013e8:	40021000 	.word	0x40021000
 80013ec:	0800250f 	.word	0x0800250f
 80013f0:	007a1200 	.word	0x007a1200
 80013f4:	0800250d 	.word	0x0800250d
 80013f8:	003d0900 	.word	0x003d0900

080013fc <HAL_RCC_ClockConfig>:
{
 80013fc:	e92d 41f0 	stmdb	sp!, {r4, r5, r6, r7, r8, lr}
 8001400:	460d      	mov	r5, r1
  if (RCC_ClkInitStruct == NULL)
 8001402:	4604      	mov	r4, r0
 8001404:	b910      	cbnz	r0, 800140c <HAL_RCC_ClockConfig+0x10>
    return HAL_ERROR;
 8001406:	2001      	movs	r0, #1
}
 8001408:	e8bd 81f0 	ldmia.w	sp!, {r4, r5, r6, r7, r8, pc}
  if (FLatency > __HAL_FLASH_GET_LATENCY())
 800140c:	4a44      	ldr	r2, [pc, #272]	@ (8001520 <HAL_RCC_ClockConfig+0x124>)
 800140e:	6813      	ldr	r3, [r2, #0]
 8001410:	f003 0307 	and.w	r3, r3, #7
 8001414:	428b      	cmp	r3, r1
 8001416:	d328      	bcc.n	800146a <HAL_RCC_ClockConfig+0x6e>
if (((RCC_ClkInitStruct->ClockType) & RCC_CLOCKTYPE_HCLK) == RCC_CLOCKTYPE_HCLK)
 8001418:	6821      	ldr	r1, [r4, #0]
 800141a:	078e      	lsls	r6, r1, #30
 800141c:	d430      	bmi.n	8001480 <HAL_RCC_ClockConfig+0x84>
  if (((RCC_ClkInitStruct->ClockType) & RCC_CLOCKTYPE_SYSCLK) == RCC_CLOCKTYPE_SYSCLK)
 800141e:	07ca      	lsls	r2, r1, #31
 8001420:	d443      	bmi.n	80014aa <HAL_RCC_ClockConfig+0xae>
  if (FLatency < __HAL_FLASH_GET_LATENCY())
 8001422:	4a3f      	ldr	r2, [pc, #252]	@ (8001520 <HAL_RCC_ClockConfig+0x124>)
 8001424:	6813      	ldr	r3, [r2, #0]
 8001426:	f003 0307 	and.w	r3, r3, #7
 800142a:	42ab      	cmp	r3, r5
 800142c:	d865      	bhi.n	80014fa <HAL_RCC_ClockConfig+0xfe>
if (((RCC_ClkInitStruct->ClockType) & RCC_CLOCKTYPE_PCLK1) == RCC_CLOCKTYPE_PCLK1)
 800142e:	6822      	ldr	r2, [r4, #0]
 8001430:	4d3c      	ldr	r5, [pc, #240]	@ (8001524 <HAL_RCC_ClockConfig+0x128>)
 8001432:	f012 0f04 	tst.w	r2, #4
 8001436:	d16c      	bne.n	8001512 <HAL_RCC_ClockConfig+0x116>
  if (((RCC_ClkInitStruct->ClockType) & RCC_CLOCKTYPE_PCLK2) == RCC_CLOCKTYPE_PCLK2)
 8001438:	0713      	lsls	r3, r2, #28
 800143a:	d506      	bpl.n	800144a <HAL_RCC_ClockConfig+0x4e>
    MODIFY_REG(RCC->CFGR, RCC_CFGR_PPRE2, ((RCC_ClkInitStruct->APB2CLKDivider) << 3));
 800143c:	686b      	ldr	r3, [r5, #4]
 800143e:	6922      	ldr	r2, [r4, #16]
 8001440:	f423 5360 	bic.w	r3, r3, #14336	@ 0x3800
 8001444:	ea43 03c2 	orr.w	r3, r3, r2, lsl #3
 8001448:	606b      	str	r3, [r5, #4]
  SystemCoreClock = HAL_RCC_GetSysClockFreq() >> AHBPrescTable[(RCC->CFGR & RCC_CFGR_HPRE) >> RCC_CFGR_HPRE_Pos];
 800144a:	f7ff ffb1 	bl	80013b0 <HAL_RCC_GetSysClockFreq>
 800144e:	686b      	ldr	r3, [r5, #4]
 8001450:	4a35      	ldr	r2, [pc, #212]	@ (8001528 <HAL_RCC_ClockConfig+0x12c>)
 8001452:	f3c3 1303 	ubfx	r3, r3, #4, #4
 8001456:	5cd3      	ldrb	r3, [r2, r3]
 8001458:	40d8      	lsrs	r0, r3
 800145a:	4b34      	ldr	r3, [pc, #208]	@ (800152c <HAL_RCC_ClockConfig+0x130>)
 800145c:	6018      	str	r0, [r3, #0]
  HAL_InitTick(uwTickPrio);
 800145e:	4b34      	ldr	r3, [pc, #208]	@ (8001530 <HAL_RCC_ClockConfig+0x134>)
 8001460:	6818      	ldr	r0, [r3, #0]
 8001462:	f7ff fa5b 	bl	800091c <HAL_InitTick>
  return HAL_OK;
 8001466:	2000      	movs	r0, #0
 8001468:	e7ce      	b.n	8001408 <HAL_RCC_ClockConfig+0xc>
    __HAL_FLASH_SET_LATENCY(FLatency);
 800146a:	6813      	ldr	r3, [r2, #0]
 800146c:	f023 0307 	bic.w	r3, r3, #7
 8001470:	430b      	orrs	r3, r1
 8001472:	6013      	str	r3, [r2, #0]
    if (__HAL_FLASH_GET_LATENCY() != FLatency)
 8001474:	6813      	ldr	r3, [r2, #0]
 8001476:	f003 0307 	and.w	r3, r3, #7
 800147a:	428b      	cmp	r3, r1
 800147c:	d1c3      	bne.n	8001406 <HAL_RCC_ClockConfig+0xa>
 800147e:	e7cb      	b.n	8001418 <HAL_RCC_ClockConfig+0x1c>
    if (((RCC_ClkInitStruct->ClockType) & RCC_CLOCKTYPE_PCLK1) == RCC_CLOCKTYPE_PCLK1)
 8001480:	4b28      	ldr	r3, [pc, #160]	@ (8001524 <HAL_RCC_ClockConfig+0x128>)
 8001482:	f011 0f04 	tst.w	r1, #4
      MODIFY_REG(RCC->CFGR, RCC_CFGR_PPRE1, RCC_HCLK_DIV16);
 8001486:	bf1e      	ittt	ne
 8001488:	685a      	ldrne	r2, [r3, #4]
 800148a:	f442 62e0 	orrne.w	r2, r2, #1792	@ 0x700
 800148e:	605a      	strne	r2, [r3, #4]
    if (((RCC_ClkInitStruct->ClockType) & RCC_CLOCKTYPE_PCLK2) == RCC_CLOCKTYPE_PCLK2)
 8001490:	0708      	lsls	r0, r1, #28
      MODIFY_REG(RCC->CFGR, RCC_CFGR_PPRE2, (RCC_HCLK_DIV16 << 3));
 8001492:	bf42      	ittt	mi
 8001494:	685a      	ldrmi	r2, [r3, #4]
 8001496:	f442 5260 	orrmi.w	r2, r2, #14336	@ 0x3800
 800149a:	605a      	strmi	r2, [r3, #4]
    MODIFY_REG(RCC->CFGR, RCC_CFGR_HPRE, RCC_ClkInitStruct->AHBCLKDivider);
 800149c:	685a      	ldr	r2, [r3, #4]
 800149e:	68a0      	ldr	r0, [r4, #8]
 80014a0:	f022 02f0 	bic.w	r2, r2, #240	@ 0xf0
 80014a4:	4302      	orrs	r2, r0
 80014a6:	605a      	str	r2, [r3, #4]
 80014a8:	e7b9      	b.n	800141e <HAL_RCC_ClockConfig+0x22>
    if (RCC_ClkInitStruct->SYSCLKSource == RCC_SYSCLKSOURCE_HSE)
 80014aa:	6862      	ldr	r2, [r4, #4]
 80014ac:	4e1d      	ldr	r6, [pc, #116]	@ (8001524 <HAL_RCC_ClockConfig+0x128>)
 80014ae:	2a01      	cmp	r2, #1
      if (__HAL_RCC_GET_FLAG(RCC_FLAG_HSERDY) == RESET)
 80014b0:	6833      	ldr	r3, [r6, #0]
    if (RCC_ClkInitStruct->SYSCLKSource == RCC_SYSCLKSOURCE_HSE)
 80014b2:	d11a      	bne.n	80014ea <HAL_RCC_ClockConfig+0xee>
      if (__HAL_RCC_GET_FLAG(RCC_FLAG_HSERDY) == RESET)
 80014b4:	f413 3f00 	tst.w	r3, #131072	@ 0x20000
      if (__HAL_RCC_GET_FLAG(RCC_FLAG_HSIRDY) == RESET)
 80014b8:	d0a5      	beq.n	8001406 <HAL_RCC_ClockConfig+0xa>
    __HAL_RCC_SYSCLK_CONFIG(RCC_ClkInitStruct->SYSCLKSource);
 80014ba:	6873      	ldr	r3, [r6, #4]
      if ((HAL_GetTick() - tickstart) > CLOCKSWITCH_TIMEOUT_VALUE)
 80014bc:	f241 3888 	movw	r8, #5000	@ 0x1388
    __HAL_RCC_SYSCLK_CONFIG(RCC_ClkInitStruct->SYSCLKSource);
 80014c0:	f023 0303 	bic.w	r3, r3, #3
 80014c4:	4313      	orrs	r3, r2
 80014c6:	6073      	str	r3, [r6, #4]
    tickstart = HAL_GetTick();
 80014c8:	f7ff fa6a 	bl	80009a0 <HAL_GetTick>
 80014cc:	4607      	mov	r7, r0
    while (__HAL_RCC_GET_SYSCLK_SOURCE() != (RCC_ClkInitStruct->SYSCLKSource << RCC_CFGR_SWS_Pos))
 80014ce:	6873      	ldr	r3, [r6, #4]
 80014d0:	6862      	ldr	r2, [r4, #4]
 80014d2:	f003 030c 	and.w	r3, r3, #12
 80014d6:	ebb3 0f82 	cmp.w	r3, r2, lsl #2
 80014da:	d0a2      	beq.n	8001422 <HAL_RCC_ClockConfig+0x26>
      if ((HAL_GetTick() - tickstart) > CLOCKSWITCH_TIMEOUT_VALUE)
 80014dc:	f7ff fa60 	bl	80009a0 <HAL_GetTick>
 80014e0:	1bc0      	subs	r0, r0, r7
 80014e2:	4540      	cmp	r0, r8
 80014e4:	d9f3      	bls.n	80014ce <HAL_RCC_ClockConfig+0xd2>
        return HAL_TIMEOUT;
 80014e6:	2003      	movs	r0, #3
 80014e8:	e78e      	b.n	8001408 <HAL_RCC_ClockConfig+0xc>
    else if (RCC_ClkInitStruct->SYSCLKSource == RCC_SYSCLKSOURCE_PLLCLK)
 80014ea:	2a02      	cmp	r2, #2
 80014ec:	d102      	bne.n	80014f4 <HAL_RCC_ClockConfig+0xf8>
      if (__HAL_RCC_GET_FLAG(RCC_FLAG_PLLRDY) == RESET)
 80014ee:	f013 7f00 	tst.w	r3, #33554432	@ 0x2000000
 80014f2:	e7e1      	b.n	80014b8 <HAL_RCC_ClockConfig+0xbc>
      if (__HAL_RCC_GET_FLAG(RCC_FLAG_HSIRDY) == RESET)
 80014f4:	f013 0f02 	tst.w	r3, #2
 80014f8:	e7de      	b.n	80014b8 <HAL_RCC_ClockConfig+0xbc>
    __HAL_FLASH_SET_LATENCY(FLatency);
 80014fa:	6813      	ldr	r3, [r2, #0]
 80014fc:	f023 0307 	bic.w	r3, r3, #7
 8001500:	432b      	orrs	r3, r5
 8001502:	6013      	str	r3, [r2, #0]
    if (__HAL_FLASH_GET_LATENCY() != FLatency)
 8001504:	6813      	ldr	r3, [r2, #0]
 8001506:	f003 0307 	and.w	r3, r3, #7
 800150a:	42ab      	cmp	r3, r5
 800150c:	f47f af7b 	bne.w	8001406 <HAL_RCC_ClockConfig+0xa>
 8001510:	e78d      	b.n	800142e <HAL_RCC_ClockConfig+0x32>
    MODIFY_REG(RCC->CFGR, RCC_CFGR_PPRE1, RCC_ClkInitStruct->APB1CLKDivider);
 8001512:	686b      	ldr	r3, [r5, #4]
 8001514:	68e1      	ldr	r1, [r4, #12]
 8001516:	f423 63e0 	bic.w	r3, r3, #1792	@ 0x700
 800151a:	430b      	orrs	r3, r1
 800151c:	606b      	str	r3, [r5, #4]
 800151e:	e78b      	b.n	8001438 <HAL_RCC_ClockConfig+0x3c>
 8001520:	40022000 	.word	0x40022000
 8001524:	40021000 	.word	0x40021000
 8001528:	080024fd 	.word	0x080024fd
 800152c:	20000004 	.word	0x20000004
 8001530:	2000000c 	.word	0x2000000c

08001534 <HAL_RCC_GetPCLK1Freq>:
  return (HAL_RCC_GetHCLKFreq() >> APBPrescTable[(RCC->CFGR & RCC_CFGR_PPRE1) >> RCC_CFGR_PPRE1_Pos]);
 8001534:	4b04      	ldr	r3, [pc, #16]	@ (8001548 <HAL_RCC_GetPCLK1Freq+0x14>)
 8001536:	4a05      	ldr	r2, [pc, #20]	@ (800154c <HAL_RCC_GetPCLK1Freq+0x18>)
 8001538:	685b      	ldr	r3, [r3, #4]
 800153a:	f3c3 2302 	ubfx	r3, r3, #8, #3
 800153e:	5cd3      	ldrb	r3, [r2, r3]
 8001540:	4a03      	ldr	r2, [pc, #12]	@ (8001550 <HAL_RCC_GetPCLK1Freq+0x1c>)
 8001542:	6810      	ldr	r0, [r2, #0]
}
 8001544:	40d8      	lsrs	r0, r3
 8001546:	4770      	bx	lr
 8001548:	40021000 	.word	0x40021000
 800154c:	080024f5 	.word	0x080024f5
 8001550:	20000004 	.word	0x20000004

08001554 <HAL_RCC_GetPCLK2Freq>:
  return (HAL_RCC_GetHCLKFreq() >> APBPrescTable[(RCC->CFGR & RCC_CFGR_PPRE2) >> RCC_CFGR_PPRE2_Pos]);
 8001554:	4b04      	ldr	r3, [pc, #16]	@ (8001568 <HAL_RCC_GetPCLK2Freq+0x14>)
 8001556:	4a05      	ldr	r2, [pc, #20]	@ (800156c <HAL_RCC_GetPCLK2Freq+0x18>)
 8001558:	685b      	ldr	r3, [r3, #4]
 800155a:	f3c3 23c2 	ubfx	r3, r3, #11, #3
 800155e:	5cd3      	ldrb	r3, [r2, r3]
 8001560:	4a03      	ldr	r2, [pc, #12]	@ (8001570 <HAL_RCC_GetPCLK2Freq+0x1c>)
 8001562:	6810      	ldr	r0, [r2, #0]
}
 8001564:	40d8      	lsrs	r0, r3
 8001566:	4770      	bx	lr
 8001568:	40021000 	.word	0x40021000
 800156c:	080024f5 	.word	0x080024f5
 8001570:	20000004 	.word	0x20000004

08001574 <UART_EndRxTransfer>:
  * @retval None
  */
static void UART_EndRxTransfer(UART_HandleTypeDef *huart)
{
  /* Disable RXNE, PE and ERR (Frame error, noise error, overrun error) interrupts */
  ATOMIC_CLEAR_BIT(huart->Instance->CR1, (USART_CR1_RXNEIE | USART_CR1_PEIE));
 8001574:	6802      	ldr	r2, [r0, #0]
 */
__STATIC_FORCEINLINE uint32_t __LDREXW(volatile uint32_t *addr)
{
    uint32_t result;

   __ASM volatile ("ldrex %0, %1" : "=r" (result) : "Q" (*addr) );
 8001576:	f102 030c 	add.w	r3, r2, #12
 800157a:	e853 3f00 	ldrex	r3, [r3]
 800157e:	f423 7390 	bic.w	r3, r3, #288	@ 0x120
 */
__STATIC_FORCEINLINE uint32_t __STREXW(uint32_t value, volatile uint32_t *addr)
{
   uint32_t result;

   __ASM volatile ("strex %0, %2, %1" : "=&r" (result), "=Q" (*addr) : "r" (value) );
 8001582:	320c      	adds	r2, #12
 8001584:	e842 3100 	strex	r1, r3, [r2]
   return(result);
 8001588:	6802      	ldr	r2, [r0, #0]
 800158a:	2900      	cmp	r1, #0
 800158c:	d1f2      	bne.n	8001574 <UART_EndRxTransfer>
   __ASM volatile ("ldrex %0, %1" : "=r" (result) : "Q" (*addr) );
 800158e:	f102 0314 	add.w	r3, r2, #20
 8001592:	e853 3f00 	ldrex	r3, [r3]
  ATOMIC_CLEAR_BIT(huart->Instance->CR3, USART_CR3_EIE);
 8001596:	f023 0301 	bic.w	r3, r3, #1
   __ASM volatile ("strex %0, %2, %1" : "=&r" (result), "=Q" (*addr) : "r" (value) );
 800159a:	f102 0c14 	add.w	ip, r2, #20
 800159e:	e84c 3100 	strex	r1, r3, [ip]
 80015a2:	2900      	cmp	r1, #0
 80015a4:	d1f3      	bne.n	800158e <UART_EndRxTransfer+0x1a>

  /* In case of reception waiting for IDLE event, disable also the IDLE IE interrupt source */
  if (huart->ReceptionType == HAL_UART_RECEPTION_TOIDLE)
 80015a6:	6b03      	ldr	r3, [r0, #48]	@ 0x30
 80015a8:	2b01      	cmp	r3, #1
 80015aa:	d10b      	bne.n	80015c4 <UART_EndRxTransfer+0x50>
   __ASM volatile ("ldrex %0, %1" : "=r" (result) : "Q" (*addr) );
 80015ac:	f102 030c 	add.w	r3, r2, #12
 80015b0:	e853 3f00 	ldrex	r3, [r3]
  {
    ATOMIC_CLEAR_BIT(huart->Instance->CR1, USART_CR1_IDLEIE);
 80015b4:	f023 0310 	bic.w	r3, r3, #16
   __ASM volatile ("strex %0, %2, %1" : "=&r" (result), "=Q" (*addr) : "r" (value) );
 80015b8:	f102 0c0c 	add.w	ip, r2, #12
 80015bc:	e84c 3100 	strex	r1, r3, [ip]
 80015c0:	2900      	cmp	r1, #0
 80015c2:	d1f3      	bne.n	80015ac <UART_EndRxTransfer+0x38>
  }

  /* At end of Rx process, restore huart->RxState to Ready */
  huart->RxState = HAL_UART_STATE_READY;
 80015c4:	2320      	movs	r3, #32
 80015c6:	f880 3042 	strb.w	r3, [r0, #66]	@ 0x42
  huart->ReceptionType = HAL_UART_RECEPTION_STANDARD;
 80015ca:	2300      	movs	r3, #0
 80015cc:	6303      	str	r3, [r0, #48]	@ 0x30
}
 80015ce:	4770      	bx	lr

080015d0 <UART_SetConfig>:
  * @param  huart  Pointer to a UART_HandleTypeDef structure that contains
  *                the configuration information for the specified UART module.
  * @retval None
  */
static void UART_SetConfig(UART_HandleTypeDef *huart)
{
 80015d0:	b510      	push	{r4, lr}
 80015d2:	4604      	mov	r4, r0
  assert_param(IS_UART_MODE(huart->Init.Mode));

  /*-------------------------- USART CR2 Configuration -----------------------*/
  /* Configure the UART Stop Bits: Set STOP[13:12] bits
     according to huart->Init.StopBits value */
  MODIFY_REG(huart->Instance->CR2, USART_CR2_STOP, huart->Init.StopBits);
 80015d4:	6803      	ldr	r3, [r0, #0]
 80015d6:	68c1      	ldr	r1, [r0, #12]
 80015d8:	691a      	ldr	r2, [r3, #16]
 80015da:	f422 5240 	bic.w	r2, r2, #12288	@ 0x3000
 80015de:	430a      	orrs	r2, r1
 80015e0:	611a      	str	r2, [r3, #16]
  tmpreg = (uint32_t)huart->Init.WordLength | huart->Init.Parity | huart->Init.Mode | huart->Init.OverSampling;
  MODIFY_REG(huart->Instance->CR1,
             (uint32_t)(USART_CR1_M | USART_CR1_PCE | USART_CR1_PS | USART_CR1_TE | USART_CR1_RE | USART_CR1_OVER8),
             tmpreg);
#else
  tmpreg = (uint32_t)huart->Init.WordLength | huart->Init.Parity | huart->Init.Mode;
 80015e2:	6882      	ldr	r2, [r0, #8]
 80015e4:	6900      	ldr	r0, [r0, #16]
  MODIFY_REG(huart->Instance->CR1,
 80015e6:	68d9      	ldr	r1, [r3, #12]
  tmpreg = (uint32_t)huart->Init.WordLength | huart->Init.Parity | huart->Init.Mode;
 80015e8:	4302      	orrs	r2, r0
 80015ea:	6960      	ldr	r0, [r4, #20]
  MODIFY_REG(huart->Instance->CR1,
 80015ec:	f421 51b0 	bic.w	r1, r1, #5632	@ 0x1600
 80015f0:	f021 010c 	bic.w	r1, r1, #12
  tmpreg = (uint32_t)huart->Init.WordLength | huart->Init.Parity | huart->Init.Mode;
 80015f4:	4302      	orrs	r2, r0
  MODIFY_REG(huart->Instance->CR1,
 80015f6:	430a      	orrs	r2, r1
 80015f8:	60da      	str	r2, [r3, #12]
             tmpreg);
#endif /* USART_CR1_OVER8 */

  /*-------------------------- USART CR3 Configuration -----------------------*/
  /* Configure the UART HFC: Set CTSE and RTSE bits according to huart->Init.HwFlowCtl value */
  MODIFY_REG(huart->Instance->CR3, (USART_CR3_RTSE | USART_CR3_CTSE), huart->Init.HwFlowCtl);
 80015fa:	695a      	ldr	r2, [r3, #20]
 80015fc:	69a1      	ldr	r1, [r4, #24]
 80015fe:	f422 7240 	bic.w	r2, r2, #768	@ 0x300
 8001602:	430a      	orrs	r2, r1
 8001604:	615a      	str	r2, [r3, #20]


  if(huart->Instance == USART1)
 8001606:	4a0e      	ldr	r2, [pc, #56]	@ (8001640 <UART_SetConfig+0x70>)
 8001608:	4293      	cmp	r3, r2
 800160a:	d115      	bne.n	8001638 <UART_SetConfig+0x68>
  {
    pclk = HAL_RCC_GetPCLK2Freq();
 800160c:	f7ff ffa2 	bl	8001554 <HAL_RCC_GetPCLK2Freq>
  else
  {
    huart->Instance->BRR = UART_BRR_SAMPLING16(pclk, huart->Init.BaudRate);
  }
#else
  huart->Instance->BRR = UART_BRR_SAMPLING16(pclk, huart->Init.BaudRate);
 8001610:	2319      	movs	r3, #25
 8001612:	4343      	muls	r3, r0
 8001614:	6862      	ldr	r2, [r4, #4]
 8001616:	6820      	ldr	r0, [r4, #0]
 8001618:	0092      	lsls	r2, r2, #2
 800161a:	fbb3 f3f2 	udiv	r3, r3, r2
 800161e:	2264      	movs	r2, #100	@ 0x64
 8001620:	fbb3 f1f2 	udiv	r1, r3, r2
 8001624:	fb02 3311 	mls	r3, r2, r1, r3
 8001628:	011b      	lsls	r3, r3, #4
 800162a:	3332      	adds	r3, #50	@ 0x32
 800162c:	fbb3 f3f2 	udiv	r3, r3, r2
 8001630:	eb03 1301 	add.w	r3, r3, r1, lsl #4
 8001634:	6083      	str	r3, [r0, #8]
#endif /* USART_CR1_OVER8 */
}
 8001636:	bd10      	pop	{r4, pc}
    pclk = HAL_RCC_GetPCLK1Freq();
 8001638:	f7ff ff7c 	bl	8001534 <HAL_RCC_GetPCLK1Freq>
 800163c:	e7e8      	b.n	8001610 <UART_SetConfig+0x40>
 800163e:	bf00      	nop
 8001640:	40013800 	.word	0x40013800

08001644 <UART_WaitOnFlagUntilTimeout.constprop.0>:
static HAL_StatusTypeDef UART_WaitOnFlagUntilTimeout(UART_HandleTypeDef *huart, uint32_t Flag, FlagStatus Status,
 8001644:	b5f7      	push	{r0, r1, r2, r4, r5, r6, r7, lr}
 8001646:	4605      	mov	r5, r0
 8001648:	460c      	mov	r4, r1
 800164a:	4617      	mov	r7, r2
 800164c:	461e      	mov	r6, r3
  while ((__HAL_UART_GET_FLAG(huart, Flag) ? SET : RESET) == Status)
 800164e:	682a      	ldr	r2, [r5, #0]
 8001650:	6813      	ldr	r3, [r2, #0]
 8001652:	ea34 0303 	bics.w	r3, r4, r3
 8001656:	d101      	bne.n	800165c <UART_WaitOnFlagUntilTimeout.constprop.0+0x18>
  return HAL_OK;
 8001658:	2000      	movs	r0, #0
 800165a:	e021      	b.n	80016a0 <UART_WaitOnFlagUntilTimeout.constprop.0+0x5c>
    if (Timeout != HAL_MAX_DELAY)
 800165c:	1c70      	adds	r0, r6, #1
 800165e:	d0f7      	beq.n	8001650 <UART_WaitOnFlagUntilTimeout.constprop.0+0xc>
      if (((HAL_GetTick() - Tickstart) > Timeout) || (Timeout == 0U))
 8001660:	f7ff f99e 	bl	80009a0 <HAL_GetTick>
 8001664:	1bc0      	subs	r0, r0, r7
 8001666:	4286      	cmp	r6, r0
 8001668:	d31c      	bcc.n	80016a4 <UART_WaitOnFlagUntilTimeout.constprop.0+0x60>
 800166a:	b1de      	cbz	r6, 80016a4 <UART_WaitOnFlagUntilTimeout.constprop.0+0x60>
      if ((READ_BIT(huart->Instance->CR1, USART_CR1_RE) != 0U) && (Flag != UART_FLAG_TXE) && (Flag != UART_FLAG_TC))
 800166c:	682b      	ldr	r3, [r5, #0]
 800166e:	68da      	ldr	r2, [r3, #12]
 8001670:	0751      	lsls	r1, r2, #29
 8001672:	d5ec      	bpl.n	800164e <UART_WaitOnFlagUntilTimeout.constprop.0+0xa>
 8001674:	2c80      	cmp	r4, #128	@ 0x80
 8001676:	d0ea      	beq.n	800164e <UART_WaitOnFlagUntilTimeout.constprop.0+0xa>
 8001678:	2c40      	cmp	r4, #64	@ 0x40
 800167a:	d0e8      	beq.n	800164e <UART_WaitOnFlagUntilTimeout.constprop.0+0xa>
        if (__HAL_UART_GET_FLAG(huart, UART_FLAG_ORE) == SET)
 800167c:	681a      	ldr	r2, [r3, #0]
 800167e:	0712      	lsls	r2, r2, #28
 8001680:	d5e5      	bpl.n	800164e <UART_WaitOnFlagUntilTimeout.constprop.0+0xa>
          __HAL_UART_CLEAR_OREFLAG(huart);
 8001682:	2400      	movs	r4, #0
 8001684:	9401      	str	r4, [sp, #4]
 8001686:	681a      	ldr	r2, [r3, #0]
          UART_EndRxTransfer(huart);
 8001688:	4628      	mov	r0, r5
          __HAL_UART_CLEAR_OREFLAG(huart);
 800168a:	9201      	str	r2, [sp, #4]
 800168c:	685b      	ldr	r3, [r3, #4]
 800168e:	9301      	str	r3, [sp, #4]
 8001690:	9b01      	ldr	r3, [sp, #4]
          UART_EndRxTransfer(huart);
 8001692:	f7ff ff6f 	bl	8001574 <UART_EndRxTransfer>
          huart->ErrorCode = HAL_UART_ERROR_ORE;
 8001696:	2308      	movs	r3, #8
          return HAL_ERROR;
 8001698:	2001      	movs	r0, #1
          huart->ErrorCode = HAL_UART_ERROR_ORE;
 800169a:	646b      	str	r3, [r5, #68]	@ 0x44
          __HAL_UNLOCK(huart);
 800169c:	f885 4040 	strb.w	r4, [r5, #64]	@ 0x40
}
 80016a0:	b003      	add	sp, #12
 80016a2:	bdf0      	pop	{r4, r5, r6, r7, pc}
        return HAL_TIMEOUT;
 80016a4:	2003      	movs	r0, #3
 80016a6:	e7fb      	b.n	80016a0 <UART_WaitOnFlagUntilTimeout.constprop.0+0x5c>

080016a8 <HAL_UART_Init>:
{
 80016a8:	b510      	push	{r4, lr}
  if (huart == NULL)
 80016aa:	4604      	mov	r4, r0
 80016ac:	b348      	cbz	r0, 8001702 <HAL_UART_Init+0x5a>
  if (huart->gState == HAL_UART_STATE_RESET)
 80016ae:	f890 3041 	ldrb.w	r3, [r0, #65]	@ 0x41
 80016b2:	f003 02ff 	and.w	r2, r3, #255	@ 0xff
 80016b6:	b91b      	cbnz	r3, 80016c0 <HAL_UART_Init+0x18>
    huart->Lock = HAL_UNLOCKED;
 80016b8:	f880 2040 	strb.w	r2, [r0, #64]	@ 0x40
    HAL_UART_MspInit(huart);
 80016bc:	f7ff f854 	bl	8000768 <HAL_UART_MspInit>
  huart->gState = HAL_UART_STATE_BUSY;
 80016c0:	2324      	movs	r3, #36	@ 0x24
  __HAL_UART_DISABLE(huart);
 80016c2:	6822      	ldr	r2, [r4, #0]
  huart->gState = HAL_UART_STATE_BUSY;
 80016c4:	f884 3041 	strb.w	r3, [r4, #65]	@ 0x41
  __HAL_UART_DISABLE(huart);
 80016c8:	68d3      	ldr	r3, [r2, #12]
  UART_SetConfig(huart);
 80016ca:	4620      	mov	r0, r4
  __HAL_UART_DISABLE(huart);
 80016cc:	f423 5300 	bic.w	r3, r3, #8192	@ 0x2000
 80016d0:	60d3      	str	r3, [r2, #12]
  UART_SetConfig(huart);
 80016d2:	f7ff ff7d 	bl	80015d0 <UART_SetConfig>
  CLEAR_BIT(huart->Instance->CR2, (USART_CR2_LINEN | USART_CR2_CLKEN));
 80016d6:	6823      	ldr	r3, [r4, #0]
  huart->ErrorCode = HAL_UART_ERROR_NONE;
 80016d8:	2000      	movs	r0, #0
  CLEAR_BIT(huart->Instance->CR2, (USART_CR2_LINEN | USART_CR2_CLKEN));
 80016da:	691a      	ldr	r2, [r3, #16]
 80016dc:	f422 4290 	bic.w	r2, r2, #18432	@ 0x4800
 80016e0:	611a      	str	r2, [r3, #16]
  CLEAR_BIT(huart->Instance->CR3, (USART_CR3_SCEN | USART_CR3_HDSEL | USART_CR3_IREN));
 80016e2:	695a      	ldr	r2, [r3, #20]
 80016e4:	f022 022a 	bic.w	r2, r2, #42	@ 0x2a
 80016e8:	615a      	str	r2, [r3, #20]
  __HAL_UART_ENABLE(huart);
 80016ea:	68da      	ldr	r2, [r3, #12]
 80016ec:	f442 5200 	orr.w	r2, r2, #8192	@ 0x2000
 80016f0:	60da      	str	r2, [r3, #12]
  huart->gState = HAL_UART_STATE_READY;
 80016f2:	2320      	movs	r3, #32
  huart->ErrorCode = HAL_UART_ERROR_NONE;
 80016f4:	6460      	str	r0, [r4, #68]	@ 0x44
  huart->gState = HAL_UART_STATE_READY;
 80016f6:	f884 3041 	strb.w	r3, [r4, #65]	@ 0x41
  huart->RxState = HAL_UART_STATE_READY;
 80016fa:	f884 3042 	strb.w	r3, [r4, #66]	@ 0x42
  huart->RxEventType = HAL_UART_RXEVENT_TC;
 80016fe:	6360      	str	r0, [r4, #52]	@ 0x34
}
 8001700:	bd10      	pop	{r4, pc}
    return HAL_ERROR;
 8001702:	2001      	movs	r0, #1
 8001704:	e7fc      	b.n	8001700 <HAL_UART_Init+0x58>

08001706 <HAL_UART_Transmit>:
{
 8001706:	e92d 43f8 	stmdb	sp!, {r3, r4, r5, r6, r7, r8, r9, lr}
 800170a:	4698      	mov	r8, r3
  if (huart->gState == HAL_UART_STATE_READY)
 800170c:	f890 3041 	ldrb.w	r3, [r0, #65]	@ 0x41
{
 8001710:	4604      	mov	r4, r0
  if (huart->gState == HAL_UART_STATE_READY)
 8001712:	2b20      	cmp	r3, #32
{
 8001714:	460e      	mov	r6, r1
 8001716:	4617      	mov	r7, r2
  if (huart->gState == HAL_UART_STATE_READY)
 8001718:	d13f      	bne.n	800179a <HAL_UART_Transmit+0x94>
    if ((pData == NULL) || (Size == 0U))
 800171a:	2900      	cmp	r1, #0
 800171c:	d03f      	beq.n	800179e <HAL_UART_Transmit+0x98>
 800171e:	2a00      	cmp	r2, #0
 8001720:	d03d      	beq.n	800179e <HAL_UART_Transmit+0x98>
    huart->gState = HAL_UART_STATE_BUSY_TX;
 8001722:	2321      	movs	r3, #33	@ 0x21
    huart->ErrorCode = HAL_UART_ERROR_NONE;
 8001724:	2500      	movs	r5, #0
 8001726:	6445      	str	r5, [r0, #68]	@ 0x44
    huart->gState = HAL_UART_STATE_BUSY_TX;
 8001728:	f880 3041 	strb.w	r3, [r0, #65]	@ 0x41
    tickstart = HAL_GetTick();
 800172c:	f7ff f938 	bl	80009a0 <HAL_GetTick>
    if ((huart->Init.WordLength == UART_WORDLENGTH_9B) && (huart->Init.Parity == UART_PARITY_NONE))
 8001730:	68a3      	ldr	r3, [r4, #8]
    tickstart = HAL_GetTick();
 8001732:	4681      	mov	r9, r0
    if ((huart->Init.WordLength == UART_WORDLENGTH_9B) && (huart->Init.Parity == UART_PARITY_NONE))
 8001734:	f5b3 5f80 	cmp.w	r3, #4096	@ 0x1000
    huart->TxXferSize = Size;
 8001738:	84a7      	strh	r7, [r4, #36]	@ 0x24
    huart->TxXferCount = Size;
 800173a:	84e7      	strh	r7, [r4, #38]	@ 0x26
    if ((huart->Init.WordLength == UART_WORDLENGTH_9B) && (huart->Init.Parity == UART_PARITY_NONE))
 800173c:	d103      	bne.n	8001746 <HAL_UART_Transmit+0x40>
 800173e:	6923      	ldr	r3, [r4, #16]
 8001740:	b90b      	cbnz	r3, 8001746 <HAL_UART_Transmit+0x40>
      pdata16bits = (const uint16_t *) pData;
 8001742:	4635      	mov	r5, r6
      pdata8bits  = NULL;
 8001744:	461e      	mov	r6, r3
    while (huart->TxXferCount > 0U)
 8001746:	8ce3      	ldrh	r3, [r4, #38]	@ 0x26
 8001748:	b29b      	uxth	r3, r3
 800174a:	b953      	cbnz	r3, 8001762 <HAL_UART_Transmit+0x5c>
    if (UART_WaitOnFlagUntilTimeout(huart, UART_FLAG_TC, RESET, tickstart, Timeout) != HAL_OK)
 800174c:	4643      	mov	r3, r8
 800174e:	464a      	mov	r2, r9
 8001750:	2140      	movs	r1, #64	@ 0x40
 8001752:	4620      	mov	r0, r4
 8001754:	f7ff ff76 	bl	8001644 <UART_WaitOnFlagUntilTimeout.constprop.0>
 8001758:	2320      	movs	r3, #32
 800175a:	b950      	cbnz	r0, 8001772 <HAL_UART_Transmit+0x6c>
    huart->gState = HAL_UART_STATE_READY;
 800175c:	f884 3041 	strb.w	r3, [r4, #65]	@ 0x41
    return HAL_OK;
 8001760:	e00a      	b.n	8001778 <HAL_UART_Transmit+0x72>
      if (UART_WaitOnFlagUntilTimeout(huart, UART_FLAG_TXE, RESET, tickstart, Timeout) != HAL_OK)
 8001762:	4643      	mov	r3, r8
 8001764:	464a      	mov	r2, r9
 8001766:	2180      	movs	r1, #128	@ 0x80
 8001768:	4620      	mov	r0, r4
 800176a:	f7ff ff6b 	bl	8001644 <UART_WaitOnFlagUntilTimeout.constprop.0>
 800176e:	b128      	cbz	r0, 800177c <HAL_UART_Transmit+0x76>
        huart->gState = HAL_UART_STATE_READY;
 8001770:	2320      	movs	r3, #32
        return HAL_TIMEOUT;
 8001772:	2003      	movs	r0, #3
        huart->gState = HAL_UART_STATE_READY;
 8001774:	f884 3041 	strb.w	r3, [r4, #65]	@ 0x41
}
 8001778:	e8bd 83f8 	ldmia.w	sp!, {r3, r4, r5, r6, r7, r8, r9, pc}
        huart->Instance->DR = (uint16_t)(*pdata16bits & 0x01FFU);
 800177c:	6822      	ldr	r2, [r4, #0]
      if (pdata8bits == NULL)
 800177e:	b94e      	cbnz	r6, 8001794 <HAL_UART_Transmit+0x8e>
        huart->Instance->DR = (uint16_t)(*pdata16bits & 0x01FFU);
 8001780:	f835 3b02 	ldrh.w	r3, [r5], #2
 8001784:	f3c3 0308 	ubfx	r3, r3, #0, #9
        huart->Instance->DR = (uint8_t)(*pdata8bits & 0xFFU);
 8001788:	6053      	str	r3, [r2, #4]
      huart->TxXferCount--;
 800178a:	8ce1      	ldrh	r1, [r4, #38]	@ 0x26
 800178c:	3901      	subs	r1, #1
 800178e:	b289      	uxth	r1, r1
 8001790:	84e1      	strh	r1, [r4, #38]	@ 0x26
 8001792:	e7d8      	b.n	8001746 <HAL_UART_Transmit+0x40>
        huart->Instance->DR = (uint8_t)(*pdata8bits & 0xFFU);
 8001794:	f816 3b01 	ldrb.w	r3, [r6], #1
 8001798:	e7f6      	b.n	8001788 <HAL_UART_Transmit+0x82>
    return HAL_BUSY;
 800179a:	2002      	movs	r0, #2
 800179c:	e7ec      	b.n	8001778 <HAL_UART_Transmit+0x72>
      return  HAL_ERROR;
 800179e:	2001      	movs	r0, #1
 80017a0:	e7ea      	b.n	8001778 <HAL_UART_Transmit+0x72>

080017a2 <HAL_UART_TxCpltCallback>:
__weak void HAL_UART_TxCpltCallback(UART_HandleTypeDef *huart)
 80017a2:	4770      	bx	lr

080017a4 <HAL_UART_ErrorCallback>:
__weak void HAL_UART_ErrorCallback(UART_HandleTypeDef *huart)
 80017a4:	4770      	bx	lr

080017a6 <UART_DMAAbortOnError>:
{
 80017a6:	b508      	push	{r3, lr}
  huart->RxXferCount = 0x00U;
 80017a8:	2300      	movs	r3, #0
  UART_HandleTypeDef *huart = (UART_HandleTypeDef *)((DMA_HandleTypeDef *)hdma)->Parent;
 80017aa:	6a40      	ldr	r0, [r0, #36]	@ 0x24
  huart->RxXferCount = 0x00U;
 80017ac:	85c3      	strh	r3, [r0, #46]	@ 0x2e
  huart->TxXferCount = 0x00U;
 80017ae:	84c3      	strh	r3, [r0, #38]	@ 0x26
  HAL_UART_ErrorCallback(huart);
 80017b0:	f7ff fff8 	bl	80017a4 <HAL_UART_ErrorCallback>
}
 80017b4:	bd08      	pop	{r3, pc}

080017b6 <HAL_UARTEx_RxEventCallback>:
}
 80017b6:	4770      	bx	lr

080017b8 <UART_Receive_IT.isra.0>:
  if (huart->RxState == HAL_UART_STATE_BUSY_RX)
 80017b8:	f890 3042 	ldrb.w	r3, [r0, #66]	@ 0x42
static HAL_StatusTypeDef UART_Receive_IT(UART_HandleTypeDef *huart)
 80017bc:	b507      	push	{r0, r1, r2, lr}
  if (huart->RxState == HAL_UART_STATE_BUSY_RX)
 80017be:	2b22      	cmp	r3, #34	@ 0x22
 80017c0:	d142      	bne.n	8001848 <UART_Receive_IT.isra.0+0x90>
    if ((huart->Init.WordLength == UART_WORDLENGTH_9B) && (huart->Init.Parity == UART_PARITY_NONE))
 80017c2:	6881      	ldr	r1, [r0, #8]
      *pdata16bits = (uint16_t)(huart->Instance->DR & (uint16_t)0x01FF);
 80017c4:	6802      	ldr	r2, [r0, #0]
    if ((huart->Init.WordLength == UART_WORDLENGTH_9B) && (huart->Init.Parity == UART_PARITY_NONE))
 80017c6:	f5b1 5f80 	cmp.w	r1, #4096	@ 0x1000
      pdata16bits = (uint16_t *) huart->pRxBuffPtr;
 80017ca:	6a83      	ldr	r3, [r0, #40]	@ 0x28
    if ((huart->Init.WordLength == UART_WORDLENGTH_9B) && (huart->Init.Parity == UART_PARITY_NONE))
 80017cc:	d13f      	bne.n	800184e <UART_Receive_IT.isra.0+0x96>
 80017ce:	6901      	ldr	r1, [r0, #16]
 80017d0:	2900      	cmp	r1, #0
 80017d2:	d13f      	bne.n	8001854 <UART_Receive_IT.isra.0+0x9c>
      *pdata16bits = (uint16_t)(huart->Instance->DR & (uint16_t)0x01FF);
 80017d4:	6852      	ldr	r2, [r2, #4]
 80017d6:	f3c2 0208 	ubfx	r2, r2, #0, #9
 80017da:	f823 2b02 	strh.w	r2, [r3], #2
      huart->pRxBuffPtr += 2U;
 80017de:	6283      	str	r3, [r0, #40]	@ 0x28
    if (--huart->RxXferCount == 0U)
 80017e0:	8dc3      	ldrh	r3, [r0, #46]	@ 0x2e
 80017e2:	3b01      	subs	r3, #1
 80017e4:	b29b      	uxth	r3, r3
 80017e6:	85c3      	strh	r3, [r0, #46]	@ 0x2e
 80017e8:	2b00      	cmp	r3, #0
 80017ea:	d12d      	bne.n	8001848 <UART_Receive_IT.isra.0+0x90>
      __HAL_UART_DISABLE_IT(huart, UART_IT_RXNE);
 80017ec:	6802      	ldr	r2, [r0, #0]
 80017ee:	68d1      	ldr	r1, [r2, #12]
 80017f0:	f021 0120 	bic.w	r1, r1, #32
 80017f4:	60d1      	str	r1, [r2, #12]
      __HAL_UART_DISABLE_IT(huart, UART_IT_PE);
 80017f6:	68d1      	ldr	r1, [r2, #12]
 80017f8:	f421 7180 	bic.w	r1, r1, #256	@ 0x100
 80017fc:	60d1      	str	r1, [r2, #12]
      __HAL_UART_DISABLE_IT(huart, UART_IT_ERR);
 80017fe:	6951      	ldr	r1, [r2, #20]
 8001800:	f021 0101 	bic.w	r1, r1, #1
 8001804:	6151      	str	r1, [r2, #20]
      huart->RxState = HAL_UART_STATE_READY;
 8001806:	2220      	movs	r2, #32
 8001808:	f880 2042 	strb.w	r2, [r0, #66]	@ 0x42
      huart->RxEventType = HAL_UART_RXEVENT_TC;
 800180c:	6343      	str	r3, [r0, #52]	@ 0x34
      if (huart->ReceptionType == HAL_UART_RECEPTION_TOIDLE)
 800180e:	6b02      	ldr	r2, [r0, #48]	@ 0x30
 8001810:	2a01      	cmp	r2, #1
 8001812:	6802      	ldr	r2, [r0, #0]
 8001814:	d128      	bne.n	8001868 <UART_Receive_IT.isra.0+0xb0>
        huart->ReceptionType = HAL_UART_RECEPTION_STANDARD;
 8001816:	6303      	str	r3, [r0, #48]	@ 0x30
   __ASM volatile ("ldrex %0, %1" : "=r" (result) : "Q" (*addr) );
 8001818:	f102 030c 	add.w	r3, r2, #12
 800181c:	e853 3f00 	ldrex	r3, [r3]
        ATOMIC_CLEAR_BIT(huart->Instance->CR1, USART_CR1_IDLEIE);
 8001820:	f023 0310 	bic.w	r3, r3, #16
   __ASM volatile ("strex %0, %2, %1" : "=&r" (result), "=Q" (*addr) : "r" (value) );
 8001824:	f102 0c0c 	add.w	ip, r2, #12
 8001828:	e84c 3100 	strex	r1, r3, [ip]
 800182c:	2900      	cmp	r1, #0
 800182e:	d1f3      	bne.n	8001818 <UART_Receive_IT.isra.0+0x60>
        if (__HAL_UART_GET_FLAG(huart, UART_FLAG_IDLE))
 8001830:	6813      	ldr	r3, [r2, #0]
 8001832:	06db      	lsls	r3, r3, #27
 8001834:	d505      	bpl.n	8001842 <UART_Receive_IT.isra.0+0x8a>
          __HAL_UART_CLEAR_IDLEFLAG(huart);
 8001836:	9101      	str	r1, [sp, #4]
 8001838:	6813      	ldr	r3, [r2, #0]
 800183a:	9301      	str	r3, [sp, #4]
 800183c:	6853      	ldr	r3, [r2, #4]
 800183e:	9301      	str	r3, [sp, #4]
 8001840:	9b01      	ldr	r3, [sp, #4]
        HAL_UARTEx_RxEventCallback(huart, huart->RxXferSize);
 8001842:	8d81      	ldrh	r1, [r0, #44]	@ 0x2c
 8001844:	f7ff ffb7 	bl	80017b6 <HAL_UARTEx_RxEventCallback>
}
 8001848:	b003      	add	sp, #12
 800184a:	f85d fb04 	ldr.w	pc, [sp], #4
      if ((huart->Init.WordLength == UART_WORDLENGTH_9B) || ((huart->Init.WordLength == UART_WORDLENGTH_8B) && (huart->Init.Parity == UART_PARITY_NONE)))
 800184e:	b939      	cbnz	r1, 8001860 <UART_Receive_IT.isra.0+0xa8>
 8001850:	6901      	ldr	r1, [r0, #16]
 8001852:	b929      	cbnz	r1, 8001860 <UART_Receive_IT.isra.0+0xa8>
        *pdata8bits = (uint8_t)(huart->Instance->DR & (uint8_t)0x00FF);
 8001854:	6852      	ldr	r2, [r2, #4]
 8001856:	b2d2      	uxtb	r2, r2
 8001858:	701a      	strb	r2, [r3, #0]
      huart->pRxBuffPtr += 1U;
 800185a:	6a83      	ldr	r3, [r0, #40]	@ 0x28
 800185c:	3301      	adds	r3, #1
 800185e:	e7be      	b.n	80017de <UART_Receive_IT.isra.0+0x26>
        *pdata8bits = (uint8_t)(huart->Instance->DR & (uint8_t)0x007F);
 8001860:	6852      	ldr	r2, [r2, #4]
 8001862:	f002 027f 	and.w	r2, r2, #127	@ 0x7f
 8001866:	e7f7      	b.n	8001858 <UART_Receive_IT.isra.0+0xa0>
        HAL_UART_RxCpltCallback(huart);
 8001868:	f7fe fe3e 	bl	80004e8 <HAL_UART_RxCpltCallback>
 800186c:	e7ec      	b.n	8001848 <UART_Receive_IT.isra.0+0x90>
	...

08001870 <HAL_UART_IRQHandler>:
  uint32_t isrflags   = READ_REG(huart->Instance->SR);
 8001870:	6803      	ldr	r3, [r0, #0]
{
 8001872:	b573      	push	{r0, r1, r4, r5, r6, lr}
  uint32_t isrflags   = READ_REG(huart->Instance->SR);
 8001874:	681a      	ldr	r2, [r3, #0]
{
 8001876:	4604      	mov	r4, r0
  if (errorflags == RESET)
 8001878:	0716      	lsls	r6, r2, #28
  uint32_t cr1its     = READ_REG(huart->Instance->CR1);
 800187a:	68d9      	ldr	r1, [r3, #12]
  uint32_t cr3its     = READ_REG(huart->Instance->CR3);
 800187c:	695d      	ldr	r5, [r3, #20]
  if (errorflags == RESET)
 800187e:	d108      	bne.n	8001892 <HAL_UART_IRQHandler+0x22>
    if (((isrflags & USART_SR_RXNE) != RESET) && ((cr1its & USART_CR1_RXNEIE) != RESET))
 8001880:	0696      	lsls	r6, r2, #26
 8001882:	d568      	bpl.n	8001956 <HAL_UART_IRQHandler+0xe6>
 8001884:	068d      	lsls	r5, r1, #26
 8001886:	d566      	bpl.n	8001956 <HAL_UART_IRQHandler+0xe6>
}
 8001888:	b002      	add	sp, #8
 800188a:	e8bd 4070 	ldmia.w	sp!, {r4, r5, r6, lr}
      UART_Receive_IT(huart);
 800188e:	f7ff bf93 	b.w	80017b8 <UART_Receive_IT.isra.0>
  if ((errorflags != RESET) && (((cr3its & USART_CR3_EIE) != RESET)
 8001892:	f005 0001 	and.w	r0, r5, #1
                                || ((cr1its & (USART_CR1_RXNEIE | USART_CR1_PEIE)) != RESET)))
 8001896:	f401 7590 	and.w	r5, r1, #288	@ 0x120
 800189a:	4305      	orrs	r5, r0
 800189c:	d05b      	beq.n	8001956 <HAL_UART_IRQHandler+0xe6>
    if (((isrflags & USART_SR_PE) != RESET) && ((cr1its & USART_CR1_PEIE) != RESET))
 800189e:	07d6      	lsls	r6, r2, #31
 80018a0:	d505      	bpl.n	80018ae <HAL_UART_IRQHandler+0x3e>
 80018a2:	05cd      	lsls	r5, r1, #23
      huart->ErrorCode |= HAL_UART_ERROR_PE;
 80018a4:	bf42      	ittt	mi
 80018a6:	6c63      	ldrmi	r3, [r4, #68]	@ 0x44
 80018a8:	f043 0301 	orrmi.w	r3, r3, #1
 80018ac:	6463      	strmi	r3, [r4, #68]	@ 0x44
    if (((isrflags & USART_SR_NE) != RESET) && ((cr3its & USART_CR3_EIE) != RESET))
 80018ae:	0753      	lsls	r3, r2, #29
 80018b0:	d504      	bpl.n	80018bc <HAL_UART_IRQHandler+0x4c>
 80018b2:	b118      	cbz	r0, 80018bc <HAL_UART_IRQHandler+0x4c>
      huart->ErrorCode |= HAL_UART_ERROR_NE;
 80018b4:	6c63      	ldr	r3, [r4, #68]	@ 0x44
 80018b6:	f043 0302 	orr.w	r3, r3, #2
 80018ba:	6463      	str	r3, [r4, #68]	@ 0x44
    if (((isrflags & USART_SR_FE) != RESET) && ((cr3its & USART_CR3_EIE) != RESET))
 80018bc:	0796      	lsls	r6, r2, #30
 80018be:	d504      	bpl.n	80018ca <HAL_UART_IRQHandler+0x5a>
 80018c0:	b118      	cbz	r0, 80018ca <HAL_UART_IRQHandler+0x5a>
      huart->ErrorCode |= HAL_UART_ERROR_FE;
 80018c2:	6c63      	ldr	r3, [r4, #68]	@ 0x44
 80018c4:	f043 0304 	orr.w	r3, r3, #4
 80018c8:	6463      	str	r3, [r4, #68]	@ 0x44
    if (((isrflags & USART_SR_ORE) != RESET) && (((cr1its & USART_CR1_RXNEIE) != RESET)
 80018ca:	0715      	lsls	r5, r2, #28
 80018cc:	d507      	bpl.n	80018de <HAL_UART_IRQHandler+0x6e>
 80018ce:	f001 0320 	and.w	r3, r1, #32
 80018d2:	4303      	orrs	r3, r0
      huart->ErrorCode |= HAL_UART_ERROR_ORE;
 80018d4:	bf1e      	ittt	ne
 80018d6:	6c63      	ldrne	r3, [r4, #68]	@ 0x44
 80018d8:	f043 0308 	orrne.w	r3, r3, #8
 80018dc:	6463      	strne	r3, [r4, #68]	@ 0x44
    if (huart->ErrorCode != HAL_UART_ERROR_NONE)
 80018de:	6c63      	ldr	r3, [r4, #68]	@ 0x44
 80018e0:	2b00      	cmp	r3, #0
 80018e2:	d032      	beq.n	800194a <HAL_UART_IRQHandler+0xda>
      if (((isrflags & USART_SR_RXNE) != RESET) && ((cr1its & USART_CR1_RXNEIE) != RESET))
 80018e4:	0692      	lsls	r2, r2, #26
 80018e6:	d504      	bpl.n	80018f2 <HAL_UART_IRQHandler+0x82>
 80018e8:	068b      	lsls	r3, r1, #26
 80018ea:	d502      	bpl.n	80018f2 <HAL_UART_IRQHandler+0x82>
        UART_Receive_IT(huart);
 80018ec:	4620      	mov	r0, r4
 80018ee:	f7ff ff63 	bl	80017b8 <UART_Receive_IT.isra.0>
      dmarequest = HAL_IS_BIT_SET(huart->Instance->CR3, USART_CR3_DMAR);
 80018f2:	6826      	ldr	r6, [r4, #0]
        UART_EndRxTransfer(huart);
 80018f4:	4620      	mov	r0, r4
      dmarequest = HAL_IS_BIT_SET(huart->Instance->CR3, USART_CR3_DMAR);
 80018f6:	6973      	ldr	r3, [r6, #20]
      if (((huart->ErrorCode & HAL_UART_ERROR_ORE) != RESET) || dmarequest)
 80018f8:	6c62      	ldr	r2, [r4, #68]	@ 0x44
      dmarequest = HAL_IS_BIT_SET(huart->Instance->CR3, USART_CR3_DMAR);
 80018fa:	f003 0340 	and.w	r3, r3, #64	@ 0x40
      if (((huart->ErrorCode & HAL_UART_ERROR_ORE) != RESET) || dmarequest)
 80018fe:	f002 0208 	and.w	r2, r2, #8
 8001902:	ea53 0502 	orrs.w	r5, r3, r2
 8001906:	d022      	beq.n	800194e <HAL_UART_IRQHandler+0xde>
        UART_EndRxTransfer(huart);
 8001908:	f7ff fe34 	bl	8001574 <UART_EndRxTransfer>
        if (HAL_IS_BIT_SET(huart->Instance->CR3, USART_CR3_DMAR))
 800190c:	6973      	ldr	r3, [r6, #20]
 800190e:	065e      	lsls	r6, r3, #25
 8001910:	d518      	bpl.n	8001944 <HAL_UART_IRQHandler+0xd4>
          ATOMIC_CLEAR_BIT(huart->Instance->CR3, USART_CR3_DMAR);
 8001912:	6822      	ldr	r2, [r4, #0]
   __ASM volatile ("ldrex %0, %1" : "=r" (result) : "Q" (*addr) );
 8001914:	f102 0314 	add.w	r3, r2, #20
 8001918:	e853 3f00 	ldrex	r3, [r3]
 800191c:	f023 0340 	bic.w	r3, r3, #64	@ 0x40
   __ASM volatile ("strex %0, %2, %1" : "=&r" (result), "=Q" (*addr) : "r" (value) );
 8001920:	3214      	adds	r2, #20
 8001922:	e842 3100 	strex	r1, r3, [r2]
 8001926:	2900      	cmp	r1, #0
 8001928:	d1f3      	bne.n	8001912 <HAL_UART_IRQHandler+0xa2>
          if (huart->hdmarx != NULL)
 800192a:	6be0      	ldr	r0, [r4, #60]	@ 0x3c
 800192c:	b150      	cbz	r0, 8001944 <HAL_UART_IRQHandler+0xd4>
            huart->hdmarx->XferAbortCallback = UART_DMAAbortOnError;
 800192e:	4b74      	ldr	r3, [pc, #464]	@ (8001b00 <HAL_UART_IRQHandler+0x290>)
 8001930:	6343      	str	r3, [r0, #52]	@ 0x34
            if (HAL_DMA_Abort_IT(huart->hdmarx) != HAL_OK)
 8001932:	f7ff f8bf 	bl	8000ab4 <HAL_DMA_Abort_IT>
 8001936:	b140      	cbz	r0, 800194a <HAL_UART_IRQHandler+0xda>
              huart->hdmarx->XferAbortCallback(huart->hdmarx);
 8001938:	6be0      	ldr	r0, [r4, #60]	@ 0x3c
 800193a:	6b43      	ldr	r3, [r0, #52]	@ 0x34
}
 800193c:	b002      	add	sp, #8
 800193e:	e8bd 4070 	ldmia.w	sp!, {r4, r5, r6, lr}
              huart->hdmarx->XferAbortCallback(huart->hdmarx);
 8001942:	4718      	bx	r3
            HAL_UART_ErrorCallback(huart);
 8001944:	4620      	mov	r0, r4
 8001946:	f7ff ff2d 	bl	80017a4 <HAL_UART_ErrorCallback>
}
 800194a:	b002      	add	sp, #8
 800194c:	bd70      	pop	{r4, r5, r6, pc}
        HAL_UART_ErrorCallback(huart);
 800194e:	f7ff ff29 	bl	80017a4 <HAL_UART_ErrorCallback>
        huart->ErrorCode = HAL_UART_ERROR_NONE;
 8001952:	6465      	str	r5, [r4, #68]	@ 0x44
 8001954:	e7f9      	b.n	800194a <HAL_UART_IRQHandler+0xda>
  if ((huart->ReceptionType == HAL_UART_RECEPTION_TOIDLE)
 8001956:	6b20      	ldr	r0, [r4, #48]	@ 0x30
 8001958:	2801      	cmp	r0, #1
 800195a:	f040 8094 	bne.w	8001a86 <HAL_UART_IRQHandler+0x216>
      && ((isrflags & USART_SR_IDLE) != 0U)
 800195e:	06d5      	lsls	r5, r2, #27
 8001960:	f140 8091 	bpl.w	8001a86 <HAL_UART_IRQHandler+0x216>
      && ((cr1its & USART_SR_IDLE) != 0U))
 8001964:	06c8      	lsls	r0, r1, #27
 8001966:	f140 808e 	bpl.w	8001a86 <HAL_UART_IRQHandler+0x216>
    __HAL_UART_CLEAR_IDLEFLAG(huart);
 800196a:	2200      	movs	r2, #0
 800196c:	9201      	str	r2, [sp, #4]
 800196e:	681a      	ldr	r2, [r3, #0]
 8001970:	9201      	str	r2, [sp, #4]
 8001972:	685a      	ldr	r2, [r3, #4]
 8001974:	9201      	str	r2, [sp, #4]
 8001976:	9a01      	ldr	r2, [sp, #4]
    if (HAL_IS_BIT_SET(huart->Instance->CR3, USART_CR3_DMAR))
 8001978:	695a      	ldr	r2, [r3, #20]
 800197a:	0652      	lsls	r2, r2, #25
 800197c:	d54d      	bpl.n	8001a1a <HAL_UART_IRQHandler+0x1aa>
      uint16_t nb_remaining_rx_data = (uint16_t) __HAL_DMA_GET_COUNTER(huart->hdmarx);
 800197e:	6be1      	ldr	r1, [r4, #60]	@ 0x3c
 8001980:	680a      	ldr	r2, [r1, #0]
 8001982:	6852      	ldr	r2, [r2, #4]
 8001984:	b292      	uxth	r2, r2
      if ((nb_remaining_rx_data > 0U)
 8001986:	2a00      	cmp	r2, #0
 8001988:	d0df      	beq.n	800194a <HAL_UART_IRQHandler+0xda>
          && (nb_remaining_rx_data < huart->RxXferSize))
 800198a:	8da0      	ldrh	r0, [r4, #44]	@ 0x2c
 800198c:	4290      	cmp	r0, r2
 800198e:	d9dc      	bls.n	800194a <HAL_UART_IRQHandler+0xda>
        huart->RxXferCount = nb_remaining_rx_data;
 8001990:	85e2      	strh	r2, [r4, #46]	@ 0x2e
        if (huart->hdmarx->Init.Mode != DMA_CIRCULAR)
 8001992:	698a      	ldr	r2, [r1, #24]
 8001994:	2a20      	cmp	r2, #32
 8001996:	d036      	beq.n	8001a06 <HAL_UART_IRQHandler+0x196>
   __ASM volatile ("ldrex %0, %1" : "=r" (result) : "Q" (*addr) );
 8001998:	f103 020c 	add.w	r2, r3, #12
 800199c:	e852 2f00 	ldrex	r2, [r2]
          ATOMIC_CLEAR_BIT(huart->Instance->CR1, USART_CR1_PEIE);
 80019a0:	f422 7280 	bic.w	r2, r2, #256	@ 0x100
   __ASM volatile ("strex %0, %2, %1" : "=&r" (result), "=Q" (*addr) : "r" (value) );
 80019a4:	f103 000c 	add.w	r0, r3, #12
 80019a8:	e840 2100 	strex	r1, r2, [r0]
 80019ac:	2900      	cmp	r1, #0
 80019ae:	d1f3      	bne.n	8001998 <HAL_UART_IRQHandler+0x128>
   __ASM volatile ("ldrex %0, %1" : "=r" (result) : "Q" (*addr) );
 80019b0:	f103 0214 	add.w	r2, r3, #20
 80019b4:	e852 2f00 	ldrex	r2, [r2]
          ATOMIC_CLEAR_BIT(huart->Instance->CR3, USART_CR3_EIE);
 80019b8:	f022 0201 	bic.w	r2, r2, #1
   __ASM volatile ("strex %0, %2, %1" : "=&r" (result), "=Q" (*addr) : "r" (value) );
 80019bc:	f103 0014 	add.w	r0, r3, #20
 80019c0:	e840 2100 	strex	r1, r2, [r0]
 80019c4:	2900      	cmp	r1, #0
 80019c6:	d1f3      	bne.n	80019b0 <HAL_UART_IRQHandler+0x140>
   __ASM volatile ("ldrex %0, %1" : "=r" (result) : "Q" (*addr) );
 80019c8:	f103 0214 	add.w	r2, r3, #20
 80019cc:	e852 2f00 	ldrex	r2, [r2]
          ATOMIC_CLEAR_BIT(huart->Instance->CR3, USART_CR3_DMAR);
 80019d0:	f022 0240 	bic.w	r2, r2, #64	@ 0x40
   __ASM volatile ("strex %0, %2, %1" : "=&r" (result), "=Q" (*addr) : "r" (value) );
 80019d4:	f103 0014 	add.w	r0, r3, #20
 80019d8:	e840 2100 	strex	r1, r2, [r0]
 80019dc:	2900      	cmp	r1, #0
 80019de:	d1f3      	bne.n	80019c8 <HAL_UART_IRQHandler+0x158>
          huart->RxState = HAL_UART_STATE_READY;
 80019e0:	2220      	movs	r2, #32
 80019e2:	f884 2042 	strb.w	r2, [r4, #66]	@ 0x42
          huart->ReceptionType = HAL_UART_RECEPTION_STANDARD;
 80019e6:	6321      	str	r1, [r4, #48]	@ 0x30
   __ASM volatile ("ldrex %0, %1" : "=r" (result) : "Q" (*addr) );
 80019e8:	f103 020c 	add.w	r2, r3, #12
 80019ec:	e852 2f00 	ldrex	r2, [r2]
          ATOMIC_CLEAR_BIT(huart->Instance->CR1, USART_CR1_IDLEIE);
 80019f0:	f022 0210 	bic.w	r2, r2, #16
   __ASM volatile ("strex %0, %2, %1" : "=&r" (result), "=Q" (*addr) : "r" (value) );
 80019f4:	f103 000c 	add.w	r0, r3, #12
 80019f8:	e840 2100 	strex	r1, r2, [r0]
 80019fc:	2900      	cmp	r1, #0
 80019fe:	d1f3      	bne.n	80019e8 <HAL_UART_IRQHandler+0x178>
          (void)HAL_DMA_Abort(huart->hdmarx);
 8001a00:	6be0      	ldr	r0, [r4, #60]	@ 0x3c
 8001a02:	f7ff f837 	bl	8000a74 <HAL_DMA_Abort>
        huart->RxEventType = HAL_UART_RXEVENT_IDLE;
 8001a06:	2302      	movs	r3, #2
 8001a08:	6363      	str	r3, [r4, #52]	@ 0x34
        HAL_UARTEx_RxEventCallback(huart, (huart->RxXferSize - huart->RxXferCount));
 8001a0a:	8de3      	ldrh	r3, [r4, #46]	@ 0x2e
 8001a0c:	8da1      	ldrh	r1, [r4, #44]	@ 0x2c
 8001a0e:	1ac9      	subs	r1, r1, r3
 8001a10:	b289      	uxth	r1, r1
        HAL_UARTEx_RxEventCallback(huart, nb_rx_data);
 8001a12:	4620      	mov	r0, r4
 8001a14:	f7ff fecf 	bl	80017b6 <HAL_UARTEx_RxEventCallback>
 8001a18:	e797      	b.n	800194a <HAL_UART_IRQHandler+0xda>
      uint16_t nb_rx_data = huart->RxXferSize - huart->RxXferCount;
 8001a1a:	8de2      	ldrh	r2, [r4, #46]	@ 0x2e
      if ((huart->RxXferCount > 0U)
 8001a1c:	8de0      	ldrh	r0, [r4, #46]	@ 0x2e
      uint16_t nb_rx_data = huart->RxXferSize - huart->RxXferCount;
 8001a1e:	8da1      	ldrh	r1, [r4, #44]	@ 0x2c
      if ((huart->RxXferCount > 0U)
 8001a20:	b280      	uxth	r0, r0
      uint16_t nb_rx_data = huart->RxXferSize - huart->RxXferCount;
 8001a22:	b292      	uxth	r2, r2
      if ((huart->RxXferCount > 0U)
 8001a24:	2800      	cmp	r0, #0
 8001a26:	d090      	beq.n	800194a <HAL_UART_IRQHandler+0xda>
      uint16_t nb_rx_data = huart->RxXferSize - huart->RxXferCount;
 8001a28:	1a89      	subs	r1, r1, r2
 8001a2a:	b289      	uxth	r1, r1
          && (nb_rx_data > 0U))
 8001a2c:	2900      	cmp	r1, #0
 8001a2e:	d08c      	beq.n	800194a <HAL_UART_IRQHandler+0xda>
   __ASM volatile ("ldrex %0, %1" : "=r" (result) : "Q" (*addr) );
 8001a30:	f103 020c 	add.w	r2, r3, #12
 8001a34:	e852 2f00 	ldrex	r2, [r2]
        ATOMIC_CLEAR_BIT(huart->Instance->CR1, (USART_CR1_RXNEIE | USART_CR1_PEIE));
 8001a38:	f422 7290 	bic.w	r2, r2, #288	@ 0x120
   __ASM volatile ("strex %0, %2, %1" : "=&r" (result), "=Q" (*addr) : "r" (value) );
 8001a3c:	f103 050c 	add.w	r5, r3, #12
 8001a40:	e845 2000 	strex	r0, r2, [r5]
 8001a44:	2800      	cmp	r0, #0
 8001a46:	d1f3      	bne.n	8001a30 <HAL_UART_IRQHandler+0x1c0>
   __ASM volatile ("ldrex %0, %1" : "=r" (result) : "Q" (*addr) );
 8001a48:	f103 0214 	add.w	r2, r3, #20
 8001a4c:	e852 2f00 	ldrex	r2, [r2]
        ATOMIC_CLEAR_BIT(huart->Instance->CR3, USART_CR3_EIE);
 8001a50:	f022 0201 	bic.w	r2, r2, #1
   __ASM volatile ("strex %0, %2, %1" : "=&r" (result), "=Q" (*addr) : "r" (value) );
 8001a54:	f103 0514 	add.w	r5, r3, #20
 8001a58:	e845 2000 	strex	r0, r2, [r5]
 8001a5c:	2800      	cmp	r0, #0
 8001a5e:	d1f3      	bne.n	8001a48 <HAL_UART_IRQHandler+0x1d8>
        huart->RxState = HAL_UART_STATE_READY;
 8001a60:	2220      	movs	r2, #32
 8001a62:	f884 2042 	strb.w	r2, [r4, #66]	@ 0x42
        huart->ReceptionType = HAL_UART_RECEPTION_STANDARD;
 8001a66:	6320      	str	r0, [r4, #48]	@ 0x30
   __ASM volatile ("ldrex %0, %1" : "=r" (result) : "Q" (*addr) );
 8001a68:	f103 020c 	add.w	r2, r3, #12
 8001a6c:	e852 2f00 	ldrex	r2, [r2]
        ATOMIC_CLEAR_BIT(huart->Instance->CR1, USART_CR1_IDLEIE);
 8001a70:	f022 0210 	bic.w	r2, r2, #16
   __ASM volatile ("strex %0, %2, %1" : "=&r" (result), "=Q" (*addr) : "r" (value) );
 8001a74:	f103 050c 	add.w	r5, r3, #12
 8001a78:	e845 2000 	strex	r0, r2, [r5]
 8001a7c:	2800      	cmp	r0, #0
 8001a7e:	d1f3      	bne.n	8001a68 <HAL_UART_IRQHandler+0x1f8>
        huart->RxEventType = HAL_UART_RXEVENT_IDLE;
 8001a80:	2302      	movs	r3, #2
 8001a82:	6363      	str	r3, [r4, #52]	@ 0x34
 8001a84:	e7c5      	b.n	8001a12 <HAL_UART_IRQHandler+0x1a2>
  if (((isrflags & USART_SR_TXE) != RESET) && ((cr1its & USART_CR1_TXEIE) != RESET))
 8001a86:	0616      	lsls	r6, r2, #24
 8001a88:	d528      	bpl.n	8001adc <HAL_UART_IRQHandler+0x26c>
 8001a8a:	060d      	lsls	r5, r1, #24
 8001a8c:	d526      	bpl.n	8001adc <HAL_UART_IRQHandler+0x26c>
  if (huart->gState == HAL_UART_STATE_BUSY_TX)
 8001a8e:	f894 2041 	ldrb.w	r2, [r4, #65]	@ 0x41
 8001a92:	2a21      	cmp	r2, #33	@ 0x21
 8001a94:	f47f af59 	bne.w	800194a <HAL_UART_IRQHandler+0xda>
    if ((huart->Init.WordLength == UART_WORDLENGTH_9B) && (huart->Init.Parity == UART_PARITY_NONE))
 8001a98:	68a1      	ldr	r1, [r4, #8]
      tmp = (const uint16_t *) huart->pTxBuffPtr;
 8001a9a:	6a22      	ldr	r2, [r4, #32]
    if ((huart->Init.WordLength == UART_WORDLENGTH_9B) && (huart->Init.Parity == UART_PARITY_NONE))
 8001a9c:	f5b1 5f80 	cmp.w	r1, #4096	@ 0x1000
 8001aa0:	d117      	bne.n	8001ad2 <HAL_UART_IRQHandler+0x262>
 8001aa2:	6921      	ldr	r1, [r4, #16]
 8001aa4:	b9a9      	cbnz	r1, 8001ad2 <HAL_UART_IRQHandler+0x262>
      huart->Instance->DR = (uint16_t)(*tmp & (uint16_t)0x01FF);
 8001aa6:	f832 1b02 	ldrh.w	r1, [r2], #2
 8001aaa:	f3c1 0108 	ubfx	r1, r1, #0, #9
 8001aae:	6059      	str	r1, [r3, #4]
      huart->pTxBuffPtr += 2U;
 8001ab0:	6222      	str	r2, [r4, #32]
    if (--huart->TxXferCount == 0U)
 8001ab2:	8ce2      	ldrh	r2, [r4, #38]	@ 0x26
 8001ab4:	3a01      	subs	r2, #1
 8001ab6:	b292      	uxth	r2, r2
 8001ab8:	84e2      	strh	r2, [r4, #38]	@ 0x26
 8001aba:	2a00      	cmp	r2, #0
 8001abc:	f47f af45 	bne.w	800194a <HAL_UART_IRQHandler+0xda>
      __HAL_UART_DISABLE_IT(huart, UART_IT_TXE);
 8001ac0:	68da      	ldr	r2, [r3, #12]
 8001ac2:	f022 0280 	bic.w	r2, r2, #128	@ 0x80
 8001ac6:	60da      	str	r2, [r3, #12]
      __HAL_UART_ENABLE_IT(huart, UART_IT_TC);
 8001ac8:	68da      	ldr	r2, [r3, #12]
 8001aca:	f042 0240 	orr.w	r2, r2, #64	@ 0x40
 8001ace:	60da      	str	r2, [r3, #12]
 8001ad0:	e73b      	b.n	800194a <HAL_UART_IRQHandler+0xda>
      huart->Instance->DR = (uint8_t)(*huart->pTxBuffPtr++ & (uint8_t)0x00FF);
 8001ad2:	1c51      	adds	r1, r2, #1
 8001ad4:	6221      	str	r1, [r4, #32]
 8001ad6:	7812      	ldrb	r2, [r2, #0]
 8001ad8:	605a      	str	r2, [r3, #4]
 8001ada:	e7ea      	b.n	8001ab2 <HAL_UART_IRQHandler+0x242>
  if (((isrflags & USART_SR_TC) != RESET) && ((cr1its & USART_CR1_TCIE) != RESET))
 8001adc:	0650      	lsls	r0, r2, #25
 8001ade:	f57f af34 	bpl.w	800194a <HAL_UART_IRQHandler+0xda>
 8001ae2:	064a      	lsls	r2, r1, #25
 8001ae4:	f57f af31 	bpl.w	800194a <HAL_UART_IRQHandler+0xda>
  __HAL_UART_DISABLE_IT(huart, UART_IT_TC);
 8001ae8:	68da      	ldr	r2, [r3, #12]
  HAL_UART_TxCpltCallback(huart);
 8001aea:	4620      	mov	r0, r4
  __HAL_UART_DISABLE_IT(huart, UART_IT_TC);
 8001aec:	f022 0240 	bic.w	r2, r2, #64	@ 0x40
 8001af0:	60da      	str	r2, [r3, #12]
  huart->gState = HAL_UART_STATE_READY;
 8001af2:	2320      	movs	r3, #32
 8001af4:	f884 3041 	strb.w	r3, [r4, #65]	@ 0x41
  HAL_UART_TxCpltCallback(huart);
 8001af8:	f7ff fe53 	bl	80017a2 <HAL_UART_TxCpltCallback>
  return HAL_OK;
 8001afc:	e725      	b.n	800194a <HAL_UART_IRQHandler+0xda>
 8001afe:	bf00      	nop
 8001b00:	080017a7 	.word	0x080017a7

08001b04 <UART_Start_Receive_IT>:
  huart->ErrorCode = HAL_UART_ERROR_NONE;
 8001b04:	2300      	movs	r3, #0
  huart->RxXferCount = Size;
 8001b06:	85c2      	strh	r2, [r0, #46]	@ 0x2e
  huart->ErrorCode = HAL_UART_ERROR_NONE;
 8001b08:	6443      	str	r3, [r0, #68]	@ 0x44
  huart->RxState = HAL_UART_STATE_BUSY_RX;
 8001b0a:	2322      	movs	r3, #34	@ 0x22
  huart->RxXferSize = Size;
 8001b0c:	8582      	strh	r2, [r0, #44]	@ 0x2c
  if (huart->Init.Parity != UART_PARITY_NONE)
 8001b0e:	6902      	ldr	r2, [r0, #16]
  huart->RxState = HAL_UART_STATE_BUSY_RX;
 8001b10:	f880 3042 	strb.w	r3, [r0, #66]	@ 0x42
  huart->pRxBuffPtr = pData;
 8001b14:	6281      	str	r1, [r0, #40]	@ 0x28
    __HAL_UART_ENABLE_IT(huart, UART_IT_PE);
 8001b16:	6803      	ldr	r3, [r0, #0]
  if (huart->Init.Parity != UART_PARITY_NONE)
 8001b18:	b11a      	cbz	r2, 8001b22 <UART_Start_Receive_IT+0x1e>
    __HAL_UART_ENABLE_IT(huart, UART_IT_PE);
 8001b1a:	68da      	ldr	r2, [r3, #12]
 8001b1c:	f442 7280 	orr.w	r2, r2, #256	@ 0x100
 8001b20:	60da      	str	r2, [r3, #12]
  __HAL_UART_ENABLE_IT(huart, UART_IT_ERR);
 8001b22:	695a      	ldr	r2, [r3, #20]
}
 8001b24:	2000      	movs	r0, #0
  __HAL_UART_ENABLE_IT(huart, UART_IT_ERR);
 8001b26:	f042 0201 	orr.w	r2, r2, #1
 8001b2a:	615a      	str	r2, [r3, #20]
  __HAL_UART_ENABLE_IT(huart, UART_IT_RXNE);
 8001b2c:	68da      	ldr	r2, [r3, #12]
 8001b2e:	f042 0220 	orr.w	r2, r2, #32
 8001b32:	60da      	str	r2, [r3, #12]
}
 8001b34:	4770      	bx	lr

08001b36 <HAL_UART_Receive_IT>:
{
 8001b36:	b470      	push	{r4, r5, r6}
  if (huart->RxState == HAL_UART_STATE_READY)
 8001b38:	f890 6042 	ldrb.w	r6, [r0, #66]	@ 0x42
 8001b3c:	2e20      	cmp	r6, #32
 8001b3e:	d106      	bne.n	8001b4e <HAL_UART_Receive_IT+0x18>
    if ((pData == NULL) || (Size == 0U))
 8001b40:	b141      	cbz	r1, 8001b54 <HAL_UART_Receive_IT+0x1e>
 8001b42:	b13a      	cbz	r2, 8001b54 <HAL_UART_Receive_IT+0x1e>
    huart->ReceptionType = HAL_UART_RECEPTION_STANDARD;
 8001b44:	2400      	movs	r4, #0
 8001b46:	6304      	str	r4, [r0, #48]	@ 0x30
}
 8001b48:	bc70      	pop	{r4, r5, r6}
    return (UART_Start_Receive_IT(huart, pData, Size));
 8001b4a:	f7ff bfdb 	b.w	8001b04 <UART_Start_Receive_IT>
    return HAL_BUSY;
 8001b4e:	2002      	movs	r0, #2
}
 8001b50:	bc70      	pop	{r4, r5, r6}
 8001b52:	4770      	bx	lr
      return HAL_ERROR;
 8001b54:	2001      	movs	r0, #1
 8001b56:	e7fb      	b.n	8001b50 <HAL_UART_Receive_IT+0x1a>

08001b58 <std>:
 8001b58:	2300      	movs	r3, #0
 8001b5a:	b510      	push	{r4, lr}
 8001b5c:	4604      	mov	r4, r0
 8001b5e:	e9c0 3300 	strd	r3, r3, [r0]
 8001b62:	e9c0 3304 	strd	r3, r3, [r0, #16]
 8001b66:	6083      	str	r3, [r0, #8]
 8001b68:	8181      	strh	r1, [r0, #12]
 8001b6a:	6643      	str	r3, [r0, #100]	@ 0x64
 8001b6c:	81c2      	strh	r2, [r0, #14]
 8001b6e:	6183      	str	r3, [r0, #24]
 8001b70:	4619      	mov	r1, r3
 8001b72:	2208      	movs	r2, #8
 8001b74:	305c      	adds	r0, #92	@ 0x5c
 8001b76:	f000 f9e7 	bl	8001f48 <memset>
 8001b7a:	4b0d      	ldr	r3, [pc, #52]	@ (8001bb0 <std+0x58>)
 8001b7c:	6224      	str	r4, [r4, #32]
 8001b7e:	6263      	str	r3, [r4, #36]	@ 0x24
 8001b80:	4b0c      	ldr	r3, [pc, #48]	@ (8001bb4 <std+0x5c>)
 8001b82:	62a3      	str	r3, [r4, #40]	@ 0x28
 8001b84:	4b0c      	ldr	r3, [pc, #48]	@ (8001bb8 <std+0x60>)
 8001b86:	62e3      	str	r3, [r4, #44]	@ 0x2c
 8001b88:	4b0c      	ldr	r3, [pc, #48]	@ (8001bbc <std+0x64>)
 8001b8a:	6323      	str	r3, [r4, #48]	@ 0x30
 8001b8c:	4b0c      	ldr	r3, [pc, #48]	@ (8001bc0 <std+0x68>)
 8001b8e:	429c      	cmp	r4, r3
 8001b90:	d006      	beq.n	8001ba0 <std+0x48>
 8001b92:	f103 0268 	add.w	r2, r3, #104	@ 0x68
 8001b96:	4294      	cmp	r4, r2
 8001b98:	d002      	beq.n	8001ba0 <std+0x48>
 8001b9a:	33d0      	adds	r3, #208	@ 0xd0
 8001b9c:	429c      	cmp	r4, r3
 8001b9e:	d105      	bne.n	8001bac <std+0x54>
 8001ba0:	f104 0058 	add.w	r0, r4, #88	@ 0x58
 8001ba4:	e8bd 4010 	ldmia.w	sp!, {r4, lr}
 8001ba8:	f000 ba46 	b.w	8002038 <__retarget_lock_init_recursive>
 8001bac:	bd10      	pop	{r4, pc}
 8001bae:	bf00      	nop
 8001bb0:	08001d99 	.word	0x08001d99
 8001bb4:	08001dbb 	.word	0x08001dbb
 8001bb8:	08001df3 	.word	0x08001df3
 8001bbc:	08001e17 	.word	0x08001e17
 8001bc0:	20000170 	.word	0x20000170

08001bc4 <stdio_exit_handler>:
 8001bc4:	4a02      	ldr	r2, [pc, #8]	@ (8001bd0 <stdio_exit_handler+0xc>)
 8001bc6:	4903      	ldr	r1, [pc, #12]	@ (8001bd4 <stdio_exit_handler+0x10>)
 8001bc8:	4803      	ldr	r0, [pc, #12]	@ (8001bd8 <stdio_exit_handler+0x14>)
 8001bca:	f000 b869 	b.w	8001ca0 <_fwalk_sglue>
 8001bce:	bf00      	nop
 8001bd0:	20000010 	.word	0x20000010
 8001bd4:	0800232d 	.word	0x0800232d
 8001bd8:	20000020 	.word	0x20000020

08001bdc <cleanup_stdio>:
 8001bdc:	6841      	ldr	r1, [r0, #4]
 8001bde:	4b0c      	ldr	r3, [pc, #48]	@ (8001c10 <cleanup_stdio+0x34>)
 8001be0:	b510      	push	{r4, lr}
 8001be2:	4299      	cmp	r1, r3
 8001be4:	4604      	mov	r4, r0
 8001be6:	d001      	beq.n	8001bec <cleanup_stdio+0x10>
 8001be8:	f000 fba0 	bl	800232c <_fflush_r>
 8001bec:	68a1      	ldr	r1, [r4, #8]
 8001bee:	4b09      	ldr	r3, [pc, #36]	@ (8001c14 <cleanup_stdio+0x38>)
 8001bf0:	4299      	cmp	r1, r3
 8001bf2:	d002      	beq.n	8001bfa <cleanup_stdio+0x1e>
 8001bf4:	4620      	mov	r0, r4
 8001bf6:	f000 fb99 	bl	800232c <_fflush_r>
 8001bfa:	68e1      	ldr	r1, [r4, #12]
 8001bfc:	4b06      	ldr	r3, [pc, #24]	@ (8001c18 <cleanup_stdio+0x3c>)
 8001bfe:	4299      	cmp	r1, r3
 8001c00:	d004      	beq.n	8001c0c <cleanup_stdio+0x30>
 8001c02:	4620      	mov	r0, r4
 8001c04:	e8bd 4010 	ldmia.w	sp!, {r4, lr}
 8001c08:	f000 bb90 	b.w	800232c <_fflush_r>
 8001c0c:	bd10      	pop	{r4, pc}
 8001c0e:	bf00      	nop
 8001c10:	20000170 	.word	0x20000170
 8001c14:	200001d8 	.word	0x200001d8
 8001c18:	20000240 	.word	0x20000240

08001c1c <global_stdio_init.part.0>:
 8001c1c:	b510      	push	{r4, lr}
 8001c1e:	4b0b      	ldr	r3, [pc, #44]	@ (8001c4c <global_stdio_init.part.0+0x30>)
 8001c20:	4c0b      	ldr	r4, [pc, #44]	@ (8001c50 <global_stdio_init.part.0+0x34>)
 8001c22:	4a0c      	ldr	r2, [pc, #48]	@ (8001c54 <global_stdio_init.part.0+0x38>)
 8001c24:	4620      	mov	r0, r4
 8001c26:	601a      	str	r2, [r3, #0]
 8001c28:	2104      	movs	r1, #4
 8001c2a:	2200      	movs	r2, #0
 8001c2c:	f7ff ff94 	bl	8001b58 <std>
 8001c30:	f104 0068 	add.w	r0, r4, #104	@ 0x68
 8001c34:	2201      	movs	r2, #1
 8001c36:	2109      	movs	r1, #9
 8001c38:	f7ff ff8e 	bl	8001b58 <std>
 8001c3c:	f104 00d0 	add.w	r0, r4, #208	@ 0xd0
 8001c40:	2202      	movs	r2, #2
 8001c42:	e8bd 4010 	ldmia.w	sp!, {r4, lr}
 8001c46:	2112      	movs	r1, #18
 8001c48:	f7ff bf86 	b.w	8001b58 <std>
 8001c4c:	200002a8 	.word	0x200002a8
 8001c50:	20000170 	.word	0x20000170
 8001c54:	08001bc5 	.word	0x08001bc5

08001c58 <__sfp_lock_acquire>:
 8001c58:	4801      	ldr	r0, [pc, #4]	@ (8001c60 <__sfp_lock_acquire+0x8>)
 8001c5a:	f000 b9ee 	b.w	800203a <__retarget_lock_acquire_recursive>
 8001c5e:	bf00      	nop
 8001c60:	200002b1 	.word	0x200002b1

08001c64 <__sfp_lock_release>:
 8001c64:	4801      	ldr	r0, [pc, #4]	@ (8001c6c <__sfp_lock_release+0x8>)
 8001c66:	f000 b9e9 	b.w	800203c <__retarget_lock_release_recursive>
 8001c6a:	bf00      	nop
 8001c6c:	200002b1 	.word	0x200002b1

08001c70 <__sinit>:
 8001c70:	b510      	push	{r4, lr}
 8001c72:	4604      	mov	r4, r0
 8001c74:	f7ff fff0 	bl	8001c58 <__sfp_lock_acquire>
 8001c78:	6a23      	ldr	r3, [r4, #32]
 8001c7a:	b11b      	cbz	r3, 8001c84 <__sinit+0x14>
 8001c7c:	e8bd 4010 	ldmia.w	sp!, {r4, lr}
 8001c80:	f7ff bff0 	b.w	8001c64 <__sfp_lock_release>
 8001c84:	4b04      	ldr	r3, [pc, #16]	@ (8001c98 <__sinit+0x28>)
 8001c86:	6223      	str	r3, [r4, #32]
 8001c88:	4b04      	ldr	r3, [pc, #16]	@ (8001c9c <__sinit+0x2c>)
 8001c8a:	681b      	ldr	r3, [r3, #0]
 8001c8c:	2b00      	cmp	r3, #0
 8001c8e:	d1f5      	bne.n	8001c7c <__sinit+0xc>
 8001c90:	f7ff ffc4 	bl	8001c1c <global_stdio_init.part.0>
 8001c94:	e7f2      	b.n	8001c7c <__sinit+0xc>
 8001c96:	bf00      	nop
 8001c98:	08001bdd 	.word	0x08001bdd
 8001c9c:	200002a8 	.word	0x200002a8

08001ca0 <_fwalk_sglue>:
 8001ca0:	e92d 43f8 	stmdb	sp!, {r3, r4, r5, r6, r7, r8, r9, lr}
 8001ca4:	4607      	mov	r7, r0
 8001ca6:	4688      	mov	r8, r1
 8001ca8:	4614      	mov	r4, r2
 8001caa:	2600      	movs	r6, #0
 8001cac:	e9d4 9501 	ldrd	r9, r5, [r4, #4]
 8001cb0:	f1b9 0901 	subs.w	r9, r9, #1
 8001cb4:	d505      	bpl.n	8001cc2 <_fwalk_sglue+0x22>
 8001cb6:	6824      	ldr	r4, [r4, #0]
 8001cb8:	2c00      	cmp	r4, #0
 8001cba:	d1f7      	bne.n	8001cac <_fwalk_sglue+0xc>
 8001cbc:	4630      	mov	r0, r6
 8001cbe:	e8bd 83f8 	ldmia.w	sp!, {r3, r4, r5, r6, r7, r8, r9, pc}
 8001cc2:	89ab      	ldrh	r3, [r5, #12]
 8001cc4:	2b01      	cmp	r3, #1
 8001cc6:	d907      	bls.n	8001cd8 <_fwalk_sglue+0x38>
 8001cc8:	f9b5 300e 	ldrsh.w	r3, [r5, #14]
 8001ccc:	3301      	adds	r3, #1
 8001cce:	d003      	beq.n	8001cd8 <_fwalk_sglue+0x38>
 8001cd0:	4629      	mov	r1, r5
 8001cd2:	4638      	mov	r0, r7
 8001cd4:	47c0      	blx	r8
 8001cd6:	4306      	orrs	r6, r0
 8001cd8:	3568      	adds	r5, #104	@ 0x68
 8001cda:	e7e9      	b.n	8001cb0 <_fwalk_sglue+0x10>

08001cdc <_puts_r>:
 8001cdc:	6a03      	ldr	r3, [r0, #32]
 8001cde:	b570      	push	{r4, r5, r6, lr}
 8001ce0:	4605      	mov	r5, r0
 8001ce2:	460e      	mov	r6, r1
 8001ce4:	6884      	ldr	r4, [r0, #8]
 8001ce6:	b90b      	cbnz	r3, 8001cec <_puts_r+0x10>
 8001ce8:	f7ff ffc2 	bl	8001c70 <__sinit>
 8001cec:	6e63      	ldr	r3, [r4, #100]	@ 0x64
 8001cee:	07db      	lsls	r3, r3, #31
 8001cf0:	d405      	bmi.n	8001cfe <_puts_r+0x22>
 8001cf2:	89a3      	ldrh	r3, [r4, #12]
 8001cf4:	0598      	lsls	r0, r3, #22
 8001cf6:	d402      	bmi.n	8001cfe <_puts_r+0x22>
 8001cf8:	6da0      	ldr	r0, [r4, #88]	@ 0x58
 8001cfa:	f000 f99e 	bl	800203a <__retarget_lock_acquire_recursive>
 8001cfe:	89a3      	ldrh	r3, [r4, #12]
 8001d00:	0719      	lsls	r1, r3, #28
 8001d02:	d502      	bpl.n	8001d0a <_puts_r+0x2e>
 8001d04:	6923      	ldr	r3, [r4, #16]
 8001d06:	2b00      	cmp	r3, #0
 8001d08:	d135      	bne.n	8001d76 <_puts_r+0x9a>
 8001d0a:	4621      	mov	r1, r4
 8001d0c:	4628      	mov	r0, r5
 8001d0e:	f000 f8c5 	bl	8001e9c <__swsetup_r>
 8001d12:	b380      	cbz	r0, 8001d76 <_puts_r+0x9a>
 8001d14:	f04f 35ff 	mov.w	r5, #4294967295
 8001d18:	6e63      	ldr	r3, [r4, #100]	@ 0x64
 8001d1a:	07da      	lsls	r2, r3, #31
 8001d1c:	d405      	bmi.n	8001d2a <_puts_r+0x4e>
 8001d1e:	89a3      	ldrh	r3, [r4, #12]
 8001d20:	059b      	lsls	r3, r3, #22
 8001d22:	d402      	bmi.n	8001d2a <_puts_r+0x4e>
 8001d24:	6da0      	ldr	r0, [r4, #88]	@ 0x58
 8001d26:	f000 f989 	bl	800203c <__retarget_lock_release_recursive>
 8001d2a:	4628      	mov	r0, r5
 8001d2c:	bd70      	pop	{r4, r5, r6, pc}
 8001d2e:	2b00      	cmp	r3, #0
 8001d30:	da04      	bge.n	8001d3c <_puts_r+0x60>
 8001d32:	69a2      	ldr	r2, [r4, #24]
 8001d34:	429a      	cmp	r2, r3
 8001d36:	dc17      	bgt.n	8001d68 <_puts_r+0x8c>
 8001d38:	290a      	cmp	r1, #10
 8001d3a:	d015      	beq.n	8001d68 <_puts_r+0x8c>
 8001d3c:	6823      	ldr	r3, [r4, #0]
 8001d3e:	1c5a      	adds	r2, r3, #1
 8001d40:	6022      	str	r2, [r4, #0]
 8001d42:	7019      	strb	r1, [r3, #0]
 8001d44:	68a3      	ldr	r3, [r4, #8]
 8001d46:	f816 1f01 	ldrb.w	r1, [r6, #1]!
 8001d4a:	3b01      	subs	r3, #1
 8001d4c:	60a3      	str	r3, [r4, #8]
 8001d4e:	2900      	cmp	r1, #0
 8001d50:	d1ed      	bne.n	8001d2e <_puts_r+0x52>
 8001d52:	2b00      	cmp	r3, #0
 8001d54:	da11      	bge.n	8001d7a <_puts_r+0x9e>
 8001d56:	4622      	mov	r2, r4
 8001d58:	210a      	movs	r1, #10
 8001d5a:	4628      	mov	r0, r5
 8001d5c:	f000 f85f 	bl	8001e1e <__swbuf_r>
 8001d60:	3001      	adds	r0, #1
 8001d62:	d0d7      	beq.n	8001d14 <_puts_r+0x38>
 8001d64:	250a      	movs	r5, #10
 8001d66:	e7d7      	b.n	8001d18 <_puts_r+0x3c>
 8001d68:	4622      	mov	r2, r4
 8001d6a:	4628      	mov	r0, r5
 8001d6c:	f000 f857 	bl	8001e1e <__swbuf_r>
 8001d70:	3001      	adds	r0, #1
 8001d72:	d1e7      	bne.n	8001d44 <_puts_r+0x68>
 8001d74:	e7ce      	b.n	8001d14 <_puts_r+0x38>
 8001d76:	3e01      	subs	r6, #1
 8001d78:	e7e4      	b.n	8001d44 <_puts_r+0x68>
 8001d7a:	6823      	ldr	r3, [r4, #0]
 8001d7c:	1c5a      	adds	r2, r3, #1
 8001d7e:	6022      	str	r2, [r4, #0]
 8001d80:	220a      	movs	r2, #10
 8001d82:	701a      	strb	r2, [r3, #0]
 8001d84:	e7ee      	b.n	8001d64 <_puts_r+0x88>
	...

08001d88 <puts>:
 8001d88:	4b02      	ldr	r3, [pc, #8]	@ (8001d94 <puts+0xc>)
 8001d8a:	4601      	mov	r1, r0
 8001d8c:	6818      	ldr	r0, [r3, #0]
 8001d8e:	f7ff bfa5 	b.w	8001cdc <_puts_r>
 8001d92:	bf00      	nop
 8001d94:	2000001c 	.word	0x2000001c

08001d98 <__sread>:
 8001d98:	b510      	push	{r4, lr}
 8001d9a:	460c      	mov	r4, r1
 8001d9c:	f9b1 100e 	ldrsh.w	r1, [r1, #14]
 8001da0:	f000 f8fc 	bl	8001f9c <_read_r>
 8001da4:	2800      	cmp	r0, #0
 8001da6:	bfab      	itete	ge
 8001da8:	6d63      	ldrge	r3, [r4, #84]	@ 0x54
 8001daa:	89a3      	ldrhlt	r3, [r4, #12]
 8001dac:	181b      	addge	r3, r3, r0
 8001dae:	f423 5380 	biclt.w	r3, r3, #4096	@ 0x1000
 8001db2:	bfac      	ite	ge
 8001db4:	6563      	strge	r3, [r4, #84]	@ 0x54
 8001db6:	81a3      	strhlt	r3, [r4, #12]
 8001db8:	bd10      	pop	{r4, pc}

08001dba <__swrite>:
 8001dba:	e92d 41f0 	stmdb	sp!, {r4, r5, r6, r7, r8, lr}
 8001dbe:	461f      	mov	r7, r3
 8001dc0:	898b      	ldrh	r3, [r1, #12]
 8001dc2:	4605      	mov	r5, r0
 8001dc4:	05db      	lsls	r3, r3, #23
 8001dc6:	460c      	mov	r4, r1
 8001dc8:	4616      	mov	r6, r2
 8001dca:	d505      	bpl.n	8001dd8 <__swrite+0x1e>
 8001dcc:	2302      	movs	r3, #2
 8001dce:	2200      	movs	r2, #0
 8001dd0:	f9b1 100e 	ldrsh.w	r1, [r1, #14]
 8001dd4:	f000 f8d0 	bl	8001f78 <_lseek_r>
 8001dd8:	89a3      	ldrh	r3, [r4, #12]
 8001dda:	4632      	mov	r2, r6
 8001ddc:	f423 5380 	bic.w	r3, r3, #4096	@ 0x1000
 8001de0:	81a3      	strh	r3, [r4, #12]
 8001de2:	4628      	mov	r0, r5
 8001de4:	463b      	mov	r3, r7
 8001de6:	f9b4 100e 	ldrsh.w	r1, [r4, #14]
 8001dea:	e8bd 41f0 	ldmia.w	sp!, {r4, r5, r6, r7, r8, lr}
 8001dee:	f000 b8e7 	b.w	8001fc0 <_write_r>

08001df2 <__sseek>:
 8001df2:	b510      	push	{r4, lr}
 8001df4:	460c      	mov	r4, r1
 8001df6:	f9b1 100e 	ldrsh.w	r1, [r1, #14]
 8001dfa:	f000 f8bd 	bl	8001f78 <_lseek_r>
 8001dfe:	1c43      	adds	r3, r0, #1
 8001e00:	89a3      	ldrh	r3, [r4, #12]
 8001e02:	bf15      	itete	ne
 8001e04:	6560      	strne	r0, [r4, #84]	@ 0x54
 8001e06:	f423 5380 	biceq.w	r3, r3, #4096	@ 0x1000
 8001e0a:	f443 5380 	orrne.w	r3, r3, #4096	@ 0x1000
 8001e0e:	81a3      	strheq	r3, [r4, #12]
 8001e10:	bf18      	it	ne
 8001e12:	81a3      	strhne	r3, [r4, #12]
 8001e14:	bd10      	pop	{r4, pc}

08001e16 <__sclose>:
 8001e16:	f9b1 100e 	ldrsh.w	r1, [r1, #14]
 8001e1a:	f000 b89d 	b.w	8001f58 <_close_r>

08001e1e <__swbuf_r>:
 8001e1e:	b5f8      	push	{r3, r4, r5, r6, r7, lr}
 8001e20:	460e      	mov	r6, r1
 8001e22:	4614      	mov	r4, r2
 8001e24:	4605      	mov	r5, r0
 8001e26:	b118      	cbz	r0, 8001e30 <__swbuf_r+0x12>
 8001e28:	6a03      	ldr	r3, [r0, #32]
 8001e2a:	b90b      	cbnz	r3, 8001e30 <__swbuf_r+0x12>
 8001e2c:	f7ff ff20 	bl	8001c70 <__sinit>
 8001e30:	69a3      	ldr	r3, [r4, #24]
 8001e32:	60a3      	str	r3, [r4, #8]
 8001e34:	89a3      	ldrh	r3, [r4, #12]
 8001e36:	071a      	lsls	r2, r3, #28
 8001e38:	d501      	bpl.n	8001e3e <__swbuf_r+0x20>
 8001e3a:	6923      	ldr	r3, [r4, #16]
 8001e3c:	b943      	cbnz	r3, 8001e50 <__swbuf_r+0x32>
 8001e3e:	4621      	mov	r1, r4
 8001e40:	4628      	mov	r0, r5
 8001e42:	f000 f82b 	bl	8001e9c <__swsetup_r>
 8001e46:	b118      	cbz	r0, 8001e50 <__swbuf_r+0x32>
 8001e48:	f04f 37ff 	mov.w	r7, #4294967295
 8001e4c:	4638      	mov	r0, r7
 8001e4e:	bdf8      	pop	{r3, r4, r5, r6, r7, pc}
 8001e50:	6823      	ldr	r3, [r4, #0]
 8001e52:	6922      	ldr	r2, [r4, #16]
 8001e54:	b2f6      	uxtb	r6, r6
 8001e56:	1a98      	subs	r0, r3, r2
 8001e58:	6963      	ldr	r3, [r4, #20]
 8001e5a:	4637      	mov	r7, r6
 8001e5c:	4283      	cmp	r3, r0
 8001e5e:	dc05      	bgt.n	8001e6c <__swbuf_r+0x4e>
 8001e60:	4621      	mov	r1, r4
 8001e62:	4628      	mov	r0, r5
 8001e64:	f000 fa62 	bl	800232c <_fflush_r>
 8001e68:	2800      	cmp	r0, #0
 8001e6a:	d1ed      	bne.n	8001e48 <__swbuf_r+0x2a>
 8001e6c:	68a3      	ldr	r3, [r4, #8]
 8001e6e:	3b01      	subs	r3, #1
 8001e70:	60a3      	str	r3, [r4, #8]
 8001e72:	6823      	ldr	r3, [r4, #0]
 8001e74:	1c5a      	adds	r2, r3, #1
 8001e76:	6022      	str	r2, [r4, #0]
 8001e78:	701e      	strb	r6, [r3, #0]
 8001e7a:	6962      	ldr	r2, [r4, #20]
 8001e7c:	1c43      	adds	r3, r0, #1
 8001e7e:	429a      	cmp	r2, r3
 8001e80:	d004      	beq.n	8001e8c <__swbuf_r+0x6e>
 8001e82:	89a3      	ldrh	r3, [r4, #12]
 8001e84:	07db      	lsls	r3, r3, #31
 8001e86:	d5e1      	bpl.n	8001e4c <__swbuf_r+0x2e>
 8001e88:	2e0a      	cmp	r6, #10
 8001e8a:	d1df      	bne.n	8001e4c <__swbuf_r+0x2e>
 8001e8c:	4621      	mov	r1, r4
 8001e8e:	4628      	mov	r0, r5
 8001e90:	f000 fa4c 	bl	800232c <_fflush_r>
 8001e94:	2800      	cmp	r0, #0
 8001e96:	d0d9      	beq.n	8001e4c <__swbuf_r+0x2e>
 8001e98:	e7d6      	b.n	8001e48 <__swbuf_r+0x2a>
	...

08001e9c <__swsetup_r>:
 8001e9c:	b538      	push	{r3, r4, r5, lr}
 8001e9e:	4b29      	ldr	r3, [pc, #164]	@ (8001f44 <__swsetup_r+0xa8>)
 8001ea0:	4605      	mov	r5, r0
 8001ea2:	6818      	ldr	r0, [r3, #0]
 8001ea4:	460c      	mov	r4, r1
 8001ea6:	b118      	cbz	r0, 8001eb0 <__swsetup_r+0x14>
 8001ea8:	6a03      	ldr	r3, [r0, #32]
 8001eaa:	b90b      	cbnz	r3, 8001eb0 <__swsetup_r+0x14>
 8001eac:	f7ff fee0 	bl	8001c70 <__sinit>
 8001eb0:	f9b4 300c 	ldrsh.w	r3, [r4, #12]
 8001eb4:	0719      	lsls	r1, r3, #28
 8001eb6:	d422      	bmi.n	8001efe <__swsetup_r+0x62>
 8001eb8:	06da      	lsls	r2, r3, #27
 8001eba:	d407      	bmi.n	8001ecc <__swsetup_r+0x30>
 8001ebc:	2209      	movs	r2, #9
 8001ebe:	602a      	str	r2, [r5, #0]
 8001ec0:	f043 0340 	orr.w	r3, r3, #64	@ 0x40
 8001ec4:	f04f 30ff 	mov.w	r0, #4294967295
 8001ec8:	81a3      	strh	r3, [r4, #12]
 8001eca:	e033      	b.n	8001f34 <__swsetup_r+0x98>
 8001ecc:	0758      	lsls	r0, r3, #29
 8001ece:	d512      	bpl.n	8001ef6 <__swsetup_r+0x5a>
 8001ed0:	6b61      	ldr	r1, [r4, #52]	@ 0x34
 8001ed2:	b141      	cbz	r1, 8001ee6 <__swsetup_r+0x4a>
 8001ed4:	f104 0344 	add.w	r3, r4, #68	@ 0x44
 8001ed8:	4299      	cmp	r1, r3
 8001eda:	d002      	beq.n	8001ee2 <__swsetup_r+0x46>
 8001edc:	4628      	mov	r0, r5
 8001ede:	f000 f8af 	bl	8002040 <_free_r>
 8001ee2:	2300      	movs	r3, #0
 8001ee4:	6363      	str	r3, [r4, #52]	@ 0x34
 8001ee6:	89a3      	ldrh	r3, [r4, #12]
 8001ee8:	f023 0324 	bic.w	r3, r3, #36	@ 0x24
 8001eec:	81a3      	strh	r3, [r4, #12]
 8001eee:	2300      	movs	r3, #0
 8001ef0:	6063      	str	r3, [r4, #4]
 8001ef2:	6923      	ldr	r3, [r4, #16]
 8001ef4:	6023      	str	r3, [r4, #0]
 8001ef6:	89a3      	ldrh	r3, [r4, #12]
 8001ef8:	f043 0308 	orr.w	r3, r3, #8
 8001efc:	81a3      	strh	r3, [r4, #12]
 8001efe:	6923      	ldr	r3, [r4, #16]
 8001f00:	b94b      	cbnz	r3, 8001f16 <__swsetup_r+0x7a>
 8001f02:	89a3      	ldrh	r3, [r4, #12]
 8001f04:	f403 7320 	and.w	r3, r3, #640	@ 0x280
 8001f08:	f5b3 7f00 	cmp.w	r3, #512	@ 0x200
 8001f0c:	d003      	beq.n	8001f16 <__swsetup_r+0x7a>
 8001f0e:	4621      	mov	r1, r4
 8001f10:	4628      	mov	r0, r5
 8001f12:	f000 fa58 	bl	80023c6 <__smakebuf_r>
 8001f16:	f9b4 300c 	ldrsh.w	r3, [r4, #12]
 8001f1a:	f013 0201 	ands.w	r2, r3, #1
 8001f1e:	d00a      	beq.n	8001f36 <__swsetup_r+0x9a>
 8001f20:	2200      	movs	r2, #0
 8001f22:	60a2      	str	r2, [r4, #8]
 8001f24:	6962      	ldr	r2, [r4, #20]
 8001f26:	4252      	negs	r2, r2
 8001f28:	61a2      	str	r2, [r4, #24]
 8001f2a:	6922      	ldr	r2, [r4, #16]
 8001f2c:	b942      	cbnz	r2, 8001f40 <__swsetup_r+0xa4>
 8001f2e:	f013 0080 	ands.w	r0, r3, #128	@ 0x80
 8001f32:	d1c5      	bne.n	8001ec0 <__swsetup_r+0x24>
 8001f34:	bd38      	pop	{r3, r4, r5, pc}
 8001f36:	0799      	lsls	r1, r3, #30
 8001f38:	bf58      	it	pl
 8001f3a:	6962      	ldrpl	r2, [r4, #20]
 8001f3c:	60a2      	str	r2, [r4, #8]
 8001f3e:	e7f4      	b.n	8001f2a <__swsetup_r+0x8e>
 8001f40:	2000      	movs	r0, #0
 8001f42:	e7f7      	b.n	8001f34 <__swsetup_r+0x98>
 8001f44:	2000001c 	.word	0x2000001c

08001f48 <memset>:
 8001f48:	4603      	mov	r3, r0
 8001f4a:	4402      	add	r2, r0
 8001f4c:	4293      	cmp	r3, r2
 8001f4e:	d100      	bne.n	8001f52 <memset+0xa>
 8001f50:	4770      	bx	lr
 8001f52:	f803 1b01 	strb.w	r1, [r3], #1
 8001f56:	e7f9      	b.n	8001f4c <memset+0x4>

08001f58 <_close_r>:
 8001f58:	b538      	push	{r3, r4, r5, lr}
 8001f5a:	2300      	movs	r3, #0
 8001f5c:	4d05      	ldr	r5, [pc, #20]	@ (8001f74 <_close_r+0x1c>)
 8001f5e:	4604      	mov	r4, r0
 8001f60:	4608      	mov	r0, r1
 8001f62:	602b      	str	r3, [r5, #0]
 8001f64:	f7fe fc76 	bl	8000854 <_close>
 8001f68:	1c43      	adds	r3, r0, #1
 8001f6a:	d102      	bne.n	8001f72 <_close_r+0x1a>
 8001f6c:	682b      	ldr	r3, [r5, #0]
 8001f6e:	b103      	cbz	r3, 8001f72 <_close_r+0x1a>
 8001f70:	6023      	str	r3, [r4, #0]
 8001f72:	bd38      	pop	{r3, r4, r5, pc}
 8001f74:	200002ac 	.word	0x200002ac

08001f78 <_lseek_r>:
 8001f78:	b538      	push	{r3, r4, r5, lr}
 8001f7a:	4604      	mov	r4, r0
 8001f7c:	4608      	mov	r0, r1
 8001f7e:	4611      	mov	r1, r2
 8001f80:	2200      	movs	r2, #0
 8001f82:	4d05      	ldr	r5, [pc, #20]	@ (8001f98 <_lseek_r+0x20>)
 8001f84:	602a      	str	r2, [r5, #0]
 8001f86:	461a      	mov	r2, r3
 8001f88:	f7fe fc6e 	bl	8000868 <_lseek>
 8001f8c:	1c43      	adds	r3, r0, #1
 8001f8e:	d102      	bne.n	8001f96 <_lseek_r+0x1e>
 8001f90:	682b      	ldr	r3, [r5, #0]
 8001f92:	b103      	cbz	r3, 8001f96 <_lseek_r+0x1e>
 8001f94:	6023      	str	r3, [r4, #0]
 8001f96:	bd38      	pop	{r3, r4, r5, pc}
 8001f98:	200002ac 	.word	0x200002ac

08001f9c <_read_r>:
 8001f9c:	b538      	push	{r3, r4, r5, lr}
 8001f9e:	4604      	mov	r4, r0
 8001fa0:	4608      	mov	r0, r1
 8001fa2:	4611      	mov	r1, r2
 8001fa4:	2200      	movs	r2, #0
 8001fa6:	4d05      	ldr	r5, [pc, #20]	@ (8001fbc <_read_r+0x20>)
 8001fa8:	602a      	str	r2, [r5, #0]
 8001faa:	461a      	mov	r2, r3
 8001fac:	f7fe fc36 	bl	800081c <_read>
 8001fb0:	1c43      	adds	r3, r0, #1
 8001fb2:	d102      	bne.n	8001fba <_read_r+0x1e>
 8001fb4:	682b      	ldr	r3, [r5, #0]
 8001fb6:	b103      	cbz	r3, 8001fba <_read_r+0x1e>
 8001fb8:	6023      	str	r3, [r4, #0]
 8001fba:	bd38      	pop	{r3, r4, r5, pc}
 8001fbc:	200002ac 	.word	0x200002ac

08001fc0 <_write_r>:
 8001fc0:	b538      	push	{r3, r4, r5, lr}
 8001fc2:	4604      	mov	r4, r0
 8001fc4:	4608      	mov	r0, r1
 8001fc6:	4611      	mov	r1, r2
 8001fc8:	2200      	movs	r2, #0
 8001fca:	4d05      	ldr	r5, [pc, #20]	@ (8001fe0 <_write_r+0x20>)
 8001fcc:	602a      	str	r2, [r5, #0]
 8001fce:	461a      	mov	r2, r3
 8001fd0:	f7fe fc32 	bl	8000838 <_write>
 8001fd4:	1c43      	adds	r3, r0, #1
 8001fd6:	d102      	bne.n	8001fde <_write_r+0x1e>
 8001fd8:	682b      	ldr	r3, [r5, #0]
 8001fda:	b103      	cbz	r3, 8001fde <_write_r+0x1e>
 8001fdc:	6023      	str	r3, [r4, #0]
 8001fde:	bd38      	pop	{r3, r4, r5, pc}
 8001fe0:	200002ac 	.word	0x200002ac

08001fe4 <__errno>:
 8001fe4:	4b01      	ldr	r3, [pc, #4]	@ (8001fec <__errno+0x8>)
 8001fe6:	6818      	ldr	r0, [r3, #0]
 8001fe8:	4770      	bx	lr
 8001fea:	bf00      	nop
 8001fec:	2000001c 	.word	0x2000001c

08001ff0 <__libc_init_array>:
 8001ff0:	b570      	push	{r4, r5, r6, lr}
 8001ff2:	2600      	movs	r6, #0
 8001ff4:	4d0c      	ldr	r5, [pc, #48]	@ (8002028 <__libc_init_array+0x38>)
 8001ff6:	4c0d      	ldr	r4, [pc, #52]	@ (800202c <__libc_init_array+0x3c>)
 8001ff8:	1b64      	subs	r4, r4, r5
 8001ffa:	10a4      	asrs	r4, r4, #2
 8001ffc:	42a6      	cmp	r6, r4
 8001ffe:	d109      	bne.n	8002014 <__libc_init_array+0x24>
 8002000:	f000 fa50 	bl	80024a4 <_init>
 8002004:	2600      	movs	r6, #0
 8002006:	4d0a      	ldr	r5, [pc, #40]	@ (8002030 <__libc_init_array+0x40>)
 8002008:	4c0a      	ldr	r4, [pc, #40]	@ (8002034 <__libc_init_array+0x44>)
 800200a:	1b64      	subs	r4, r4, r5
 800200c:	10a4      	asrs	r4, r4, #2
 800200e:	42a6      	cmp	r6, r4
 8002010:	d105      	bne.n	800201e <__libc_init_array+0x2e>
 8002012:	bd70      	pop	{r4, r5, r6, pc}
 8002014:	f855 3b04 	ldr.w	r3, [r5], #4
 8002018:	4798      	blx	r3
 800201a:	3601      	adds	r6, #1
 800201c:	e7ee      	b.n	8001ffc <__libc_init_array+0xc>
 800201e:	f855 3b04 	ldr.w	r3, [r5], #4
 8002022:	4798      	blx	r3
 8002024:	3601      	adds	r6, #1
 8002026:	e7f2      	b.n	800200e <__libc_init_array+0x1e>
 8002028:	08002520 	.word	0x08002520
 800202c:	08002520 	.word	0x08002520
 8002030:	08002520 	.word	0x08002520
 8002034:	08002524 	.word	0x08002524

08002038 <__retarget_lock_init_recursive>:
 8002038:	4770      	bx	lr

0800203a <__retarget_lock_acquire_recursive>:
 800203a:	4770      	bx	lr

0800203c <__retarget_lock_release_recursive>:
 800203c:	4770      	bx	lr
	...

08002040 <_free_r>:
 8002040:	b538      	push	{r3, r4, r5, lr}
 8002042:	4605      	mov	r5, r0
 8002044:	2900      	cmp	r1, #0
 8002046:	d040      	beq.n	80020ca <_free_r+0x8a>
 8002048:	f851 3c04 	ldr.w	r3, [r1, #-4]
 800204c:	1f0c      	subs	r4, r1, #4
 800204e:	2b00      	cmp	r3, #0
 8002050:	bfb8      	it	lt
 8002052:	18e4      	addlt	r4, r4, r3
 8002054:	f000 f8de 	bl	8002214 <__malloc_lock>
 8002058:	4a1c      	ldr	r2, [pc, #112]	@ (80020cc <_free_r+0x8c>)
 800205a:	6813      	ldr	r3, [r2, #0]
 800205c:	b933      	cbnz	r3, 800206c <_free_r+0x2c>
 800205e:	6063      	str	r3, [r4, #4]
 8002060:	6014      	str	r4, [r2, #0]
 8002062:	4628      	mov	r0, r5
 8002064:	e8bd 4038 	ldmia.w	sp!, {r3, r4, r5, lr}
 8002068:	f000 b8da 	b.w	8002220 <__malloc_unlock>
 800206c:	42a3      	cmp	r3, r4
 800206e:	d908      	bls.n	8002082 <_free_r+0x42>
 8002070:	6820      	ldr	r0, [r4, #0]
 8002072:	1821      	adds	r1, r4, r0
 8002074:	428b      	cmp	r3, r1
 8002076:	bf01      	itttt	eq
 8002078:	6819      	ldreq	r1, [r3, #0]
 800207a:	685b      	ldreq	r3, [r3, #4]
 800207c:	1809      	addeq	r1, r1, r0
 800207e:	6021      	streq	r1, [r4, #0]
 8002080:	e7ed      	b.n	800205e <_free_r+0x1e>
 8002082:	461a      	mov	r2, r3
 8002084:	685b      	ldr	r3, [r3, #4]
 8002086:	b10b      	cbz	r3, 800208c <_free_r+0x4c>
 8002088:	42a3      	cmp	r3, r4
 800208a:	d9fa      	bls.n	8002082 <_free_r+0x42>
 800208c:	6811      	ldr	r1, [r2, #0]
 800208e:	1850      	adds	r0, r2, r1
 8002090:	42a0      	cmp	r0, r4
 8002092:	d10b      	bne.n	80020ac <_free_r+0x6c>
 8002094:	6820      	ldr	r0, [r4, #0]
 8002096:	4401      	add	r1, r0
 8002098:	1850      	adds	r0, r2, r1
 800209a:	4283      	cmp	r3, r0
 800209c:	6011      	str	r1, [r2, #0]
 800209e:	d1e0      	bne.n	8002062 <_free_r+0x22>
 80020a0:	6818      	ldr	r0, [r3, #0]
 80020a2:	685b      	ldr	r3, [r3, #4]
 80020a4:	4408      	add	r0, r1
 80020a6:	6010      	str	r0, [r2, #0]
 80020a8:	6053      	str	r3, [r2, #4]
 80020aa:	e7da      	b.n	8002062 <_free_r+0x22>
 80020ac:	d902      	bls.n	80020b4 <_free_r+0x74>
 80020ae:	230c      	movs	r3, #12
 80020b0:	602b      	str	r3, [r5, #0]
 80020b2:	e7d6      	b.n	8002062 <_free_r+0x22>
 80020b4:	6820      	ldr	r0, [r4, #0]
 80020b6:	1821      	adds	r1, r4, r0
 80020b8:	428b      	cmp	r3, r1
 80020ba:	bf01      	itttt	eq
 80020bc:	6819      	ldreq	r1, [r3, #0]
 80020be:	685b      	ldreq	r3, [r3, #4]
 80020c0:	1809      	addeq	r1, r1, r0
 80020c2:	6021      	streq	r1, [r4, #0]
 80020c4:	6063      	str	r3, [r4, #4]
 80020c6:	6054      	str	r4, [r2, #4]
 80020c8:	e7cb      	b.n	8002062 <_free_r+0x22>
 80020ca:	bd38      	pop	{r3, r4, r5, pc}
 80020cc:	200002b8 	.word	0x200002b8

080020d0 <sbrk_aligned>:
 80020d0:	b570      	push	{r4, r5, r6, lr}
 80020d2:	4e0f      	ldr	r6, [pc, #60]	@ (8002110 <sbrk_aligned+0x40>)
 80020d4:	460c      	mov	r4, r1
 80020d6:	6831      	ldr	r1, [r6, #0]
 80020d8:	4605      	mov	r5, r0
 80020da:	b911      	cbnz	r1, 80020e2 <sbrk_aligned+0x12>
 80020dc:	f000 f9d2 	bl	8002484 <_sbrk_r>
 80020e0:	6030      	str	r0, [r6, #0]
 80020e2:	4621      	mov	r1, r4
 80020e4:	4628      	mov	r0, r5
 80020e6:	f000 f9cd 	bl	8002484 <_sbrk_r>
 80020ea:	1c43      	adds	r3, r0, #1
 80020ec:	d103      	bne.n	80020f6 <sbrk_aligned+0x26>
 80020ee:	f04f 34ff 	mov.w	r4, #4294967295
 80020f2:	4620      	mov	r0, r4
 80020f4:	bd70      	pop	{r4, r5, r6, pc}
 80020f6:	1cc4      	adds	r4, r0, #3
 80020f8:	f024 0403 	bic.w	r4, r4, #3
 80020fc:	42a0      	cmp	r0, r4
 80020fe:	d0f8      	beq.n	80020f2 <sbrk_aligned+0x22>
 8002100:	1a21      	subs	r1, r4, r0
 8002102:	4628      	mov	r0, r5
 8002104:	f000 f9be 	bl	8002484 <_sbrk_r>
 8002108:	3001      	adds	r0, #1
 800210a:	d1f2      	bne.n	80020f2 <sbrk_aligned+0x22>
 800210c:	e7ef      	b.n	80020ee <sbrk_aligned+0x1e>
 800210e:	bf00      	nop
 8002110:	200002b4 	.word	0x200002b4

08002114 <_malloc_r>:
 8002114:	e92d 43f8 	stmdb	sp!, {r3, r4, r5, r6, r7, r8, r9, lr}
 8002118:	1ccd      	adds	r5, r1, #3
 800211a:	f025 0503 	bic.w	r5, r5, #3
 800211e:	3508      	adds	r5, #8
 8002120:	2d0c      	cmp	r5, #12
 8002122:	bf38      	it	cc
 8002124:	250c      	movcc	r5, #12
 8002126:	2d00      	cmp	r5, #0
 8002128:	4606      	mov	r6, r0
 800212a:	db01      	blt.n	8002130 <_malloc_r+0x1c>
 800212c:	42a9      	cmp	r1, r5
 800212e:	d904      	bls.n	800213a <_malloc_r+0x26>
 8002130:	230c      	movs	r3, #12
 8002132:	6033      	str	r3, [r6, #0]
 8002134:	2000      	movs	r0, #0
 8002136:	e8bd 83f8 	ldmia.w	sp!, {r3, r4, r5, r6, r7, r8, r9, pc}
 800213a:	f8df 80d4 	ldr.w	r8, [pc, #212]	@ 8002210 <_malloc_r+0xfc>
 800213e:	f000 f869 	bl	8002214 <__malloc_lock>
 8002142:	f8d8 3000 	ldr.w	r3, [r8]
 8002146:	461c      	mov	r4, r3
 8002148:	bb44      	cbnz	r4, 800219c <_malloc_r+0x88>
 800214a:	4629      	mov	r1, r5
 800214c:	4630      	mov	r0, r6
 800214e:	f7ff ffbf 	bl	80020d0 <sbrk_aligned>
 8002152:	1c43      	adds	r3, r0, #1
 8002154:	4604      	mov	r4, r0
 8002156:	d158      	bne.n	800220a <_malloc_r+0xf6>
 8002158:	f8d8 4000 	ldr.w	r4, [r8]
 800215c:	4627      	mov	r7, r4
 800215e:	2f00      	cmp	r7, #0
 8002160:	d143      	bne.n	80021ea <_malloc_r+0xd6>
 8002162:	2c00      	cmp	r4, #0
 8002164:	d04b      	beq.n	80021fe <_malloc_r+0xea>
 8002166:	6823      	ldr	r3, [r4, #0]
 8002168:	4639      	mov	r1, r7
 800216a:	4630      	mov	r0, r6
 800216c:	eb04 0903 	add.w	r9, r4, r3
 8002170:	f000 f988 	bl	8002484 <_sbrk_r>
 8002174:	4581      	cmp	r9, r0
 8002176:	d142      	bne.n	80021fe <_malloc_r+0xea>
 8002178:	6821      	ldr	r1, [r4, #0]
 800217a:	4630      	mov	r0, r6
 800217c:	1a6d      	subs	r5, r5, r1
 800217e:	4629      	mov	r1, r5
 8002180:	f7ff ffa6 	bl	80020d0 <sbrk_aligned>
 8002184:	3001      	adds	r0, #1
 8002186:	d03a      	beq.n	80021fe <_malloc_r+0xea>
 8002188:	6823      	ldr	r3, [r4, #0]
 800218a:	442b      	add	r3, r5
 800218c:	6023      	str	r3, [r4, #0]
 800218e:	f8d8 3000 	ldr.w	r3, [r8]
 8002192:	685a      	ldr	r2, [r3, #4]
 8002194:	bb62      	cbnz	r2, 80021f0 <_malloc_r+0xdc>
 8002196:	f8c8 7000 	str.w	r7, [r8]
 800219a:	e00f      	b.n	80021bc <_malloc_r+0xa8>
 800219c:	6822      	ldr	r2, [r4, #0]
 800219e:	1b52      	subs	r2, r2, r5
 80021a0:	d420      	bmi.n	80021e4 <_malloc_r+0xd0>
 80021a2:	2a0b      	cmp	r2, #11
 80021a4:	d917      	bls.n	80021d6 <_malloc_r+0xc2>
 80021a6:	1961      	adds	r1, r4, r5
 80021a8:	42a3      	cmp	r3, r4
 80021aa:	6025      	str	r5, [r4, #0]
 80021ac:	bf18      	it	ne
 80021ae:	6059      	strne	r1, [r3, #4]
 80021b0:	6863      	ldr	r3, [r4, #4]
 80021b2:	bf08      	it	eq
 80021b4:	f8c8 1000 	streq.w	r1, [r8]
 80021b8:	5162      	str	r2, [r4, r5]
 80021ba:	604b      	str	r3, [r1, #4]
 80021bc:	4630      	mov	r0, r6
 80021be:	f000 f82f 	bl	8002220 <__malloc_unlock>
 80021c2:	f104 000b 	add.w	r0, r4, #11
 80021c6:	1d23      	adds	r3, r4, #4
 80021c8:	f020 0007 	bic.w	r0, r0, #7
 80021cc:	1ac2      	subs	r2, r0, r3
 80021ce:	bf1c      	itt	ne
 80021d0:	1a1b      	subne	r3, r3, r0
 80021d2:	50a3      	strne	r3, [r4, r2]
 80021d4:	e7af      	b.n	8002136 <_malloc_r+0x22>
 80021d6:	6862      	ldr	r2, [r4, #4]
 80021d8:	42a3      	cmp	r3, r4
 80021da:	bf0c      	ite	eq
 80021dc:	f8c8 2000 	streq.w	r2, [r8]
 80021e0:	605a      	strne	r2, [r3, #4]
 80021e2:	e7eb      	b.n	80021bc <_malloc_r+0xa8>
 80021e4:	4623      	mov	r3, r4
 80021e6:	6864      	ldr	r4, [r4, #4]
 80021e8:	e7ae      	b.n	8002148 <_malloc_r+0x34>
 80021ea:	463c      	mov	r4, r7
 80021ec:	687f      	ldr	r7, [r7, #4]
 80021ee:	e7b6      	b.n	800215e <_malloc_r+0x4a>
 80021f0:	461a      	mov	r2, r3
 80021f2:	685b      	ldr	r3, [r3, #4]
 80021f4:	42a3      	cmp	r3, r4
 80021f6:	d1fb      	bne.n	80021f0 <_malloc_r+0xdc>
 80021f8:	2300      	movs	r3, #0
 80021fa:	6053      	str	r3, [r2, #4]
 80021fc:	e7de      	b.n	80021bc <_malloc_r+0xa8>
 80021fe:	230c      	movs	r3, #12
 8002200:	4630      	mov	r0, r6
 8002202:	6033      	str	r3, [r6, #0]
 8002204:	f000 f80c 	bl	8002220 <__malloc_unlock>
 8002208:	e794      	b.n	8002134 <_malloc_r+0x20>
 800220a:	6005      	str	r5, [r0, #0]
 800220c:	e7d6      	b.n	80021bc <_malloc_r+0xa8>
 800220e:	bf00      	nop
 8002210:	200002b8 	.word	0x200002b8

08002214 <__malloc_lock>:
 8002214:	4801      	ldr	r0, [pc, #4]	@ (800221c <__malloc_lock+0x8>)
 8002216:	f7ff bf10 	b.w	800203a <__retarget_lock_acquire_recursive>
 800221a:	bf00      	nop
 800221c:	200002b0 	.word	0x200002b0

08002220 <__malloc_unlock>:
 8002220:	4801      	ldr	r0, [pc, #4]	@ (8002228 <__malloc_unlock+0x8>)
 8002222:	f7ff bf0b 	b.w	800203c <__retarget_lock_release_recursive>
 8002226:	bf00      	nop
 8002228:	200002b0 	.word	0x200002b0

0800222c <__sflush_r>:
 800222c:	f9b1 200c 	ldrsh.w	r2, [r1, #12]
 8002230:	b5f8      	push	{r3, r4, r5, r6, r7, lr}
 8002232:	0716      	lsls	r6, r2, #28
 8002234:	4605      	mov	r5, r0
 8002236:	460c      	mov	r4, r1
 8002238:	d454      	bmi.n	80022e4 <__sflush_r+0xb8>
 800223a:	684b      	ldr	r3, [r1, #4]
 800223c:	2b00      	cmp	r3, #0
 800223e:	dc02      	bgt.n	8002246 <__sflush_r+0x1a>
 8002240:	6c0b      	ldr	r3, [r1, #64]	@ 0x40
 8002242:	2b00      	cmp	r3, #0
 8002244:	dd48      	ble.n	80022d8 <__sflush_r+0xac>
 8002246:	6ae6      	ldr	r6, [r4, #44]	@ 0x2c
 8002248:	2e00      	cmp	r6, #0
 800224a:	d045      	beq.n	80022d8 <__sflush_r+0xac>
 800224c:	2300      	movs	r3, #0
 800224e:	f412 5280 	ands.w	r2, r2, #4096	@ 0x1000
 8002252:	682f      	ldr	r7, [r5, #0]
 8002254:	6a21      	ldr	r1, [r4, #32]
 8002256:	602b      	str	r3, [r5, #0]
 8002258:	d030      	beq.n	80022bc <__sflush_r+0x90>
 800225a:	6d62      	ldr	r2, [r4, #84]	@ 0x54
 800225c:	89a3      	ldrh	r3, [r4, #12]
 800225e:	0759      	lsls	r1, r3, #29
 8002260:	d505      	bpl.n	800226e <__sflush_r+0x42>
 8002262:	6863      	ldr	r3, [r4, #4]
 8002264:	1ad2      	subs	r2, r2, r3
 8002266:	6b63      	ldr	r3, [r4, #52]	@ 0x34
 8002268:	b10b      	cbz	r3, 800226e <__sflush_r+0x42>
 800226a:	6c23      	ldr	r3, [r4, #64]	@ 0x40
 800226c:	1ad2      	subs	r2, r2, r3
 800226e:	2300      	movs	r3, #0
 8002270:	4628      	mov	r0, r5
 8002272:	6ae6      	ldr	r6, [r4, #44]	@ 0x2c
 8002274:	6a21      	ldr	r1, [r4, #32]
 8002276:	47b0      	blx	r6
 8002278:	1c43      	adds	r3, r0, #1
 800227a:	89a3      	ldrh	r3, [r4, #12]
 800227c:	d106      	bne.n	800228c <__sflush_r+0x60>
 800227e:	6829      	ldr	r1, [r5, #0]
 8002280:	291d      	cmp	r1, #29
 8002282:	d82b      	bhi.n	80022dc <__sflush_r+0xb0>
 8002284:	4a28      	ldr	r2, [pc, #160]	@ (8002328 <__sflush_r+0xfc>)
 8002286:	40ca      	lsrs	r2, r1
 8002288:	07d6      	lsls	r6, r2, #31
 800228a:	d527      	bpl.n	80022dc <__sflush_r+0xb0>
 800228c:	2200      	movs	r2, #0
 800228e:	6062      	str	r2, [r4, #4]
 8002290:	6922      	ldr	r2, [r4, #16]
 8002292:	04d9      	lsls	r1, r3, #19
 8002294:	6022      	str	r2, [r4, #0]
 8002296:	d504      	bpl.n	80022a2 <__sflush_r+0x76>
 8002298:	1c42      	adds	r2, r0, #1
 800229a:	d101      	bne.n	80022a0 <__sflush_r+0x74>
 800229c:	682b      	ldr	r3, [r5, #0]
 800229e:	b903      	cbnz	r3, 80022a2 <__sflush_r+0x76>
 80022a0:	6560      	str	r0, [r4, #84]	@ 0x54
 80022a2:	6b61      	ldr	r1, [r4, #52]	@ 0x34
 80022a4:	602f      	str	r7, [r5, #0]
 80022a6:	b1b9      	cbz	r1, 80022d8 <__sflush_r+0xac>
 80022a8:	f104 0344 	add.w	r3, r4, #68	@ 0x44
 80022ac:	4299      	cmp	r1, r3
 80022ae:	d002      	beq.n	80022b6 <__sflush_r+0x8a>
 80022b0:	4628      	mov	r0, r5
 80022b2:	f7ff fec5 	bl	8002040 <_free_r>
 80022b6:	2300      	movs	r3, #0
 80022b8:	6363      	str	r3, [r4, #52]	@ 0x34
 80022ba:	e00d      	b.n	80022d8 <__sflush_r+0xac>
 80022bc:	2301      	movs	r3, #1
 80022be:	4628      	mov	r0, r5
 80022c0:	47b0      	blx	r6
 80022c2:	4602      	mov	r2, r0
 80022c4:	1c50      	adds	r0, r2, #1
 80022c6:	d1c9      	bne.n	800225c <__sflush_r+0x30>
 80022c8:	682b      	ldr	r3, [r5, #0]
 80022ca:	2b00      	cmp	r3, #0
 80022cc:	d0c6      	beq.n	800225c <__sflush_r+0x30>
 80022ce:	2b1d      	cmp	r3, #29
 80022d0:	d001      	beq.n	80022d6 <__sflush_r+0xaa>
 80022d2:	2b16      	cmp	r3, #22
 80022d4:	d11d      	bne.n	8002312 <__sflush_r+0xe6>
 80022d6:	602f      	str	r7, [r5, #0]
 80022d8:	2000      	movs	r0, #0
 80022da:	e021      	b.n	8002320 <__sflush_r+0xf4>
 80022dc:	f043 0340 	orr.w	r3, r3, #64	@ 0x40
 80022e0:	b21b      	sxth	r3, r3
 80022e2:	e01a      	b.n	800231a <__sflush_r+0xee>
 80022e4:	690f      	ldr	r7, [r1, #16]
 80022e6:	2f00      	cmp	r7, #0
 80022e8:	d0f6      	beq.n	80022d8 <__sflush_r+0xac>
 80022ea:	0793      	lsls	r3, r2, #30
 80022ec:	bf18      	it	ne
 80022ee:	2300      	movne	r3, #0
 80022f0:	680e      	ldr	r6, [r1, #0]
 80022f2:	bf08      	it	eq
 80022f4:	694b      	ldreq	r3, [r1, #20]
 80022f6:	1bf6      	subs	r6, r6, r7
 80022f8:	600f      	str	r7, [r1, #0]
 80022fa:	608b      	str	r3, [r1, #8]
 80022fc:	2e00      	cmp	r6, #0
 80022fe:	ddeb      	ble.n	80022d8 <__sflush_r+0xac>
 8002300:	4633      	mov	r3, r6
 8002302:	463a      	mov	r2, r7
 8002304:	4628      	mov	r0, r5
 8002306:	6a21      	ldr	r1, [r4, #32]
 8002308:	f8d4 c028 	ldr.w	ip, [r4, #40]	@ 0x28
 800230c:	47e0      	blx	ip
 800230e:	2800      	cmp	r0, #0
 8002310:	dc07      	bgt.n	8002322 <__sflush_r+0xf6>
 8002312:	f9b4 300c 	ldrsh.w	r3, [r4, #12]
 8002316:	f043 0340 	orr.w	r3, r3, #64	@ 0x40
 800231a:	f04f 30ff 	mov.w	r0, #4294967295
 800231e:	81a3      	strh	r3, [r4, #12]
 8002320:	bdf8      	pop	{r3, r4, r5, r6, r7, pc}
 8002322:	4407      	add	r7, r0
 8002324:	1a36      	subs	r6, r6, r0
 8002326:	e7e9      	b.n	80022fc <__sflush_r+0xd0>
 8002328:	20400001 	.word	0x20400001

0800232c <_fflush_r>:
 800232c:	b538      	push	{r3, r4, r5, lr}
 800232e:	690b      	ldr	r3, [r1, #16]
 8002330:	4605      	mov	r5, r0
 8002332:	460c      	mov	r4, r1
 8002334:	b913      	cbnz	r3, 800233c <_fflush_r+0x10>
 8002336:	2500      	movs	r5, #0
 8002338:	4628      	mov	r0, r5
 800233a:	bd38      	pop	{r3, r4, r5, pc}
 800233c:	b118      	cbz	r0, 8002346 <_fflush_r+0x1a>
 800233e:	6a03      	ldr	r3, [r0, #32]
 8002340:	b90b      	cbnz	r3, 8002346 <_fflush_r+0x1a>
 8002342:	f7ff fc95 	bl	8001c70 <__sinit>
 8002346:	f9b4 300c 	ldrsh.w	r3, [r4, #12]
 800234a:	2b00      	cmp	r3, #0
 800234c:	d0f3      	beq.n	8002336 <_fflush_r+0xa>
 800234e:	6e62      	ldr	r2, [r4, #100]	@ 0x64
 8002350:	07d0      	lsls	r0, r2, #31
 8002352:	d404      	bmi.n	800235e <_fflush_r+0x32>
 8002354:	0599      	lsls	r1, r3, #22
 8002356:	d402      	bmi.n	800235e <_fflush_r+0x32>
 8002358:	6da0      	ldr	r0, [r4, #88]	@ 0x58
 800235a:	f7ff fe6e 	bl	800203a <__retarget_lock_acquire_recursive>
 800235e:	4628      	mov	r0, r5
 8002360:	4621      	mov	r1, r4
 8002362:	f7ff ff63 	bl	800222c <__sflush_r>
 8002366:	6e63      	ldr	r3, [r4, #100]	@ 0x64
 8002368:	4605      	mov	r5, r0
 800236a:	07da      	lsls	r2, r3, #31
 800236c:	d4e4      	bmi.n	8002338 <_fflush_r+0xc>
 800236e:	89a3      	ldrh	r3, [r4, #12]
 8002370:	059b      	lsls	r3, r3, #22
 8002372:	d4e1      	bmi.n	8002338 <_fflush_r+0xc>
 8002374:	6da0      	ldr	r0, [r4, #88]	@ 0x58
 8002376:	f7ff fe61 	bl	800203c <__retarget_lock_release_recursive>
 800237a:	e7dd      	b.n	8002338 <_fflush_r+0xc>

0800237c <__swhatbuf_r>:
 800237c:	b570      	push	{r4, r5, r6, lr}
 800237e:	460c      	mov	r4, r1
 8002380:	f9b1 100e 	ldrsh.w	r1, [r1, #14]
 8002384:	4615      	mov	r5, r2
 8002386:	2900      	cmp	r1, #0
 8002388:	461e      	mov	r6, r3
 800238a:	b096      	sub	sp, #88	@ 0x58
 800238c:	da0c      	bge.n	80023a8 <__swhatbuf_r+0x2c>
 800238e:	89a3      	ldrh	r3, [r4, #12]
 8002390:	2100      	movs	r1, #0
 8002392:	f013 0f80 	tst.w	r3, #128	@ 0x80
 8002396:	bf14      	ite	ne
 8002398:	2340      	movne	r3, #64	@ 0x40
 800239a:	f44f 6380 	moveq.w	r3, #1024	@ 0x400
 800239e:	2000      	movs	r0, #0
 80023a0:	6031      	str	r1, [r6, #0]
 80023a2:	602b      	str	r3, [r5, #0]
 80023a4:	b016      	add	sp, #88	@ 0x58
 80023a6:	bd70      	pop	{r4, r5, r6, pc}
 80023a8:	466a      	mov	r2, sp
 80023aa:	f000 f849 	bl	8002440 <_fstat_r>
 80023ae:	2800      	cmp	r0, #0
 80023b0:	dbed      	blt.n	800238e <__swhatbuf_r+0x12>
 80023b2:	9901      	ldr	r1, [sp, #4]
 80023b4:	f401 4170 	and.w	r1, r1, #61440	@ 0xf000
 80023b8:	f5a1 5300 	sub.w	r3, r1, #8192	@ 0x2000
 80023bc:	4259      	negs	r1, r3
 80023be:	4159      	adcs	r1, r3
 80023c0:	f44f 6380 	mov.w	r3, #1024	@ 0x400
 80023c4:	e7eb      	b.n	800239e <__swhatbuf_r+0x22>

080023c6 <__smakebuf_r>:
 80023c6:	898b      	ldrh	r3, [r1, #12]
 80023c8:	b5f7      	push	{r0, r1, r2, r4, r5, r6, r7, lr}
 80023ca:	079d      	lsls	r5, r3, #30
 80023cc:	4606      	mov	r6, r0
 80023ce:	460c      	mov	r4, r1
 80023d0:	d507      	bpl.n	80023e2 <__smakebuf_r+0x1c>
 80023d2:	f104 0347 	add.w	r3, r4, #71	@ 0x47
 80023d6:	6023      	str	r3, [r4, #0]
 80023d8:	6123      	str	r3, [r4, #16]
 80023da:	2301      	movs	r3, #1
 80023dc:	6163      	str	r3, [r4, #20]
 80023de:	b003      	add	sp, #12
 80023e0:	bdf0      	pop	{r4, r5, r6, r7, pc}
 80023e2:	466a      	mov	r2, sp
 80023e4:	ab01      	add	r3, sp, #4
 80023e6:	f7ff ffc9 	bl	800237c <__swhatbuf_r>
 80023ea:	9f00      	ldr	r7, [sp, #0]
 80023ec:	4605      	mov	r5, r0
 80023ee:	4639      	mov	r1, r7
 80023f0:	4630      	mov	r0, r6
 80023f2:	f7ff fe8f 	bl	8002114 <_malloc_r>
 80023f6:	b948      	cbnz	r0, 800240c <__smakebuf_r+0x46>
 80023f8:	f9b4 300c 	ldrsh.w	r3, [r4, #12]
 80023fc:	059a      	lsls	r2, r3, #22
 80023fe:	d4ee      	bmi.n	80023de <__smakebuf_r+0x18>
 8002400:	f023 0303 	bic.w	r3, r3, #3
 8002404:	f043 0302 	orr.w	r3, r3, #2
 8002408:	81a3      	strh	r3, [r4, #12]
 800240a:	e7e2      	b.n	80023d2 <__smakebuf_r+0xc>
 800240c:	89a3      	ldrh	r3, [r4, #12]
 800240e:	e9c4 0704 	strd	r0, r7, [r4, #16]
 8002412:	f043 0380 	orr.w	r3, r3, #128	@ 0x80
 8002416:	81a3      	strh	r3, [r4, #12]
 8002418:	9b01      	ldr	r3, [sp, #4]
 800241a:	6020      	str	r0, [r4, #0]
 800241c:	b15b      	cbz	r3, 8002436 <__smakebuf_r+0x70>
 800241e:	4630      	mov	r0, r6
 8002420:	f9b4 100e 	ldrsh.w	r1, [r4, #14]
 8002424:	f000 f81e 	bl	8002464 <_isatty_r>
 8002428:	b128      	cbz	r0, 8002436 <__smakebuf_r+0x70>
 800242a:	89a3      	ldrh	r3, [r4, #12]
 800242c:	f023 0303 	bic.w	r3, r3, #3
 8002430:	f043 0301 	orr.w	r3, r3, #1
 8002434:	81a3      	strh	r3, [r4, #12]
 8002436:	89a3      	ldrh	r3, [r4, #12]
 8002438:	431d      	orrs	r5, r3
 800243a:	81a5      	strh	r5, [r4, #12]
 800243c:	e7cf      	b.n	80023de <__smakebuf_r+0x18>
	...

08002440 <_fstat_r>:
 8002440:	b538      	push	{r3, r4, r5, lr}
 8002442:	2300      	movs	r3, #0
 8002444:	4d06      	ldr	r5, [pc, #24]	@ (8002460 <_fstat_r+0x20>)
 8002446:	4604      	mov	r4, r0
 8002448:	4608      	mov	r0, r1
 800244a:	4611      	mov	r1, r2
 800244c:	602b      	str	r3, [r5, #0]
 800244e:	f7fe fa04 	bl	800085a <_fstat>
 8002452:	1c43      	adds	r3, r0, #1
 8002454:	d102      	bne.n	800245c <_fstat_r+0x1c>
 8002456:	682b      	ldr	r3, [r5, #0]
 8002458:	b103      	cbz	r3, 800245c <_fstat_r+0x1c>
 800245a:	6023      	str	r3, [r4, #0]
 800245c:	bd38      	pop	{r3, r4, r5, pc}
 800245e:	bf00      	nop
 8002460:	200002ac 	.word	0x200002ac

08002464 <_isatty_r>:
 8002464:	b538      	push	{r3, r4, r5, lr}
 8002466:	2300      	movs	r3, #0
 8002468:	4d05      	ldr	r5, [pc, #20]	@ (8002480 <_isatty_r+0x1c>)
 800246a:	4604      	mov	r4, r0
 800246c:	4608      	mov	r0, r1
 800246e:	602b      	str	r3, [r5, #0]
 8002470:	f7fe f9f8 	bl	8000864 <_isatty>
 8002474:	1c43      	adds	r3, r0, #1
 8002476:	d102      	bne.n	800247e <_isatty_r+0x1a>
 8002478:	682b      	ldr	r3, [r5, #0]
 800247a:	b103      	cbz	r3, 800247e <_isatty_r+0x1a>
 800247c:	6023      	str	r3, [r4, #0]
 800247e:	bd38      	pop	{r3, r4, r5, pc}
 8002480:	200002ac 	.word	0x200002ac

08002484 <_sbrk_r>:
 8002484:	b538      	push	{r3, r4, r5, lr}
 8002486:	2300      	movs	r3, #0
 8002488:	4d05      	ldr	r5, [pc, #20]	@ (80024a0 <_sbrk_r+0x1c>)
 800248a:	4604      	mov	r4, r0
 800248c:	4608      	mov	r0, r1
 800248e:	602b      	str	r3, [r5, #0]
 8002490:	f7fe f9ec 	bl	800086c <_sbrk>
 8002494:	1c43      	adds	r3, r0, #1
 8002496:	d102      	bne.n	800249e <_sbrk_r+0x1a>
 8002498:	682b      	ldr	r3, [r5, #0]
 800249a:	b103      	cbz	r3, 800249e <_sbrk_r+0x1a>
 800249c:	6023      	str	r3, [r4, #0]
 800249e:	bd38      	pop	{r3, r4, r5, pc}
 80024a0:	200002ac 	.word	0x200002ac

080024a4 <_init>:
 80024a4:	b5f8      	push	{r3, r4, r5, r6, r7, lr}
 80024a6:	bf00      	nop
 80024a8:	bcf8      	pop	{r3, r4, r5, r6, r7}
 80024aa:	bc08      	pop	{r3}
 80024ac:	469e      	mov	lr, r3
 80024ae:	4770      	bx	lr

080024b0 <_fini>:
 80024b0:	b5f8      	push	{r3, r4, r5, r6, r7, lr}
 80024b2:	bf00      	nop
 80024b4:	bcf8      	pop	{r3, r4, r5, r6, r7}
 80024b6:	bc08      	pop	{r3}
 80024b8:	469e      	mov	lr, r3
 80024ba:	4770      	bx	lr
