
L2Gen2_Cnt_FW.elf:     file format elf32-littlearm

Sections:
Idx Name          Size      VMA       LMA       File off  Algn
  0 .isr_vector   0000010c  08003800  08003800  00000800  2**0
                  CONTENTS, ALLOC, LOAD, READONLY, DATA
  1 .text         0000827c  08003910  08003910  00000910  2**3
                  CONTENTS, ALLOC, LOAD, READONLY, CODE
  2 .rodata       00000070  0800bb8c  0800bb8c  00008b8c  2**0
                  CONTENTS, ALLOC, LOAD, READONLY, DATA
  3 .ARM.extab    00000000  0800bbfc  0800bbfc  00009070  2**0
                  CONTENTS, READONLY
  4 .ARM          00000000  0800bbfc  0800bbfc  00009070  2**0
                  CONTENTS, READONLY
  5 .preinit_array 00000000  0800bbfc  0800bbfc  00009070  2**0
                  CONTENTS, ALLOC, LOAD, DATA
  6 .init_array   00000004  0800bbfc  0800bbfc  00008bfc  2**2
                  CONTENTS, ALLOC, LOAD, READONLY, DATA
  7 .fini_array   00000004  0800bc00  0800bc00  00008c00  2**2
                  CONTENTS, ALLOC, LOAD, READONLY, DATA
  8 .data         00000070  20000000  0800bc04  00009000  2**2
                  CONTENTS, ALLOC, LOAD, DATA
  9 .bss          0000181c  20000070  0800bc74  00009070  2**3
                  ALLOC
 10 ._user_heap_stack 00000604  2000188c  0800bc74  0000988c  2**0
                  ALLOC
 11 .ARM.attributes 00000029  00000000  00000000  00009070  2**0
                  CONTENTS, READONLY
 12 .debug_info   0002744d  00000000  00000000  00009099  2**0
                  CONTENTS, READONLY, DEBUGGING, OCTETS
 13 .debug_abbrev 00006893  00000000  00000000  000304e6  2**0
                  CONTENTS, READONLY, DEBUGGING, OCTETS
 14 .debug_loclists 0000c01b  00000000  00000000  00036d79  2**0
                  CONTENTS, READONLY, DEBUGGING, OCTETS
 15 .debug_aranges 00001968  00000000  00000000  00042d98  2**3
                  CONTENTS, READONLY, DEBUGGING, OCTETS
 16 .debug_rnglists 000018b2  00000000  00000000  00044700  2**0
                  CONTENTS, READONLY, DEBUGGING, OCTETS
 17 .debug_macro  0001fdc2  00000000  00000000  00045fb2  2**0
                  CONTENTS, READONLY, DEBUGGING, OCTETS
 18 .debug_line   0002c46a  00000000  00000000  00065d74  2**0
                  CONTENTS, READONLY, DEBUGGING, OCTETS
 19 .debug_str    0009ad5f  00000000  00000000  000921de  2**0
                  CONTENTS, READONLY, DEBUGGING, OCTETS
 20 .comment      00000043  00000000  00000000  0012cf3d  2**0
                  CONTENTS, READONLY
 21 .debug_frame  0000506c  00000000  00000000  0012cf80  2**2
                  CONTENTS, READONLY, DEBUGGING, OCTETS
 22 .debug_line_str 0000005d  00000000  00000000  00131fec  2**0
                  CONTENTS, READONLY, DEBUGGING, OCTETS

Disassembly of section .text:

08003910 <__do_global_dtors_aux>:
 8003910:	b510      	push	{r4, lr}
 8003912:	4c05      	ldr	r4, [pc, #20]	@ (8003928 <__do_global_dtors_aux+0x18>)
 8003914:	7823      	ldrb	r3, [r4, #0]
 8003916:	b933      	cbnz	r3, 8003926 <__do_global_dtors_aux+0x16>
 8003918:	4b04      	ldr	r3, [pc, #16]	@ (800392c <__do_global_dtors_aux+0x1c>)
 800391a:	b113      	cbz	r3, 8003922 <__do_global_dtors_aux+0x12>
 800391c:	4804      	ldr	r0, [pc, #16]	@ (8003930 <__do_global_dtors_aux+0x20>)
 800391e:	f3af 8000 	nop.w
 8003922:	2301      	movs	r3, #1
 8003924:	7023      	strb	r3, [r4, #0]
 8003926:	bd10      	pop	{r4, pc}
 8003928:	20000070 	.word	0x20000070
 800392c:	00000000 	.word	0x00000000
 8003930:	0800bb74 	.word	0x0800bb74

08003934 <frame_dummy>:
 8003934:	b508      	push	{r3, lr}
 8003936:	4b03      	ldr	r3, [pc, #12]	@ (8003944 <frame_dummy+0x10>)
 8003938:	b11b      	cbz	r3, 8003942 <frame_dummy+0xe>
 800393a:	4903      	ldr	r1, [pc, #12]	@ (8003948 <frame_dummy+0x14>)
 800393c:	4803      	ldr	r0, [pc, #12]	@ (800394c <frame_dummy+0x18>)
 800393e:	f3af 8000 	nop.w
 8003942:	bd08      	pop	{r3, pc}
 8003944:	00000000 	.word	0x00000000
 8003948:	20000074 	.word	0x20000074
 800394c:	0800bb74 	.word	0x0800bb74

08003950 <__aeabi_drsub>:
 8003950:	f081 4100 	eor.w	r1, r1, #2147483648	@ 0x80000000
 8003954:	e002      	b.n	800395c <__adddf3>
 8003956:	bf00      	nop

08003958 <__aeabi_dsub>:
 8003958:	f083 4300 	eor.w	r3, r3, #2147483648	@ 0x80000000

0800395c <__adddf3>:
 800395c:	b530      	push	{r4, r5, lr}
 800395e:	ea4f 0441 	mov.w	r4, r1, lsl #1
 8003962:	ea4f 0543 	mov.w	r5, r3, lsl #1
 8003966:	ea94 0f05 	teq	r4, r5
 800396a:	bf08      	it	eq
 800396c:	ea90 0f02 	teqeq	r0, r2
 8003970:	bf1f      	itttt	ne
 8003972:	ea54 0c00 	orrsne.w	ip, r4, r0
 8003976:	ea55 0c02 	orrsne.w	ip, r5, r2
 800397a:	ea7f 5c64 	mvnsne.w	ip, r4, asr #21
 800397e:	ea7f 5c65 	mvnsne.w	ip, r5, asr #21
 8003982:	f000 80e2 	beq.w	8003b4a <__adddf3+0x1ee>
 8003986:	ea4f 5454 	mov.w	r4, r4, lsr #21
 800398a:	ebd4 5555 	rsbs	r5, r4, r5, lsr #21
 800398e:	bfb8      	it	lt
 8003990:	426d      	neglt	r5, r5
 8003992:	dd0c      	ble.n	80039ae <__adddf3+0x52>
 8003994:	442c      	add	r4, r5
 8003996:	ea80 0202 	eor.w	r2, r0, r2
 800399a:	ea81 0303 	eor.w	r3, r1, r3
 800399e:	ea82 0000 	eor.w	r0, r2, r0
 80039a2:	ea83 0101 	eor.w	r1, r3, r1
 80039a6:	ea80 0202 	eor.w	r2, r0, r2
 80039aa:	ea81 0303 	eor.w	r3, r1, r3
 80039ae:	2d36      	cmp	r5, #54	@ 0x36
 80039b0:	bf88      	it	hi
 80039b2:	bd30      	pophi	{r4, r5, pc}
 80039b4:	f011 4f00 	tst.w	r1, #2147483648	@ 0x80000000
 80039b8:	ea4f 3101 	mov.w	r1, r1, lsl #12
 80039bc:	f44f 1c80 	mov.w	ip, #1048576	@ 0x100000
 80039c0:	ea4c 3111 	orr.w	r1, ip, r1, lsr #12
 80039c4:	d002      	beq.n	80039cc <__adddf3+0x70>
 80039c6:	4240      	negs	r0, r0
 80039c8:	eb61 0141 	sbc.w	r1, r1, r1, lsl #1
 80039cc:	f013 4f00 	tst.w	r3, #2147483648	@ 0x80000000
 80039d0:	ea4f 3303 	mov.w	r3, r3, lsl #12
 80039d4:	ea4c 3313 	orr.w	r3, ip, r3, lsr #12
 80039d8:	d002      	beq.n	80039e0 <__adddf3+0x84>
 80039da:	4252      	negs	r2, r2
 80039dc:	eb63 0343 	sbc.w	r3, r3, r3, lsl #1
 80039e0:	ea94 0f05 	teq	r4, r5
 80039e4:	f000 80a7 	beq.w	8003b36 <__adddf3+0x1da>
 80039e8:	f1a4 0401 	sub.w	r4, r4, #1
 80039ec:	f1d5 0e20 	rsbs	lr, r5, #32
 80039f0:	db0d      	blt.n	8003a0e <__adddf3+0xb2>
 80039f2:	fa02 fc0e 	lsl.w	ip, r2, lr
 80039f6:	fa22 f205 	lsr.w	r2, r2, r5
 80039fa:	1880      	adds	r0, r0, r2
 80039fc:	f141 0100 	adc.w	r1, r1, #0
 8003a00:	fa03 f20e 	lsl.w	r2, r3, lr
 8003a04:	1880      	adds	r0, r0, r2
 8003a06:	fa43 f305 	asr.w	r3, r3, r5
 8003a0a:	4159      	adcs	r1, r3
 8003a0c:	e00e      	b.n	8003a2c <__adddf3+0xd0>
 8003a0e:	f1a5 0520 	sub.w	r5, r5, #32
 8003a12:	f10e 0e20 	add.w	lr, lr, #32
 8003a16:	2a01      	cmp	r2, #1
 8003a18:	fa03 fc0e 	lsl.w	ip, r3, lr
 8003a1c:	bf28      	it	cs
 8003a1e:	f04c 0c02 	orrcs.w	ip, ip, #2
 8003a22:	fa43 f305 	asr.w	r3, r3, r5
 8003a26:	18c0      	adds	r0, r0, r3
 8003a28:	eb51 71e3 	adcs.w	r1, r1, r3, asr #31
 8003a2c:	f001 4500 	and.w	r5, r1, #2147483648	@ 0x80000000
 8003a30:	d507      	bpl.n	8003a42 <__adddf3+0xe6>
 8003a32:	f04f 0e00 	mov.w	lr, #0
 8003a36:	f1dc 0c00 	rsbs	ip, ip, #0
 8003a3a:	eb7e 0000 	sbcs.w	r0, lr, r0
 8003a3e:	eb6e 0101 	sbc.w	r1, lr, r1
 8003a42:	f5b1 1f80 	cmp.w	r1, #1048576	@ 0x100000
 8003a46:	d31b      	bcc.n	8003a80 <__adddf3+0x124>
 8003a48:	f5b1 1f00 	cmp.w	r1, #2097152	@ 0x200000
 8003a4c:	d30c      	bcc.n	8003a68 <__adddf3+0x10c>
 8003a4e:	0849      	lsrs	r1, r1, #1
 8003a50:	ea5f 0030 	movs.w	r0, r0, rrx
 8003a54:	ea4f 0c3c 	mov.w	ip, ip, rrx
 8003a58:	f104 0401 	add.w	r4, r4, #1
 8003a5c:	ea4f 5244 	mov.w	r2, r4, lsl #21
 8003a60:	f512 0f80 	cmn.w	r2, #4194304	@ 0x400000
 8003a64:	f080 809a 	bcs.w	8003b9c <__adddf3+0x240>
 8003a68:	f1bc 4f00 	cmp.w	ip, #2147483648	@ 0x80000000
 8003a6c:	bf08      	it	eq
 8003a6e:	ea5f 0c50 	movseq.w	ip, r0, lsr #1
 8003a72:	f150 0000 	adcs.w	r0, r0, #0
 8003a76:	eb41 5104 	adc.w	r1, r1, r4, lsl #20
 8003a7a:	ea41 0105 	orr.w	r1, r1, r5
 8003a7e:	bd30      	pop	{r4, r5, pc}
 8003a80:	ea5f 0c4c 	movs.w	ip, ip, lsl #1
 8003a84:	4140      	adcs	r0, r0
 8003a86:	eb41 0101 	adc.w	r1, r1, r1
 8003a8a:	3c01      	subs	r4, #1
 8003a8c:	bf28      	it	cs
 8003a8e:	f5b1 1f80 	cmpcs.w	r1, #1048576	@ 0x100000
 8003a92:	d2e9      	bcs.n	8003a68 <__adddf3+0x10c>
 8003a94:	f091 0f00 	teq	r1, #0
 8003a98:	bf04      	itt	eq
 8003a9a:	4601      	moveq	r1, r0
 8003a9c:	2000      	moveq	r0, #0
 8003a9e:	fab1 f381 	clz	r3, r1
 8003aa2:	bf08      	it	eq
 8003aa4:	3320      	addeq	r3, #32
 8003aa6:	f1a3 030b 	sub.w	r3, r3, #11
 8003aaa:	f1b3 0220 	subs.w	r2, r3, #32
 8003aae:	da0c      	bge.n	8003aca <__adddf3+0x16e>
 8003ab0:	320c      	adds	r2, #12
 8003ab2:	dd08      	ble.n	8003ac6 <__adddf3+0x16a>
 8003ab4:	f102 0c14 	add.w	ip, r2, #20
 8003ab8:	f1c2 020c 	rsb	r2, r2, #12
 8003abc:	fa01 f00c 	lsl.w	r0, r1, ip
 8003ac0:	fa21 f102 	lsr.w	r1, r1, r2
 8003ac4:	e00c      	b.n	8003ae0 <__adddf3+0x184>
 8003ac6:	f102 0214 	add.w	r2, r2, #20
 8003aca:	bfd8      	it	le
 8003acc:	f1c2 0c20 	rsble	ip, r2, #32
 8003ad0:	fa01 f102 	lsl.w	r1, r1, r2
 8003ad4:	fa20 fc0c 	lsr.w	ip, r0, ip
 8003ad8:	bfdc      	itt	le
 8003ada:	ea41 010c 	orrle.w	r1, r1, ip
 8003ade:	4090      	lslle	r0, r2
 8003ae0:	1ae4      	subs	r4, r4, r3
 8003ae2:	bfa2      	ittt	ge
 8003ae4:	eb01 5104 	addge.w	r1, r1, r4, lsl #20
 8003ae8:	4329      	orrge	r1, r5
 8003aea:	bd30      	popge	{r4, r5, pc}
 8003aec:	ea6f 0404 	mvn.w	r4, r4
 8003af0:	3c1f      	subs	r4, #31
 8003af2:	da1c      	bge.n	8003b2e <__adddf3+0x1d2>
 8003af4:	340c      	adds	r4, #12
 8003af6:	dc0e      	bgt.n	8003b16 <__adddf3+0x1ba>
 8003af8:	f104 0414 	add.w	r4, r4, #20
 8003afc:	f1c4 0220 	rsb	r2, r4, #32
 8003b00:	fa20 f004 	lsr.w	r0, r0, r4
 8003b04:	fa01 f302 	lsl.w	r3, r1, r2
 8003b08:	ea40 0003 	orr.w	r0, r0, r3
 8003b0c:	fa21 f304 	lsr.w	r3, r1, r4
 8003b10:	ea45 0103 	orr.w	r1, r5, r3
 8003b14:	bd30      	pop	{r4, r5, pc}
 8003b16:	f1c4 040c 	rsb	r4, r4, #12
 8003b1a:	f1c4 0220 	rsb	r2, r4, #32
 8003b1e:	fa20 f002 	lsr.w	r0, r0, r2
 8003b22:	fa01 f304 	lsl.w	r3, r1, r4
 8003b26:	ea40 0003 	orr.w	r0, r0, r3
 8003b2a:	4629      	mov	r1, r5
 8003b2c:	bd30      	pop	{r4, r5, pc}
 8003b2e:	fa21 f004 	lsr.w	r0, r1, r4
 8003b32:	4629      	mov	r1, r5
 8003b34:	bd30      	pop	{r4, r5, pc}
 8003b36:	f094 0f00 	teq	r4, #0
 8003b3a:	f483 1380 	eor.w	r3, r3, #1048576	@ 0x100000
 8003b3e:	bf06      	itte	eq
 8003b40:	f481 1180 	eoreq.w	r1, r1, #1048576	@ 0x100000
 8003b44:	3401      	addeq	r4, #1
 8003b46:	3d01      	subne	r5, #1
 8003b48:	e74e      	b.n	80039e8 <__adddf3+0x8c>
 8003b4a:	ea7f 5c64 	mvns.w	ip, r4, asr #21
 8003b4e:	bf18      	it	ne
 8003b50:	ea7f 5c65 	mvnsne.w	ip, r5, asr #21
 8003b54:	d029      	beq.n	8003baa <__adddf3+0x24e>
 8003b56:	ea94 0f05 	teq	r4, r5
 8003b5a:	bf08      	it	eq
 8003b5c:	ea90 0f02 	teqeq	r0, r2
 8003b60:	d005      	beq.n	8003b6e <__adddf3+0x212>
 8003b62:	ea54 0c00 	orrs.w	ip, r4, r0
 8003b66:	bf04      	itt	eq
 8003b68:	4619      	moveq	r1, r3
 8003b6a:	4610      	moveq	r0, r2
 8003b6c:	bd30      	pop	{r4, r5, pc}
 8003b6e:	ea91 0f03 	teq	r1, r3
 8003b72:	bf1e      	ittt	ne
 8003b74:	2100      	movne	r1, #0
 8003b76:	2000      	movne	r0, #0
 8003b78:	bd30      	popne	{r4, r5, pc}
 8003b7a:	ea5f 5c54 	movs.w	ip, r4, lsr #21
 8003b7e:	d105      	bne.n	8003b8c <__adddf3+0x230>
 8003b80:	0040      	lsls	r0, r0, #1
 8003b82:	4149      	adcs	r1, r1
 8003b84:	bf28      	it	cs
 8003b86:	f041 4100 	orrcs.w	r1, r1, #2147483648	@ 0x80000000
 8003b8a:	bd30      	pop	{r4, r5, pc}
 8003b8c:	f514 0480 	adds.w	r4, r4, #4194304	@ 0x400000
 8003b90:	bf3c      	itt	cc
 8003b92:	f501 1180 	addcc.w	r1, r1, #1048576	@ 0x100000
 8003b96:	bd30      	popcc	{r4, r5, pc}
 8003b98:	f001 4500 	and.w	r5, r1, #2147483648	@ 0x80000000
 8003b9c:	f045 41fe 	orr.w	r1, r5, #2130706432	@ 0x7f000000
 8003ba0:	f441 0170 	orr.w	r1, r1, #15728640	@ 0xf00000
 8003ba4:	f04f 0000 	mov.w	r0, #0
 8003ba8:	bd30      	pop	{r4, r5, pc}
 8003baa:	ea7f 5c64 	mvns.w	ip, r4, asr #21
 8003bae:	bf1a      	itte	ne
 8003bb0:	4619      	movne	r1, r3
 8003bb2:	4610      	movne	r0, r2
 8003bb4:	ea7f 5c65 	mvnseq.w	ip, r5, asr #21
 8003bb8:	bf1c      	itt	ne
 8003bba:	460b      	movne	r3, r1
 8003bbc:	4602      	movne	r2, r0
 8003bbe:	ea50 3401 	orrs.w	r4, r0, r1, lsl #12
 8003bc2:	bf06      	itte	eq
 8003bc4:	ea52 3503 	orrseq.w	r5, r2, r3, lsl #12
 8003bc8:	ea91 0f03 	teqeq	r1, r3
 8003bcc:	f441 2100 	orrne.w	r1, r1, #524288	@ 0x80000
 8003bd0:	bd30      	pop	{r4, r5, pc}
 8003bd2:	bf00      	nop

08003bd4 <__aeabi_ui2d>:
 8003bd4:	f090 0f00 	teq	r0, #0
 8003bd8:	bf04      	itt	eq
 8003bda:	2100      	moveq	r1, #0
 8003bdc:	4770      	bxeq	lr
 8003bde:	b530      	push	{r4, r5, lr}
 8003be0:	f44f 6480 	mov.w	r4, #1024	@ 0x400
 8003be4:	f104 0432 	add.w	r4, r4, #50	@ 0x32
 8003be8:	f04f 0500 	mov.w	r5, #0
 8003bec:	f04f 0100 	mov.w	r1, #0
 8003bf0:	e750      	b.n	8003a94 <__adddf3+0x138>
 8003bf2:	bf00      	nop

08003bf4 <__aeabi_i2d>:
 8003bf4:	f090 0f00 	teq	r0, #0
 8003bf8:	bf04      	itt	eq
 8003bfa:	2100      	moveq	r1, #0
 8003bfc:	4770      	bxeq	lr
 8003bfe:	b530      	push	{r4, r5, lr}
 8003c00:	f44f 6480 	mov.w	r4, #1024	@ 0x400
 8003c04:	f104 0432 	add.w	r4, r4, #50	@ 0x32
 8003c08:	f010 4500 	ands.w	r5, r0, #2147483648	@ 0x80000000
 8003c0c:	bf48      	it	mi
 8003c0e:	4240      	negmi	r0, r0
 8003c10:	f04f 0100 	mov.w	r1, #0
 8003c14:	e73e      	b.n	8003a94 <__adddf3+0x138>
 8003c16:	bf00      	nop

08003c18 <__aeabi_f2d>:
 8003c18:	0042      	lsls	r2, r0, #1
 8003c1a:	ea4f 01e2 	mov.w	r1, r2, asr #3
 8003c1e:	ea4f 0131 	mov.w	r1, r1, rrx
 8003c22:	ea4f 7002 	mov.w	r0, r2, lsl #28
 8003c26:	bf1f      	itttt	ne
 8003c28:	f012 437f 	andsne.w	r3, r2, #4278190080	@ 0xff000000
 8003c2c:	f093 4f7f 	teqne	r3, #4278190080	@ 0xff000000
 8003c30:	f081 5160 	eorne.w	r1, r1, #939524096	@ 0x38000000
 8003c34:	4770      	bxne	lr
 8003c36:	f032 427f 	bics.w	r2, r2, #4278190080	@ 0xff000000
 8003c3a:	bf08      	it	eq
 8003c3c:	4770      	bxeq	lr
 8003c3e:	f093 4f7f 	teq	r3, #4278190080	@ 0xff000000
 8003c42:	bf04      	itt	eq
 8003c44:	f441 2100 	orreq.w	r1, r1, #524288	@ 0x80000
 8003c48:	4770      	bxeq	lr
 8003c4a:	b530      	push	{r4, r5, lr}
 8003c4c:	f44f 7460 	mov.w	r4, #896	@ 0x380
 8003c50:	f001 4500 	and.w	r5, r1, #2147483648	@ 0x80000000
 8003c54:	f021 4100 	bic.w	r1, r1, #2147483648	@ 0x80000000
 8003c58:	e71c      	b.n	8003a94 <__adddf3+0x138>
 8003c5a:	bf00      	nop

08003c5c <__aeabi_ul2d>:
 8003c5c:	ea50 0201 	orrs.w	r2, r0, r1
 8003c60:	bf08      	it	eq
 8003c62:	4770      	bxeq	lr
 8003c64:	b530      	push	{r4, r5, lr}
 8003c66:	f04f 0500 	mov.w	r5, #0
 8003c6a:	e00a      	b.n	8003c82 <__aeabi_l2d+0x16>

08003c6c <__aeabi_l2d>:
 8003c6c:	ea50 0201 	orrs.w	r2, r0, r1
 8003c70:	bf08      	it	eq
 8003c72:	4770      	bxeq	lr
 8003c74:	b530      	push	{r4, r5, lr}
 8003c76:	f011 4500 	ands.w	r5, r1, #2147483648	@ 0x80000000
 8003c7a:	d502      	bpl.n	8003c82 <__aeabi_l2d+0x16>
 8003c7c:	4240      	negs	r0, r0
 8003c7e:	eb61 0141 	sbc.w	r1, r1, r1, lsl #1
 8003c82:	f44f 6480 	mov.w	r4, #1024	@ 0x400
 8003c86:	f104 0432 	add.w	r4, r4, #50	@ 0x32
 8003c8a:	ea5f 5c91 	movs.w	ip, r1, lsr #22
 8003c8e:	f43f aed8 	beq.w	8003a42 <__adddf3+0xe6>
 8003c92:	f04f 0203 	mov.w	r2, #3
 8003c96:	ea5f 0cdc 	movs.w	ip, ip, lsr #3
 8003c9a:	bf18      	it	ne
 8003c9c:	3203      	addne	r2, #3
 8003c9e:	ea5f 0cdc 	movs.w	ip, ip, lsr #3
 8003ca2:	bf18      	it	ne
 8003ca4:	3203      	addne	r2, #3
 8003ca6:	eb02 02dc 	add.w	r2, r2, ip, lsr #3
 8003caa:	f1c2 0320 	rsb	r3, r2, #32
 8003cae:	fa00 fc03 	lsl.w	ip, r0, r3
 8003cb2:	fa20 f002 	lsr.w	r0, r0, r2
 8003cb6:	fa01 fe03 	lsl.w	lr, r1, r3
 8003cba:	ea40 000e 	orr.w	r0, r0, lr
 8003cbe:	fa21 f102 	lsr.w	r1, r1, r2
 8003cc2:	4414      	add	r4, r2
 8003cc4:	e6bd      	b.n	8003a42 <__adddf3+0xe6>
 8003cc6:	bf00      	nop

08003cc8 <__aeabi_dmul>:
 8003cc8:	b570      	push	{r4, r5, r6, lr}
 8003cca:	f04f 0cff 	mov.w	ip, #255	@ 0xff
 8003cce:	f44c 6ce0 	orr.w	ip, ip, #1792	@ 0x700
 8003cd2:	ea1c 5411 	ands.w	r4, ip, r1, lsr #20
 8003cd6:	bf1d      	ittte	ne
 8003cd8:	ea1c 5513 	andsne.w	r5, ip, r3, lsr #20
 8003cdc:	ea94 0f0c 	teqne	r4, ip
 8003ce0:	ea95 0f0c 	teqne	r5, ip
 8003ce4:	f000 f8de 	bleq	8003ea4 <__aeabi_dmul+0x1dc>
 8003ce8:	442c      	add	r4, r5
 8003cea:	ea81 0603 	eor.w	r6, r1, r3
 8003cee:	ea21 514c 	bic.w	r1, r1, ip, lsl #21
 8003cf2:	ea23 534c 	bic.w	r3, r3, ip, lsl #21
 8003cf6:	ea50 3501 	orrs.w	r5, r0, r1, lsl #12
 8003cfa:	bf18      	it	ne
 8003cfc:	ea52 3503 	orrsne.w	r5, r2, r3, lsl #12
 8003d00:	f441 1180 	orr.w	r1, r1, #1048576	@ 0x100000
 8003d04:	f443 1380 	orr.w	r3, r3, #1048576	@ 0x100000
 8003d08:	d038      	beq.n	8003d7c <__aeabi_dmul+0xb4>
 8003d0a:	fba0 ce02 	umull	ip, lr, r0, r2
 8003d0e:	f04f 0500 	mov.w	r5, #0
 8003d12:	fbe1 e502 	umlal	lr, r5, r1, r2
 8003d16:	f006 4200 	and.w	r2, r6, #2147483648	@ 0x80000000
 8003d1a:	fbe0 e503 	umlal	lr, r5, r0, r3
 8003d1e:	f04f 0600 	mov.w	r6, #0
 8003d22:	fbe1 5603 	umlal	r5, r6, r1, r3
 8003d26:	f09c 0f00 	teq	ip, #0
 8003d2a:	bf18      	it	ne
 8003d2c:	f04e 0e01 	orrne.w	lr, lr, #1
 8003d30:	f1a4 04ff 	sub.w	r4, r4, #255	@ 0xff
 8003d34:	f5b6 7f00 	cmp.w	r6, #512	@ 0x200
 8003d38:	f564 7440 	sbc.w	r4, r4, #768	@ 0x300
 8003d3c:	d204      	bcs.n	8003d48 <__aeabi_dmul+0x80>
 8003d3e:	ea5f 0e4e 	movs.w	lr, lr, lsl #1
 8003d42:	416d      	adcs	r5, r5
 8003d44:	eb46 0606 	adc.w	r6, r6, r6
 8003d48:	ea42 21c6 	orr.w	r1, r2, r6, lsl #11
 8003d4c:	ea41 5155 	orr.w	r1, r1, r5, lsr #21
 8003d50:	ea4f 20c5 	mov.w	r0, r5, lsl #11
 8003d54:	ea40 505e 	orr.w	r0, r0, lr, lsr #21
 8003d58:	ea4f 2ece 	mov.w	lr, lr, lsl #11
 8003d5c:	f1b4 0cfd 	subs.w	ip, r4, #253	@ 0xfd
 8003d60:	bf88      	it	hi
 8003d62:	f5bc 6fe0 	cmphi.w	ip, #1792	@ 0x700
 8003d66:	d81e      	bhi.n	8003da6 <__aeabi_dmul+0xde>
 8003d68:	f1be 4f00 	cmp.w	lr, #2147483648	@ 0x80000000
 8003d6c:	bf08      	it	eq
 8003d6e:	ea5f 0e50 	movseq.w	lr, r0, lsr #1
 8003d72:	f150 0000 	adcs.w	r0, r0, #0
 8003d76:	eb41 5104 	adc.w	r1, r1, r4, lsl #20
 8003d7a:	bd70      	pop	{r4, r5, r6, pc}
 8003d7c:	f006 4600 	and.w	r6, r6, #2147483648	@ 0x80000000
 8003d80:	ea46 0101 	orr.w	r1, r6, r1
 8003d84:	ea40 0002 	orr.w	r0, r0, r2
 8003d88:	ea81 0103 	eor.w	r1, r1, r3
 8003d8c:	ebb4 045c 	subs.w	r4, r4, ip, lsr #1
 8003d90:	bfc2      	ittt	gt
 8003d92:	ebd4 050c 	rsbsgt	r5, r4, ip
 8003d96:	ea41 5104 	orrgt.w	r1, r1, r4, lsl #20
 8003d9a:	bd70      	popgt	{r4, r5, r6, pc}
 8003d9c:	f441 1180 	orr.w	r1, r1, #1048576	@ 0x100000
 8003da0:	f04f 0e00 	mov.w	lr, #0
 8003da4:	3c01      	subs	r4, #1
 8003da6:	f300 80ab 	bgt.w	8003f00 <__aeabi_dmul+0x238>
 8003daa:	f114 0f36 	cmn.w	r4, #54	@ 0x36
 8003dae:	bfde      	ittt	le
 8003db0:	2000      	movle	r0, #0
 8003db2:	f001 4100 	andle.w	r1, r1, #2147483648	@ 0x80000000
 8003db6:	bd70      	pople	{r4, r5, r6, pc}
 8003db8:	f1c4 0400 	rsb	r4, r4, #0
 8003dbc:	3c20      	subs	r4, #32
 8003dbe:	da35      	bge.n	8003e2c <__aeabi_dmul+0x164>
 8003dc0:	340c      	adds	r4, #12
 8003dc2:	dc1b      	bgt.n	8003dfc <__aeabi_dmul+0x134>
 8003dc4:	f104 0414 	add.w	r4, r4, #20
 8003dc8:	f1c4 0520 	rsb	r5, r4, #32
 8003dcc:	fa00 f305 	lsl.w	r3, r0, r5
 8003dd0:	fa20 f004 	lsr.w	r0, r0, r4
 8003dd4:	fa01 f205 	lsl.w	r2, r1, r5
 8003dd8:	ea40 0002 	orr.w	r0, r0, r2
 8003ddc:	f001 4200 	and.w	r2, r1, #2147483648	@ 0x80000000
 8003de0:	f021 4100 	bic.w	r1, r1, #2147483648	@ 0x80000000
 8003de4:	eb10 70d3 	adds.w	r0, r0, r3, lsr #31
 8003de8:	fa21 f604 	lsr.w	r6, r1, r4
 8003dec:	eb42 0106 	adc.w	r1, r2, r6
 8003df0:	ea5e 0e43 	orrs.w	lr, lr, r3, lsl #1
 8003df4:	bf08      	it	eq
 8003df6:	ea20 70d3 	biceq.w	r0, r0, r3, lsr #31
 8003dfa:	bd70      	pop	{r4, r5, r6, pc}
 8003dfc:	f1c4 040c 	rsb	r4, r4, #12
 8003e00:	f1c4 0520 	rsb	r5, r4, #32
 8003e04:	fa00 f304 	lsl.w	r3, r0, r4
 8003e08:	fa20 f005 	lsr.w	r0, r0, r5
 8003e0c:	fa01 f204 	lsl.w	r2, r1, r4
 8003e10:	ea40 0002 	orr.w	r0, r0, r2
 8003e14:	f001 4100 	and.w	r1, r1, #2147483648	@ 0x80000000
 8003e18:	eb10 70d3 	adds.w	r0, r0, r3, lsr #31
 8003e1c:	f141 0100 	adc.w	r1, r1, #0
 8003e20:	ea5e 0e43 	orrs.w	lr, lr, r3, lsl #1
 8003e24:	bf08      	it	eq
 8003e26:	ea20 70d3 	biceq.w	r0, r0, r3, lsr #31
 8003e2a:	bd70      	pop	{r4, r5, r6, pc}
 8003e2c:	f1c4 0520 	rsb	r5, r4, #32
 8003e30:	fa00 f205 	lsl.w	r2, r0, r5
 8003e34:	ea4e 0e02 	orr.w	lr, lr, r2
 8003e38:	fa20 f304 	lsr.w	r3, r0, r4
 8003e3c:	fa01 f205 	lsl.w	r2, r1, r5
 8003e40:	ea43 0302 	orr.w	r3, r3, r2
 8003e44:	fa21 f004 	lsr.w	r0, r1, r4
 8003e48:	f001 4100 	and.w	r1, r1, #2147483648	@ 0x80000000
 8003e4c:	fa21 f204 	lsr.w	r2, r1, r4
 8003e50:	ea20 0002 	bic.w	r0, r0, r2
 8003e54:	eb00 70d3 	add.w	r0, r0, r3, lsr #31
 8003e58:	ea5e 0e43 	orrs.w	lr, lr, r3, lsl #1
 8003e5c:	bf08      	it	eq
 8003e5e:	ea20 70d3 	biceq.w	r0, r0, r3, lsr #31
 8003e62:	bd70      	pop	{r4, r5, r6, pc}
 8003e64:	f094 0f00 	teq	r4, #0
 8003e68:	d10f      	bne.n	8003e8a <__aeabi_dmul+0x1c2>
 8003e6a:	f001 4600 	and.w	r6, r1, #2147483648	@ 0x80000000
 8003e6e:	0040      	lsls	r0, r0, #1
 8003e70:	eb41 0101 	adc.w	r1, r1, r1
 8003e74:	f411 1f80 	tst.w	r1, #1048576	@ 0x100000
 8003e78:	bf08      	it	eq
 8003e7a:	3c01      	subeq	r4, #1
 8003e7c:	d0f7      	beq.n	8003e6e <__aeabi_dmul+0x1a6>
 8003e7e:	ea41 0106 	orr.w	r1, r1, r6
 8003e82:	f095 0f00 	teq	r5, #0
 8003e86:	bf18      	it	ne
 8003e88:	4770      	bxne	lr
 8003e8a:	f003 4600 	and.w	r6, r3, #2147483648	@ 0x80000000
 8003e8e:	0052      	lsls	r2, r2, #1
 8003e90:	eb43 0303 	adc.w	r3, r3, r3
 8003e94:	f413 1f80 	tst.w	r3, #1048576	@ 0x100000
 8003e98:	bf08      	it	eq
 8003e9a:	3d01      	subeq	r5, #1
 8003e9c:	d0f7      	beq.n	8003e8e <__aeabi_dmul+0x1c6>
 8003e9e:	ea43 0306 	orr.w	r3, r3, r6
 8003ea2:	4770      	bx	lr
 8003ea4:	ea94 0f0c 	teq	r4, ip
 8003ea8:	ea0c 5513 	and.w	r5, ip, r3, lsr #20
 8003eac:	bf18      	it	ne
 8003eae:	ea95 0f0c 	teqne	r5, ip
 8003eb2:	d00c      	beq.n	8003ece <__aeabi_dmul+0x206>
 8003eb4:	ea50 0641 	orrs.w	r6, r0, r1, lsl #1
 8003eb8:	bf18      	it	ne
 8003eba:	ea52 0643 	orrsne.w	r6, r2, r3, lsl #1
 8003ebe:	d1d1      	bne.n	8003e64 <__aeabi_dmul+0x19c>
 8003ec0:	ea81 0103 	eor.w	r1, r1, r3
 8003ec4:	f001 4100 	and.w	r1, r1, #2147483648	@ 0x80000000
 8003ec8:	f04f 0000 	mov.w	r0, #0
 8003ecc:	bd70      	pop	{r4, r5, r6, pc}
 8003ece:	ea50 0641 	orrs.w	r6, r0, r1, lsl #1
 8003ed2:	bf06      	itte	eq
 8003ed4:	4610      	moveq	r0, r2
 8003ed6:	4619      	moveq	r1, r3
 8003ed8:	ea52 0643 	orrsne.w	r6, r2, r3, lsl #1
 8003edc:	d019      	beq.n	8003f12 <__aeabi_dmul+0x24a>
 8003ede:	ea94 0f0c 	teq	r4, ip
 8003ee2:	d102      	bne.n	8003eea <__aeabi_dmul+0x222>
 8003ee4:	ea50 3601 	orrs.w	r6, r0, r1, lsl #12
 8003ee8:	d113      	bne.n	8003f12 <__aeabi_dmul+0x24a>
 8003eea:	ea95 0f0c 	teq	r5, ip
 8003eee:	d105      	bne.n	8003efc <__aeabi_dmul+0x234>
 8003ef0:	ea52 3603 	orrs.w	r6, r2, r3, lsl #12
 8003ef4:	bf1c      	itt	ne
 8003ef6:	4610      	movne	r0, r2
 8003ef8:	4619      	movne	r1, r3
 8003efa:	d10a      	bne.n	8003f12 <__aeabi_dmul+0x24a>
 8003efc:	ea81 0103 	eor.w	r1, r1, r3
 8003f00:	f001 4100 	and.w	r1, r1, #2147483648	@ 0x80000000
 8003f04:	f041 41fe 	orr.w	r1, r1, #2130706432	@ 0x7f000000
 8003f08:	f441 0170 	orr.w	r1, r1, #15728640	@ 0xf00000
 8003f0c:	f04f 0000 	mov.w	r0, #0
 8003f10:	bd70      	pop	{r4, r5, r6, pc}
 8003f12:	f041 41fe 	orr.w	r1, r1, #2130706432	@ 0x7f000000
 8003f16:	f441 0178 	orr.w	r1, r1, #16252928	@ 0xf80000
 8003f1a:	bd70      	pop	{r4, r5, r6, pc}

08003f1c <__aeabi_ddiv>:
 8003f1c:	b570      	push	{r4, r5, r6, lr}
 8003f1e:	f04f 0cff 	mov.w	ip, #255	@ 0xff
 8003f22:	f44c 6ce0 	orr.w	ip, ip, #1792	@ 0x700
 8003f26:	ea1c 5411 	ands.w	r4, ip, r1, lsr #20
 8003f2a:	bf1d      	ittte	ne
 8003f2c:	ea1c 5513 	andsne.w	r5, ip, r3, lsr #20
 8003f30:	ea94 0f0c 	teqne	r4, ip
 8003f34:	ea95 0f0c 	teqne	r5, ip
 8003f38:	f000 f8a7 	bleq	800408a <__aeabi_ddiv+0x16e>
 8003f3c:	eba4 0405 	sub.w	r4, r4, r5
 8003f40:	ea81 0e03 	eor.w	lr, r1, r3
 8003f44:	ea52 3503 	orrs.w	r5, r2, r3, lsl #12
 8003f48:	ea4f 3101 	mov.w	r1, r1, lsl #12
 8003f4c:	f000 8088 	beq.w	8004060 <__aeabi_ddiv+0x144>
 8003f50:	ea4f 3303 	mov.w	r3, r3, lsl #12
 8003f54:	f04f 5580 	mov.w	r5, #268435456	@ 0x10000000
 8003f58:	ea45 1313 	orr.w	r3, r5, r3, lsr #4
 8003f5c:	ea43 6312 	orr.w	r3, r3, r2, lsr #24
 8003f60:	ea4f 2202 	mov.w	r2, r2, lsl #8
 8003f64:	ea45 1511 	orr.w	r5, r5, r1, lsr #4
 8003f68:	ea45 6510 	orr.w	r5, r5, r0, lsr #24
 8003f6c:	ea4f 2600 	mov.w	r6, r0, lsl #8
 8003f70:	f00e 4100 	and.w	r1, lr, #2147483648	@ 0x80000000
 8003f74:	429d      	cmp	r5, r3
 8003f76:	bf08      	it	eq
 8003f78:	4296      	cmpeq	r6, r2
 8003f7a:	f144 04fd 	adc.w	r4, r4, #253	@ 0xfd
 8003f7e:	f504 7440 	add.w	r4, r4, #768	@ 0x300
 8003f82:	d202      	bcs.n	8003f8a <__aeabi_ddiv+0x6e>
 8003f84:	085b      	lsrs	r3, r3, #1
 8003f86:	ea4f 0232 	mov.w	r2, r2, rrx
 8003f8a:	1ab6      	subs	r6, r6, r2
 8003f8c:	eb65 0503 	sbc.w	r5, r5, r3
 8003f90:	085b      	lsrs	r3, r3, #1
 8003f92:	ea4f 0232 	mov.w	r2, r2, rrx
 8003f96:	f44f 1080 	mov.w	r0, #1048576	@ 0x100000
 8003f9a:	f44f 2c00 	mov.w	ip, #524288	@ 0x80000
 8003f9e:	ebb6 0e02 	subs.w	lr, r6, r2
 8003fa2:	eb75 0e03 	sbcs.w	lr, r5, r3
 8003fa6:	bf22      	ittt	cs
 8003fa8:	1ab6      	subcs	r6, r6, r2
 8003faa:	4675      	movcs	r5, lr
 8003fac:	ea40 000c 	orrcs.w	r0, r0, ip
 8003fb0:	085b      	lsrs	r3, r3, #1
 8003fb2:	ea4f 0232 	mov.w	r2, r2, rrx
 8003fb6:	ebb6 0e02 	subs.w	lr, r6, r2
 8003fba:	eb75 0e03 	sbcs.w	lr, r5, r3
 8003fbe:	bf22      	ittt	cs
 8003fc0:	1ab6      	subcs	r6, r6, r2
 8003fc2:	4675      	movcs	r5, lr
 8003fc4:	ea40 005c 	orrcs.w	r0, r0, ip, lsr #1
 8003fc8:	085b      	lsrs	r3, r3, #1
 8003fca:	ea4f 0232 	mov.w	r2, r2, rrx
 8003fce:	ebb6 0e02 	subs.w	lr, r6, r2
 8003fd2:	eb75 0e03 	sbcs.w	lr, r5, r3
 8003fd6:	bf22      	ittt	cs
 8003fd8:	1ab6      	subcs	r6, r6, r2
 8003fda:	4675      	movcs	r5, lr
 8003fdc:	ea40 009c 	orrcs.w	r0, r0, ip, lsr #2
 8003fe0:	085b      	lsrs	r3, r3, #1
 8003fe2:	ea4f 0232 	mov.w	r2, r2, rrx
 8003fe6:	ebb6 0e02 	subs.w	lr, r6, r2
 8003fea:	eb75 0e03 	sbcs.w	lr, r5, r3
 8003fee:	bf22      	ittt	cs
 8003ff0:	1ab6      	subcs	r6, r6, r2
 8003ff2:	4675      	movcs	r5, lr
 8003ff4:	ea40 00dc 	orrcs.w	r0, r0, ip, lsr #3
 8003ff8:	ea55 0e06 	orrs.w	lr, r5, r6
 8003ffc:	d018      	beq.n	8004030 <__aeabi_ddiv+0x114>
 8003ffe:	ea4f 1505 	mov.w	r5, r5, lsl #4
 8004002:	ea45 7516 	orr.w	r5, r5, r6, lsr #28
 8004006:	ea4f 1606 	mov.w	r6, r6, lsl #4
 800400a:	ea4f 03c3 	mov.w	r3, r3, lsl #3
 800400e:	ea43 7352 	orr.w	r3, r3, r2, lsr #29
 8004012:	ea4f 02c2 	mov.w	r2, r2, lsl #3
 8004016:	ea5f 1c1c 	movs.w	ip, ip, lsr #4
 800401a:	d1c0      	bne.n	8003f9e <__aeabi_ddiv+0x82>
 800401c:	f411 1f80 	tst.w	r1, #1048576	@ 0x100000
 8004020:	d10b      	bne.n	800403a <__aeabi_ddiv+0x11e>
 8004022:	ea41 0100 	orr.w	r1, r1, r0
 8004026:	f04f 0000 	mov.w	r0, #0
 800402a:	f04f 4c00 	mov.w	ip, #2147483648	@ 0x80000000
 800402e:	e7b6      	b.n	8003f9e <__aeabi_ddiv+0x82>
 8004030:	f411 1f80 	tst.w	r1, #1048576	@ 0x100000
 8004034:	bf04      	itt	eq
 8004036:	4301      	orreq	r1, r0
 8004038:	2000      	moveq	r0, #0
 800403a:	f1b4 0cfd 	subs.w	ip, r4, #253	@ 0xfd
 800403e:	bf88      	it	hi
 8004040:	f5bc 6fe0 	cmphi.w	ip, #1792	@ 0x700
 8004044:	f63f aeaf 	bhi.w	8003da6 <__aeabi_dmul+0xde>
 8004048:	ebb5 0c03 	subs.w	ip, r5, r3
 800404c:	bf04      	itt	eq
 800404e:	ebb6 0c02 	subseq.w	ip, r6, r2
 8004052:	ea5f 0c50 	movseq.w	ip, r0, lsr #1
 8004056:	f150 0000 	adcs.w	r0, r0, #0
 800405a:	eb41 5104 	adc.w	r1, r1, r4, lsl #20
 800405e:	bd70      	pop	{r4, r5, r6, pc}
 8004060:	f00e 4e00 	and.w	lr, lr, #2147483648	@ 0x80000000
 8004064:	ea4e 3111 	orr.w	r1, lr, r1, lsr #12
 8004068:	eb14 045c 	adds.w	r4, r4, ip, lsr #1
 800406c:	bfc2      	ittt	gt
 800406e:	ebd4 050c 	rsbsgt	r5, r4, ip
 8004072:	ea41 5104 	orrgt.w	r1, r1, r4, lsl #20
 8004076:	bd70      	popgt	{r4, r5, r6, pc}
 8004078:	f441 1180 	orr.w	r1, r1, #1048576	@ 0x100000
 800407c:	f04f 0e00 	mov.w	lr, #0
 8004080:	3c01      	subs	r4, #1
 8004082:	e690      	b.n	8003da6 <__aeabi_dmul+0xde>
 8004084:	ea45 0e06 	orr.w	lr, r5, r6
 8004088:	e68d      	b.n	8003da6 <__aeabi_dmul+0xde>
 800408a:	ea0c 5513 	and.w	r5, ip, r3, lsr #20
 800408e:	ea94 0f0c 	teq	r4, ip
 8004092:	bf08      	it	eq
 8004094:	ea95 0f0c 	teqeq	r5, ip
 8004098:	f43f af3b 	beq.w	8003f12 <__aeabi_dmul+0x24a>
 800409c:	ea94 0f0c 	teq	r4, ip
 80040a0:	d10a      	bne.n	80040b8 <__aeabi_ddiv+0x19c>
 80040a2:	ea50 3401 	orrs.w	r4, r0, r1, lsl #12
 80040a6:	f47f af34 	bne.w	8003f12 <__aeabi_dmul+0x24a>
 80040aa:	ea95 0f0c 	teq	r5, ip
 80040ae:	f47f af25 	bne.w	8003efc <__aeabi_dmul+0x234>
 80040b2:	4610      	mov	r0, r2
 80040b4:	4619      	mov	r1, r3
 80040b6:	e72c      	b.n	8003f12 <__aeabi_dmul+0x24a>
 80040b8:	ea95 0f0c 	teq	r5, ip
 80040bc:	d106      	bne.n	80040cc <__aeabi_ddiv+0x1b0>
 80040be:	ea52 3503 	orrs.w	r5, r2, r3, lsl #12
 80040c2:	f43f aefd 	beq.w	8003ec0 <__aeabi_dmul+0x1f8>
 80040c6:	4610      	mov	r0, r2
 80040c8:	4619      	mov	r1, r3
 80040ca:	e722      	b.n	8003f12 <__aeabi_dmul+0x24a>
 80040cc:	ea50 0641 	orrs.w	r6, r0, r1, lsl #1
 80040d0:	bf18      	it	ne
 80040d2:	ea52 0643 	orrsne.w	r6, r2, r3, lsl #1
 80040d6:	f47f aec5 	bne.w	8003e64 <__aeabi_dmul+0x19c>
 80040da:	ea50 0441 	orrs.w	r4, r0, r1, lsl #1
 80040de:	f47f af0d 	bne.w	8003efc <__aeabi_dmul+0x234>
 80040e2:	ea52 0543 	orrs.w	r5, r2, r3, lsl #1
 80040e6:	f47f aeeb 	bne.w	8003ec0 <__aeabi_dmul+0x1f8>
 80040ea:	e712      	b.n	8003f12 <__aeabi_dmul+0x24a>

080040ec <__gedf2>:
 80040ec:	f04f 3cff 	mov.w	ip, #4294967295
 80040f0:	e006      	b.n	8004100 <__cmpdf2+0x4>
 80040f2:	bf00      	nop

080040f4 <__ledf2>:
 80040f4:	f04f 0c01 	mov.w	ip, #1
 80040f8:	e002      	b.n	8004100 <__cmpdf2+0x4>
 80040fa:	bf00      	nop

080040fc <__cmpdf2>:
 80040fc:	f04f 0c01 	mov.w	ip, #1
 8004100:	f84d cd04 	str.w	ip, [sp, #-4]!
 8004104:	ea4f 0c41 	mov.w	ip, r1, lsl #1
 8004108:	ea7f 5c6c 	mvns.w	ip, ip, asr #21
 800410c:	ea4f 0c43 	mov.w	ip, r3, lsl #1
 8004110:	bf18      	it	ne
 8004112:	ea7f 5c6c 	mvnsne.w	ip, ip, asr #21
 8004116:	d01b      	beq.n	8004150 <__cmpdf2+0x54>
 8004118:	b001      	add	sp, #4
 800411a:	ea50 0c41 	orrs.w	ip, r0, r1, lsl #1
 800411e:	bf0c      	ite	eq
 8004120:	ea52 0c43 	orrseq.w	ip, r2, r3, lsl #1
 8004124:	ea91 0f03 	teqne	r1, r3
 8004128:	bf02      	ittt	eq
 800412a:	ea90 0f02 	teqeq	r0, r2
 800412e:	2000      	moveq	r0, #0
 8004130:	4770      	bxeq	lr
 8004132:	f110 0f00 	cmn.w	r0, #0
 8004136:	ea91 0f03 	teq	r1, r3
 800413a:	bf58      	it	pl
 800413c:	4299      	cmppl	r1, r3
 800413e:	bf08      	it	eq
 8004140:	4290      	cmpeq	r0, r2
 8004142:	bf2c      	ite	cs
 8004144:	17d8      	asrcs	r0, r3, #31
 8004146:	ea6f 70e3 	mvncc.w	r0, r3, asr #31
 800414a:	f040 0001 	orr.w	r0, r0, #1
 800414e:	4770      	bx	lr
 8004150:	ea4f 0c41 	mov.w	ip, r1, lsl #1
 8004154:	ea7f 5c6c 	mvns.w	ip, ip, asr #21
 8004158:	d102      	bne.n	8004160 <__cmpdf2+0x64>
 800415a:	ea50 3c01 	orrs.w	ip, r0, r1, lsl #12
 800415e:	d107      	bne.n	8004170 <__cmpdf2+0x74>
 8004160:	ea4f 0c43 	mov.w	ip, r3, lsl #1
 8004164:	ea7f 5c6c 	mvns.w	ip, ip, asr #21
 8004168:	d1d6      	bne.n	8004118 <__cmpdf2+0x1c>
 800416a:	ea52 3c03 	orrs.w	ip, r2, r3, lsl #12
 800416e:	d0d3      	beq.n	8004118 <__cmpdf2+0x1c>
 8004170:	f85d 0b04 	ldr.w	r0, [sp], #4
 8004174:	4770      	bx	lr
 8004176:	bf00      	nop

08004178 <__aeabi_cdrcmple>:
 8004178:	4684      	mov	ip, r0
 800417a:	4610      	mov	r0, r2
 800417c:	4662      	mov	r2, ip
 800417e:	468c      	mov	ip, r1
 8004180:	4619      	mov	r1, r3
 8004182:	4663      	mov	r3, ip
 8004184:	e000      	b.n	8004188 <__aeabi_cdcmpeq>
 8004186:	bf00      	nop

08004188 <__aeabi_cdcmpeq>:
 8004188:	b501      	push	{r0, lr}
 800418a:	f7ff ffb7 	bl	80040fc <__cmpdf2>
 800418e:	2800      	cmp	r0, #0
 8004190:	bf48      	it	mi
 8004192:	f110 0f00 	cmnmi.w	r0, #0
 8004196:	bd01      	pop	{r0, pc}

08004198 <__aeabi_dcmpeq>:
 8004198:	f84d ed08 	str.w	lr, [sp, #-8]!
 800419c:	f7ff fff4 	bl	8004188 <__aeabi_cdcmpeq>
 80041a0:	bf0c      	ite	eq
 80041a2:	2001      	moveq	r0, #1
 80041a4:	2000      	movne	r0, #0
 80041a6:	f85d fb08 	ldr.w	pc, [sp], #8
 80041aa:	bf00      	nop

080041ac <__aeabi_dcmplt>:
 80041ac:	f84d ed08 	str.w	lr, [sp, #-8]!
 80041b0:	f7ff ffea 	bl	8004188 <__aeabi_cdcmpeq>
 80041b4:	bf34      	ite	cc
 80041b6:	2001      	movcc	r0, #1
 80041b8:	2000      	movcs	r0, #0
 80041ba:	f85d fb08 	ldr.w	pc, [sp], #8
 80041be:	bf00      	nop

080041c0 <__aeabi_dcmple>:
 80041c0:	f84d ed08 	str.w	lr, [sp, #-8]!
 80041c4:	f7ff ffe0 	bl	8004188 <__aeabi_cdcmpeq>
 80041c8:	bf94      	ite	ls
 80041ca:	2001      	movls	r0, #1
 80041cc:	2000      	movhi	r0, #0
 80041ce:	f85d fb08 	ldr.w	pc, [sp], #8
 80041d2:	bf00      	nop

080041d4 <__aeabi_dcmpge>:
 80041d4:	f84d ed08 	str.w	lr, [sp, #-8]!
 80041d8:	f7ff ffce 	bl	8004178 <__aeabi_cdrcmple>
 80041dc:	bf94      	ite	ls
 80041de:	2001      	movls	r0, #1
 80041e0:	2000      	movhi	r0, #0
 80041e2:	f85d fb08 	ldr.w	pc, [sp], #8
 80041e6:	bf00      	nop

080041e8 <__aeabi_dcmpgt>:
 80041e8:	f84d ed08 	str.w	lr, [sp, #-8]!
 80041ec:	f7ff ffc4 	bl	8004178 <__aeabi_cdrcmple>
 80041f0:	bf34      	ite	cc
 80041f2:	2001      	movcc	r0, #1
 80041f4:	2000      	movcs	r0, #0
 80041f6:	f85d fb08 	ldr.w	pc, [sp], #8
 80041fa:	bf00      	nop

080041fc <__aeabi_dcmpun>:
 80041fc:	ea4f 0c41 	mov.w	ip, r1, lsl #1
 8004200:	ea7f 5c6c 	mvns.w	ip, ip, asr #21
 8004204:	d102      	bne.n	800420c <__aeabi_dcmpun+0x10>
 8004206:	ea50 3c01 	orrs.w	ip, r0, r1, lsl #12
 800420a:	d10a      	bne.n	8004222 <__aeabi_dcmpun+0x26>
 800420c:	ea4f 0c43 	mov.w	ip, r3, lsl #1
 8004210:	ea7f 5c6c 	mvns.w	ip, ip, asr #21
 8004214:	d102      	bne.n	800421c <__aeabi_dcmpun+0x20>
 8004216:	ea52 3c03 	orrs.w	ip, r2, r3, lsl #12
 800421a:	d102      	bne.n	8004222 <__aeabi_dcmpun+0x26>
 800421c:	f04f 0000 	mov.w	r0, #0
 8004220:	4770      	bx	lr
 8004222:	f04f 0001 	mov.w	r0, #1
 8004226:	4770      	bx	lr

08004228 <__aeabi_d2iz>:
 8004228:	ea4f 0241 	mov.w	r2, r1, lsl #1
 800422c:	f512 1200 	adds.w	r2, r2, #2097152	@ 0x200000
 8004230:	d215      	bcs.n	800425e <__aeabi_d2iz+0x36>
 8004232:	d511      	bpl.n	8004258 <__aeabi_d2iz+0x30>
 8004234:	f46f 7378 	mvn.w	r3, #992	@ 0x3e0
 8004238:	ebb3 5262 	subs.w	r2, r3, r2, asr #21
 800423c:	d912      	bls.n	8004264 <__aeabi_d2iz+0x3c>
 800423e:	ea4f 23c1 	mov.w	r3, r1, lsl #11
 8004242:	f043 4300 	orr.w	r3, r3, #2147483648	@ 0x80000000
 8004246:	ea43 5350 	orr.w	r3, r3, r0, lsr #21
 800424a:	f011 4f00 	tst.w	r1, #2147483648	@ 0x80000000
 800424e:	fa23 f002 	lsr.w	r0, r3, r2
 8004252:	bf18      	it	ne
 8004254:	4240      	negne	r0, r0
 8004256:	4770      	bx	lr
 8004258:	f04f 0000 	mov.w	r0, #0
 800425c:	4770      	bx	lr
 800425e:	ea50 3001 	orrs.w	r0, r0, r1, lsl #12
 8004262:	d105      	bne.n	8004270 <__aeabi_d2iz+0x48>
 8004264:	f011 4000 	ands.w	r0, r1, #2147483648	@ 0x80000000
 8004268:	bf08      	it	eq
 800426a:	f06f 4000 	mvneq.w	r0, #2147483648	@ 0x80000000
 800426e:	4770      	bx	lr
 8004270:	f04f 0000 	mov.w	r0, #0
 8004274:	4770      	bx	lr
 8004276:	bf00      	nop

08004278 <__aeabi_d2uiz>:
 8004278:	004a      	lsls	r2, r1, #1
 800427a:	d211      	bcs.n	80042a0 <__aeabi_d2uiz+0x28>
 800427c:	f512 1200 	adds.w	r2, r2, #2097152	@ 0x200000
 8004280:	d211      	bcs.n	80042a6 <__aeabi_d2uiz+0x2e>
 8004282:	d50d      	bpl.n	80042a0 <__aeabi_d2uiz+0x28>
 8004284:	f46f 7378 	mvn.w	r3, #992	@ 0x3e0
 8004288:	ebb3 5262 	subs.w	r2, r3, r2, asr #21
 800428c:	d40e      	bmi.n	80042ac <__aeabi_d2uiz+0x34>
 800428e:	ea4f 23c1 	mov.w	r3, r1, lsl #11
 8004292:	f043 4300 	orr.w	r3, r3, #2147483648	@ 0x80000000
 8004296:	ea43 5350 	orr.w	r3, r3, r0, lsr #21
 800429a:	fa23 f002 	lsr.w	r0, r3, r2
 800429e:	4770      	bx	lr
 80042a0:	f04f 0000 	mov.w	r0, #0
 80042a4:	4770      	bx	lr
 80042a6:	ea50 3001 	orrs.w	r0, r0, r1, lsl #12
 80042aa:	d102      	bne.n	80042b2 <__aeabi_d2uiz+0x3a>
 80042ac:	f04f 30ff 	mov.w	r0, #4294967295
 80042b0:	4770      	bx	lr
 80042b2:	f04f 0000 	mov.w	r0, #0
 80042b6:	4770      	bx	lr

080042b8 <__aeabi_d2f>:
 80042b8:	ea4f 0241 	mov.w	r2, r1, lsl #1
 80042bc:	f1b2 43e0 	subs.w	r3, r2, #1879048192	@ 0x70000000
 80042c0:	bf24      	itt	cs
 80042c2:	f5b3 1c00 	subscs.w	ip, r3, #2097152	@ 0x200000
 80042c6:	f1dc 5cfe 	rsbscs	ip, ip, #532676608	@ 0x1fc00000
 80042ca:	d90d      	bls.n	80042e8 <__aeabi_d2f+0x30>
 80042cc:	f001 4c00 	and.w	ip, r1, #2147483648	@ 0x80000000
 80042d0:	ea4f 02c0 	mov.w	r2, r0, lsl #3
 80042d4:	ea4c 7050 	orr.w	r0, ip, r0, lsr #29
 80042d8:	f1b2 4f00 	cmp.w	r2, #2147483648	@ 0x80000000
 80042dc:	eb40 0083 	adc.w	r0, r0, r3, lsl #2
 80042e0:	bf08      	it	eq
 80042e2:	f020 0001 	biceq.w	r0, r0, #1
 80042e6:	4770      	bx	lr
 80042e8:	f011 4f80 	tst.w	r1, #1073741824	@ 0x40000000
 80042ec:	d121      	bne.n	8004332 <__aeabi_d2f+0x7a>
 80042ee:	f113 7238 	adds.w	r2, r3, #48234496	@ 0x2e00000
 80042f2:	bfbc      	itt	lt
 80042f4:	f001 4000 	andlt.w	r0, r1, #2147483648	@ 0x80000000
 80042f8:	4770      	bxlt	lr
 80042fa:	f441 1180 	orr.w	r1, r1, #1048576	@ 0x100000
 80042fe:	ea4f 5252 	mov.w	r2, r2, lsr #21
 8004302:	f1c2 0218 	rsb	r2, r2, #24
 8004306:	f1c2 0c20 	rsb	ip, r2, #32
 800430a:	fa10 f30c 	lsls.w	r3, r0, ip
 800430e:	fa20 f002 	lsr.w	r0, r0, r2
 8004312:	bf18      	it	ne
 8004314:	f040 0001 	orrne.w	r0, r0, #1
 8004318:	ea4f 23c1 	mov.w	r3, r1, lsl #11
 800431c:	ea4f 23d3 	mov.w	r3, r3, lsr #11
 8004320:	fa03 fc0c 	lsl.w	ip, r3, ip
 8004324:	ea40 000c 	orr.w	r0, r0, ip
 8004328:	fa23 f302 	lsr.w	r3, r3, r2
 800432c:	ea4f 0343 	mov.w	r3, r3, lsl #1
 8004330:	e7cc      	b.n	80042cc <__aeabi_d2f+0x14>
 8004332:	ea7f 5362 	mvns.w	r3, r2, asr #21
 8004336:	d107      	bne.n	8004348 <__aeabi_d2f+0x90>
 8004338:	ea50 3301 	orrs.w	r3, r0, r1, lsl #12
 800433c:	bf1e      	ittt	ne
 800433e:	f04f 40fe 	movne.w	r0, #2130706432	@ 0x7f000000
 8004342:	f440 0040 	orrne.w	r0, r0, #12582912	@ 0xc00000
 8004346:	4770      	bxne	lr
 8004348:	f001 4000 	and.w	r0, r1, #2147483648	@ 0x80000000
 800434c:	f040 40fe 	orr.w	r0, r0, #2130706432	@ 0x7f000000
 8004350:	f440 0000 	orr.w	r0, r0, #8388608	@ 0x800000
 8004354:	4770      	bx	lr
 8004356:	bf00      	nop

08004358 <__aeabi_frsub>:
 8004358:	f080 4000 	eor.w	r0, r0, #2147483648	@ 0x80000000
 800435c:	e002      	b.n	8004364 <__addsf3>
 800435e:	bf00      	nop

08004360 <__aeabi_fsub>:
 8004360:	f081 4100 	eor.w	r1, r1, #2147483648	@ 0x80000000

08004364 <__addsf3>:
 8004364:	0042      	lsls	r2, r0, #1
 8004366:	bf1f      	itttt	ne
 8004368:	ea5f 0341 	movsne.w	r3, r1, lsl #1
 800436c:	ea92 0f03 	teqne	r2, r3
 8004370:	ea7f 6c22 	mvnsne.w	ip, r2, asr #24
 8004374:	ea7f 6c23 	mvnsne.w	ip, r3, asr #24
 8004378:	d06a      	beq.n	8004450 <__addsf3+0xec>
 800437a:	ea4f 6212 	mov.w	r2, r2, lsr #24
 800437e:	ebd2 6313 	rsbs	r3, r2, r3, lsr #24
 8004382:	bfc1      	itttt	gt
 8004384:	18d2      	addgt	r2, r2, r3
 8004386:	4041      	eorgt	r1, r0
 8004388:	4048      	eorgt	r0, r1
 800438a:	4041      	eorgt	r1, r0
 800438c:	bfb8      	it	lt
 800438e:	425b      	neglt	r3, r3
 8004390:	2b19      	cmp	r3, #25
 8004392:	bf88      	it	hi
 8004394:	4770      	bxhi	lr
 8004396:	f010 4f00 	tst.w	r0, #2147483648	@ 0x80000000
 800439a:	f440 0000 	orr.w	r0, r0, #8388608	@ 0x800000
 800439e:	f020 407f 	bic.w	r0, r0, #4278190080	@ 0xff000000
 80043a2:	bf18      	it	ne
 80043a4:	4240      	negne	r0, r0
 80043a6:	f011 4f00 	tst.w	r1, #2147483648	@ 0x80000000
 80043aa:	f441 0100 	orr.w	r1, r1, #8388608	@ 0x800000
 80043ae:	f021 417f 	bic.w	r1, r1, #4278190080	@ 0xff000000
 80043b2:	bf18      	it	ne
 80043b4:	4249      	negne	r1, r1
 80043b6:	ea92 0f03 	teq	r2, r3
 80043ba:	d03f      	beq.n	800443c <__addsf3+0xd8>
 80043bc:	f1a2 0201 	sub.w	r2, r2, #1
 80043c0:	fa41 fc03 	asr.w	ip, r1, r3
 80043c4:	eb10 000c 	adds.w	r0, r0, ip
 80043c8:	f1c3 0320 	rsb	r3, r3, #32
 80043cc:	fa01 f103 	lsl.w	r1, r1, r3
 80043d0:	f000 4300 	and.w	r3, r0, #2147483648	@ 0x80000000
 80043d4:	d502      	bpl.n	80043dc <__addsf3+0x78>
 80043d6:	4249      	negs	r1, r1
 80043d8:	eb60 0040 	sbc.w	r0, r0, r0, lsl #1
 80043dc:	f5b0 0f00 	cmp.w	r0, #8388608	@ 0x800000
 80043e0:	d313      	bcc.n	800440a <__addsf3+0xa6>
 80043e2:	f1b0 7f80 	cmp.w	r0, #16777216	@ 0x1000000
 80043e6:	d306      	bcc.n	80043f6 <__addsf3+0x92>
 80043e8:	0840      	lsrs	r0, r0, #1
 80043ea:	ea4f 0131 	mov.w	r1, r1, rrx
 80043ee:	f102 0201 	add.w	r2, r2, #1
 80043f2:	2afe      	cmp	r2, #254	@ 0xfe
 80043f4:	d251      	bcs.n	800449a <__addsf3+0x136>
 80043f6:	f1b1 4f00 	cmp.w	r1, #2147483648	@ 0x80000000
 80043fa:	eb40 50c2 	adc.w	r0, r0, r2, lsl #23
 80043fe:	bf08      	it	eq
 8004400:	f020 0001 	biceq.w	r0, r0, #1
 8004404:	ea40 0003 	orr.w	r0, r0, r3
 8004408:	4770      	bx	lr
 800440a:	0049      	lsls	r1, r1, #1
 800440c:	eb40 0000 	adc.w	r0, r0, r0
 8004410:	3a01      	subs	r2, #1
 8004412:	bf28      	it	cs
 8004414:	f5b0 0f00 	cmpcs.w	r0, #8388608	@ 0x800000
 8004418:	d2ed      	bcs.n	80043f6 <__addsf3+0x92>
 800441a:	fab0 fc80 	clz	ip, r0
 800441e:	f1ac 0c08 	sub.w	ip, ip, #8
 8004422:	ebb2 020c 	subs.w	r2, r2, ip
 8004426:	fa00 f00c 	lsl.w	r0, r0, ip
 800442a:	bfaa      	itet	ge
 800442c:	eb00 50c2 	addge.w	r0, r0, r2, lsl #23
 8004430:	4252      	neglt	r2, r2
 8004432:	4318      	orrge	r0, r3
 8004434:	bfbc      	itt	lt
 8004436:	40d0      	lsrlt	r0, r2
 8004438:	4318      	orrlt	r0, r3
 800443a:	4770      	bx	lr
 800443c:	f092 0f00 	teq	r2, #0
 8004440:	f481 0100 	eor.w	r1, r1, #8388608	@ 0x800000
 8004444:	bf06      	itte	eq
 8004446:	f480 0000 	eoreq.w	r0, r0, #8388608	@ 0x800000
 800444a:	3201      	addeq	r2, #1
 800444c:	3b01      	subne	r3, #1
 800444e:	e7b5      	b.n	80043bc <__addsf3+0x58>
 8004450:	ea4f 0341 	mov.w	r3, r1, lsl #1
 8004454:	ea7f 6c22 	mvns.w	ip, r2, asr #24
 8004458:	bf18      	it	ne
 800445a:	ea7f 6c23 	mvnsne.w	ip, r3, asr #24
 800445e:	d021      	beq.n	80044a4 <__addsf3+0x140>
 8004460:	ea92 0f03 	teq	r2, r3
 8004464:	d004      	beq.n	8004470 <__addsf3+0x10c>
 8004466:	f092 0f00 	teq	r2, #0
 800446a:	bf08      	it	eq
 800446c:	4608      	moveq	r0, r1
 800446e:	4770      	bx	lr
 8004470:	ea90 0f01 	teq	r0, r1
 8004474:	bf1c      	itt	ne
 8004476:	2000      	movne	r0, #0
 8004478:	4770      	bxne	lr
 800447a:	f012 4f7f 	tst.w	r2, #4278190080	@ 0xff000000
 800447e:	d104      	bne.n	800448a <__addsf3+0x126>
 8004480:	0040      	lsls	r0, r0, #1
 8004482:	bf28      	it	cs
 8004484:	f040 4000 	orrcs.w	r0, r0, #2147483648	@ 0x80000000
 8004488:	4770      	bx	lr
 800448a:	f112 7200 	adds.w	r2, r2, #33554432	@ 0x2000000
 800448e:	bf3c      	itt	cc
 8004490:	f500 0000 	addcc.w	r0, r0, #8388608	@ 0x800000
 8004494:	4770      	bxcc	lr
 8004496:	f000 4300 	and.w	r3, r0, #2147483648	@ 0x80000000
 800449a:	f043 40fe 	orr.w	r0, r3, #2130706432	@ 0x7f000000
 800449e:	f440 0000 	orr.w	r0, r0, #8388608	@ 0x800000
 80044a2:	4770      	bx	lr
 80044a4:	ea7f 6222 	mvns.w	r2, r2, asr #24
 80044a8:	bf16      	itet	ne
 80044aa:	4608      	movne	r0, r1
 80044ac:	ea7f 6323 	mvnseq.w	r3, r3, asr #24
 80044b0:	4601      	movne	r1, r0
 80044b2:	0242      	lsls	r2, r0, #9
 80044b4:	bf06      	itte	eq
 80044b6:	ea5f 2341 	movseq.w	r3, r1, lsl #9
 80044ba:	ea90 0f01 	teqeq	r0, r1
 80044be:	f440 0080 	orrne.w	r0, r0, #4194304	@ 0x400000
 80044c2:	4770      	bx	lr

080044c4 <__aeabi_ui2f>:
 80044c4:	f04f 0300 	mov.w	r3, #0
 80044c8:	e004      	b.n	80044d4 <__aeabi_i2f+0x8>
 80044ca:	bf00      	nop

080044cc <__aeabi_i2f>:
 80044cc:	f010 4300 	ands.w	r3, r0, #2147483648	@ 0x80000000
 80044d0:	bf48      	it	mi
 80044d2:	4240      	negmi	r0, r0
 80044d4:	ea5f 0c00 	movs.w	ip, r0
 80044d8:	bf08      	it	eq
 80044da:	4770      	bxeq	lr
 80044dc:	f043 4396 	orr.w	r3, r3, #1258291200	@ 0x4b000000
 80044e0:	4601      	mov	r1, r0
 80044e2:	f04f 0000 	mov.w	r0, #0
 80044e6:	e01c      	b.n	8004522 <__aeabi_l2f+0x2a>

080044e8 <__aeabi_ul2f>:
 80044e8:	ea50 0201 	orrs.w	r2, r0, r1
 80044ec:	bf08      	it	eq
 80044ee:	4770      	bxeq	lr
 80044f0:	f04f 0300 	mov.w	r3, #0
 80044f4:	e00a      	b.n	800450c <__aeabi_l2f+0x14>
 80044f6:	bf00      	nop

080044f8 <__aeabi_l2f>:
 80044f8:	ea50 0201 	orrs.w	r2, r0, r1
 80044fc:	bf08      	it	eq
 80044fe:	4770      	bxeq	lr
 8004500:	f011 4300 	ands.w	r3, r1, #2147483648	@ 0x80000000
 8004504:	d502      	bpl.n	800450c <__aeabi_l2f+0x14>
 8004506:	4240      	negs	r0, r0
 8004508:	eb61 0141 	sbc.w	r1, r1, r1, lsl #1
 800450c:	ea5f 0c01 	movs.w	ip, r1
 8004510:	bf02      	ittt	eq
 8004512:	4684      	moveq	ip, r0
 8004514:	4601      	moveq	r1, r0
 8004516:	2000      	moveq	r0, #0
 8004518:	f043 43b6 	orr.w	r3, r3, #1526726656	@ 0x5b000000
 800451c:	bf08      	it	eq
 800451e:	f1a3 5380 	subeq.w	r3, r3, #268435456	@ 0x10000000
 8004522:	f5a3 0300 	sub.w	r3, r3, #8388608	@ 0x800000
 8004526:	fabc f28c 	clz	r2, ip
 800452a:	3a08      	subs	r2, #8
 800452c:	eba3 53c2 	sub.w	r3, r3, r2, lsl #23
 8004530:	db10      	blt.n	8004554 <__aeabi_l2f+0x5c>
 8004532:	fa01 fc02 	lsl.w	ip, r1, r2
 8004536:	4463      	add	r3, ip
 8004538:	fa00 fc02 	lsl.w	ip, r0, r2
 800453c:	f1c2 0220 	rsb	r2, r2, #32
 8004540:	f1bc 4f00 	cmp.w	ip, #2147483648	@ 0x80000000
 8004544:	fa20 f202 	lsr.w	r2, r0, r2
 8004548:	eb43 0002 	adc.w	r0, r3, r2
 800454c:	bf08      	it	eq
 800454e:	f020 0001 	biceq.w	r0, r0, #1
 8004552:	4770      	bx	lr
 8004554:	f102 0220 	add.w	r2, r2, #32
 8004558:	fa01 fc02 	lsl.w	ip, r1, r2
 800455c:	f1c2 0220 	rsb	r2, r2, #32
 8004560:	ea50 004c 	orrs.w	r0, r0, ip, lsl #1
 8004564:	fa21 f202 	lsr.w	r2, r1, r2
 8004568:	eb43 0002 	adc.w	r0, r3, r2
 800456c:	bf08      	it	eq
 800456e:	ea20 70dc 	biceq.w	r0, r0, ip, lsr #31
 8004572:	4770      	bx	lr

08004574 <__aeabi_fmul>:
 8004574:	f04f 0cff 	mov.w	ip, #255	@ 0xff
 8004578:	ea1c 52d0 	ands.w	r2, ip, r0, lsr #23
 800457c:	bf1e      	ittt	ne
 800457e:	ea1c 53d1 	andsne.w	r3, ip, r1, lsr #23
 8004582:	ea92 0f0c 	teqne	r2, ip
 8004586:	ea93 0f0c 	teqne	r3, ip
 800458a:	d06f      	beq.n	800466c <__aeabi_fmul+0xf8>
 800458c:	441a      	add	r2, r3
 800458e:	ea80 0c01 	eor.w	ip, r0, r1
 8004592:	0240      	lsls	r0, r0, #9
 8004594:	bf18      	it	ne
 8004596:	ea5f 2141 	movsne.w	r1, r1, lsl #9
 800459a:	d01e      	beq.n	80045da <__aeabi_fmul+0x66>
 800459c:	f04f 6300 	mov.w	r3, #134217728	@ 0x8000000
 80045a0:	ea43 1050 	orr.w	r0, r3, r0, lsr #5
 80045a4:	ea43 1151 	orr.w	r1, r3, r1, lsr #5
 80045a8:	fba0 3101 	umull	r3, r1, r0, r1
 80045ac:	f00c 4000 	and.w	r0, ip, #2147483648	@ 0x80000000
 80045b0:	f5b1 0f00 	cmp.w	r1, #8388608	@ 0x800000
 80045b4:	bf3e      	ittt	cc
 80045b6:	0049      	lslcc	r1, r1, #1
 80045b8:	ea41 71d3 	orrcc.w	r1, r1, r3, lsr #31
 80045bc:	005b      	lslcc	r3, r3, #1
 80045be:	ea40 0001 	orr.w	r0, r0, r1
 80045c2:	f162 027f 	sbc.w	r2, r2, #127	@ 0x7f
 80045c6:	2afd      	cmp	r2, #253	@ 0xfd
 80045c8:	d81d      	bhi.n	8004606 <__aeabi_fmul+0x92>
 80045ca:	f1b3 4f00 	cmp.w	r3, #2147483648	@ 0x80000000
 80045ce:	eb40 50c2 	adc.w	r0, r0, r2, lsl #23
 80045d2:	bf08      	it	eq
 80045d4:	f020 0001 	biceq.w	r0, r0, #1
 80045d8:	4770      	bx	lr
 80045da:	f090 0f00 	teq	r0, #0
 80045de:	f00c 4c00 	and.w	ip, ip, #2147483648	@ 0x80000000
 80045e2:	bf08      	it	eq
 80045e4:	0249      	lsleq	r1, r1, #9
 80045e6:	ea4c 2050 	orr.w	r0, ip, r0, lsr #9
 80045ea:	ea40 2051 	orr.w	r0, r0, r1, lsr #9
 80045ee:	3a7f      	subs	r2, #127	@ 0x7f
 80045f0:	bfc2      	ittt	gt
 80045f2:	f1d2 03ff 	rsbsgt	r3, r2, #255	@ 0xff
 80045f6:	ea40 50c2 	orrgt.w	r0, r0, r2, lsl #23
 80045fa:	4770      	bxgt	lr
 80045fc:	f440 0000 	orr.w	r0, r0, #8388608	@ 0x800000
 8004600:	f04f 0300 	mov.w	r3, #0
 8004604:	3a01      	subs	r2, #1
 8004606:	dc5d      	bgt.n	80046c4 <__aeabi_fmul+0x150>
 8004608:	f112 0f19 	cmn.w	r2, #25
 800460c:	bfdc      	itt	le
 800460e:	f000 4000 	andle.w	r0, r0, #2147483648	@ 0x80000000
 8004612:	4770      	bxle	lr
 8004614:	f1c2 0200 	rsb	r2, r2, #0
 8004618:	0041      	lsls	r1, r0, #1
 800461a:	fa21 f102 	lsr.w	r1, r1, r2
 800461e:	f1c2 0220 	rsb	r2, r2, #32
 8004622:	fa00 fc02 	lsl.w	ip, r0, r2
 8004626:	ea5f 0031 	movs.w	r0, r1, rrx
 800462a:	f140 0000 	adc.w	r0, r0, #0
 800462e:	ea53 034c 	orrs.w	r3, r3, ip, lsl #1
 8004632:	bf08      	it	eq
 8004634:	ea20 70dc 	biceq.w	r0, r0, ip, lsr #31
 8004638:	4770      	bx	lr
 800463a:	f092 0f00 	teq	r2, #0
 800463e:	f000 4c00 	and.w	ip, r0, #2147483648	@ 0x80000000
 8004642:	bf02      	ittt	eq
 8004644:	0040      	lsleq	r0, r0, #1
 8004646:	f410 0f00 	tsteq.w	r0, #8388608	@ 0x800000
 800464a:	3a01      	subeq	r2, #1
 800464c:	d0f9      	beq.n	8004642 <__aeabi_fmul+0xce>
 800464e:	ea40 000c 	orr.w	r0, r0, ip
 8004652:	f093 0f00 	teq	r3, #0
 8004656:	f001 4c00 	and.w	ip, r1, #2147483648	@ 0x80000000
 800465a:	bf02      	ittt	eq
 800465c:	0049      	lsleq	r1, r1, #1
 800465e:	f411 0f00 	tsteq.w	r1, #8388608	@ 0x800000
 8004662:	3b01      	subeq	r3, #1
 8004664:	d0f9      	beq.n	800465a <__aeabi_fmul+0xe6>
 8004666:	ea41 010c 	orr.w	r1, r1, ip
 800466a:	e78f      	b.n	800458c <__aeabi_fmul+0x18>
 800466c:	ea0c 53d1 	and.w	r3, ip, r1, lsr #23
 8004670:	ea92 0f0c 	teq	r2, ip
 8004674:	bf18      	it	ne
 8004676:	ea93 0f0c 	teqne	r3, ip
 800467a:	d00a      	beq.n	8004692 <__aeabi_fmul+0x11e>
 800467c:	f030 4c00 	bics.w	ip, r0, #2147483648	@ 0x80000000
 8004680:	bf18      	it	ne
 8004682:	f031 4c00 	bicsne.w	ip, r1, #2147483648	@ 0x80000000
 8004686:	d1d8      	bne.n	800463a <__aeabi_fmul+0xc6>
 8004688:	ea80 0001 	eor.w	r0, r0, r1
 800468c:	f000 4000 	and.w	r0, r0, #2147483648	@ 0x80000000
 8004690:	4770      	bx	lr
 8004692:	f090 0f00 	teq	r0, #0
 8004696:	bf17      	itett	ne
 8004698:	f090 4f00 	teqne	r0, #2147483648	@ 0x80000000
 800469c:	4608      	moveq	r0, r1
 800469e:	f091 0f00 	teqne	r1, #0
 80046a2:	f091 4f00 	teqne	r1, #2147483648	@ 0x80000000
 80046a6:	d014      	beq.n	80046d2 <__aeabi_fmul+0x15e>
 80046a8:	ea92 0f0c 	teq	r2, ip
 80046ac:	d101      	bne.n	80046b2 <__aeabi_fmul+0x13e>
 80046ae:	0242      	lsls	r2, r0, #9
 80046b0:	d10f      	bne.n	80046d2 <__aeabi_fmul+0x15e>
 80046b2:	ea93 0f0c 	teq	r3, ip
 80046b6:	d103      	bne.n	80046c0 <__aeabi_fmul+0x14c>
 80046b8:	024b      	lsls	r3, r1, #9
 80046ba:	bf18      	it	ne
 80046bc:	4608      	movne	r0, r1
 80046be:	d108      	bne.n	80046d2 <__aeabi_fmul+0x15e>
 80046c0:	ea80 0001 	eor.w	r0, r0, r1
 80046c4:	f000 4000 	and.w	r0, r0, #2147483648	@ 0x80000000
 80046c8:	f040 40fe 	orr.w	r0, r0, #2130706432	@ 0x7f000000
 80046cc:	f440 0000 	orr.w	r0, r0, #8388608	@ 0x800000
 80046d0:	4770      	bx	lr
 80046d2:	f040 40fe 	orr.w	r0, r0, #2130706432	@ 0x7f000000
 80046d6:	f440 0040 	orr.w	r0, r0, #12582912	@ 0xc00000
 80046da:	4770      	bx	lr

080046dc <__aeabi_fdiv>:
 80046dc:	f04f 0cff 	mov.w	ip, #255	@ 0xff
 80046e0:	ea1c 52d0 	ands.w	r2, ip, r0, lsr #23
 80046e4:	bf1e      	ittt	ne
 80046e6:	ea1c 53d1 	andsne.w	r3, ip, r1, lsr #23
 80046ea:	ea92 0f0c 	teqne	r2, ip
 80046ee:	ea93 0f0c 	teqne	r3, ip
 80046f2:	d069      	beq.n	80047c8 <__aeabi_fdiv+0xec>
 80046f4:	eba2 0203 	sub.w	r2, r2, r3
 80046f8:	ea80 0c01 	eor.w	ip, r0, r1
 80046fc:	0249      	lsls	r1, r1, #9
 80046fe:	ea4f 2040 	mov.w	r0, r0, lsl #9
 8004702:	d037      	beq.n	8004774 <__aeabi_fdiv+0x98>
 8004704:	f04f 5380 	mov.w	r3, #268435456	@ 0x10000000
 8004708:	ea43 1111 	orr.w	r1, r3, r1, lsr #4
 800470c:	ea43 1310 	orr.w	r3, r3, r0, lsr #4
 8004710:	f00c 4000 	and.w	r0, ip, #2147483648	@ 0x80000000
 8004714:	428b      	cmp	r3, r1
 8004716:	bf38      	it	cc
 8004718:	005b      	lslcc	r3, r3, #1
 800471a:	f142 027d 	adc.w	r2, r2, #125	@ 0x7d
 800471e:	f44f 0c00 	mov.w	ip, #8388608	@ 0x800000
 8004722:	428b      	cmp	r3, r1
 8004724:	bf24      	itt	cs
 8004726:	1a5b      	subcs	r3, r3, r1
 8004728:	ea40 000c 	orrcs.w	r0, r0, ip
 800472c:	ebb3 0f51 	cmp.w	r3, r1, lsr #1
 8004730:	bf24      	itt	cs
 8004732:	eba3 0351 	subcs.w	r3, r3, r1, lsr #1
 8004736:	ea40 005c 	orrcs.w	r0, r0, ip, lsr #1
 800473a:	ebb3 0f91 	cmp.w	r3, r1, lsr #2
 800473e:	bf24      	itt	cs
 8004740:	eba3 0391 	subcs.w	r3, r3, r1, lsr #2
 8004744:	ea40 009c 	orrcs.w	r0, r0, ip, lsr #2
 8004748:	ebb3 0fd1 	cmp.w	r3, r1, lsr #3
 800474c:	bf24      	itt	cs
 800474e:	eba3 03d1 	subcs.w	r3, r3, r1, lsr #3
 8004752:	ea40 00dc 	orrcs.w	r0, r0, ip, lsr #3
 8004756:	011b      	lsls	r3, r3, #4
 8004758:	bf18      	it	ne
 800475a:	ea5f 1c1c 	movsne.w	ip, ip, lsr #4
 800475e:	d1e0      	bne.n	8004722 <__aeabi_fdiv+0x46>
 8004760:	2afd      	cmp	r2, #253	@ 0xfd
 8004762:	f63f af50 	bhi.w	8004606 <__aeabi_fmul+0x92>
 8004766:	428b      	cmp	r3, r1
 8004768:	eb40 50c2 	adc.w	r0, r0, r2, lsl #23
 800476c:	bf08      	it	eq
 800476e:	f020 0001 	biceq.w	r0, r0, #1
 8004772:	4770      	bx	lr
 8004774:	f00c 4c00 	and.w	ip, ip, #2147483648	@ 0x80000000
 8004778:	ea4c 2050 	orr.w	r0, ip, r0, lsr #9
 800477c:	327f      	adds	r2, #127	@ 0x7f
 800477e:	bfc2      	ittt	gt
 8004780:	f1d2 03ff 	rsbsgt	r3, r2, #255	@ 0xff
 8004784:	ea40 50c2 	orrgt.w	r0, r0, r2, lsl #23
 8004788:	4770      	bxgt	lr
 800478a:	f440 0000 	orr.w	r0, r0, #8388608	@ 0x800000
 800478e:	f04f 0300 	mov.w	r3, #0
 8004792:	3a01      	subs	r2, #1
 8004794:	e737      	b.n	8004606 <__aeabi_fmul+0x92>
 8004796:	f092 0f00 	teq	r2, #0
 800479a:	f000 4c00 	and.w	ip, r0, #2147483648	@ 0x80000000
 800479e:	bf02      	ittt	eq
 80047a0:	0040      	lsleq	r0, r0, #1
 80047a2:	f410 0f00 	tsteq.w	r0, #8388608	@ 0x800000
 80047a6:	3a01      	subeq	r2, #1
 80047a8:	d0f9      	beq.n	800479e <__aeabi_fdiv+0xc2>
 80047aa:	ea40 000c 	orr.w	r0, r0, ip
 80047ae:	f093 0f00 	teq	r3, #0
 80047b2:	f001 4c00 	and.w	ip, r1, #2147483648	@ 0x80000000
 80047b6:	bf02      	ittt	eq
 80047b8:	0049      	lsleq	r1, r1, #1
 80047ba:	f411 0f00 	tsteq.w	r1, #8388608	@ 0x800000
 80047be:	3b01      	subeq	r3, #1
 80047c0:	d0f9      	beq.n	80047b6 <__aeabi_fdiv+0xda>
 80047c2:	ea41 010c 	orr.w	r1, r1, ip
 80047c6:	e795      	b.n	80046f4 <__aeabi_fdiv+0x18>
 80047c8:	ea0c 53d1 	and.w	r3, ip, r1, lsr #23
 80047cc:	ea92 0f0c 	teq	r2, ip
 80047d0:	d108      	bne.n	80047e4 <__aeabi_fdiv+0x108>
 80047d2:	0242      	lsls	r2, r0, #9
 80047d4:	f47f af7d 	bne.w	80046d2 <__aeabi_fmul+0x15e>
 80047d8:	ea93 0f0c 	teq	r3, ip
 80047dc:	f47f af70 	bne.w	80046c0 <__aeabi_fmul+0x14c>
 80047e0:	4608      	mov	r0, r1
 80047e2:	e776      	b.n	80046d2 <__aeabi_fmul+0x15e>
 80047e4:	ea93 0f0c 	teq	r3, ip
 80047e8:	d104      	bne.n	80047f4 <__aeabi_fdiv+0x118>
 80047ea:	024b      	lsls	r3, r1, #9
 80047ec:	f43f af4c 	beq.w	8004688 <__aeabi_fmul+0x114>
 80047f0:	4608      	mov	r0, r1
 80047f2:	e76e      	b.n	80046d2 <__aeabi_fmul+0x15e>
 80047f4:	f030 4c00 	bics.w	ip, r0, #2147483648	@ 0x80000000
 80047f8:	bf18      	it	ne
 80047fa:	f031 4c00 	bicsne.w	ip, r1, #2147483648	@ 0x80000000
 80047fe:	d1ca      	bne.n	8004796 <__aeabi_fdiv+0xba>
 8004800:	f030 4200 	bics.w	r2, r0, #2147483648	@ 0x80000000
 8004804:	f47f af5c 	bne.w	80046c0 <__aeabi_fmul+0x14c>
 8004808:	f031 4300 	bics.w	r3, r1, #2147483648	@ 0x80000000
 800480c:	f47f af3c 	bne.w	8004688 <__aeabi_fmul+0x114>
 8004810:	e75f      	b.n	80046d2 <__aeabi_fmul+0x15e>
 8004812:	bf00      	nop

08004814 <__aeabi_f2iz>:
 8004814:	ea4f 0240 	mov.w	r2, r0, lsl #1
 8004818:	f1b2 4ffe 	cmp.w	r2, #2130706432	@ 0x7f000000
 800481c:	d30f      	bcc.n	800483e <__aeabi_f2iz+0x2a>
 800481e:	f04f 039e 	mov.w	r3, #158	@ 0x9e
 8004822:	ebb3 6212 	subs.w	r2, r3, r2, lsr #24
 8004826:	d90d      	bls.n	8004844 <__aeabi_f2iz+0x30>
 8004828:	ea4f 2300 	mov.w	r3, r0, lsl #8
 800482c:	f043 4300 	orr.w	r3, r3, #2147483648	@ 0x80000000
 8004830:	f010 4f00 	tst.w	r0, #2147483648	@ 0x80000000
 8004834:	fa23 f002 	lsr.w	r0, r3, r2
 8004838:	bf18      	it	ne
 800483a:	4240      	negne	r0, r0
 800483c:	4770      	bx	lr
 800483e:	f04f 0000 	mov.w	r0, #0
 8004842:	4770      	bx	lr
 8004844:	f112 0f61 	cmn.w	r2, #97	@ 0x61
 8004848:	d101      	bne.n	800484e <__aeabi_f2iz+0x3a>
 800484a:	0242      	lsls	r2, r0, #9
 800484c:	d105      	bne.n	800485a <__aeabi_f2iz+0x46>
 800484e:	f010 4000 	ands.w	r0, r0, #2147483648	@ 0x80000000
 8004852:	bf08      	it	eq
 8004854:	f06f 4000 	mvneq.w	r0, #2147483648	@ 0x80000000
 8004858:	4770      	bx	lr
 800485a:	f04f 0000 	mov.w	r0, #0
 800485e:	4770      	bx	lr

08004860 <__aeabi_f2uiz>:
 8004860:	0042      	lsls	r2, r0, #1
 8004862:	d20e      	bcs.n	8004882 <__aeabi_f2uiz+0x22>
 8004864:	f1b2 4ffe 	cmp.w	r2, #2130706432	@ 0x7f000000
 8004868:	d30b      	bcc.n	8004882 <__aeabi_f2uiz+0x22>
 800486a:	f04f 039e 	mov.w	r3, #158	@ 0x9e
 800486e:	ebb3 6212 	subs.w	r2, r3, r2, lsr #24
 8004872:	d409      	bmi.n	8004888 <__aeabi_f2uiz+0x28>
 8004874:	ea4f 2300 	mov.w	r3, r0, lsl #8
 8004878:	f043 4300 	orr.w	r3, r3, #2147483648	@ 0x80000000
 800487c:	fa23 f002 	lsr.w	r0, r3, r2
 8004880:	4770      	bx	lr
 8004882:	f04f 0000 	mov.w	r0, #0
 8004886:	4770      	bx	lr
 8004888:	f112 0f61 	cmn.w	r2, #97	@ 0x61
 800488c:	d101      	bne.n	8004892 <__aeabi_f2uiz+0x32>
 800488e:	0242      	lsls	r2, r0, #9
 8004890:	d102      	bne.n	8004898 <__aeabi_f2uiz+0x38>
 8004892:	f04f 30ff 	mov.w	r0, #4294967295
 8004896:	4770      	bx	lr
 8004898:	f04f 0000 	mov.w	r0, #0
 800489c:	4770      	bx	lr
 800489e:	bf00      	nop

080048a0 <adl_getData>:
 * Get / Set Handles
 *----------------------------------------------------------------------------*/

void adl_getData(uint8_t *slaveAddress, uint16_t *startAddress,
		uint16_t *result16, uint32_t *result32)
{
 80048a0:	b530      	push	{r4, r5, lr}
	ADL_t *obj;

	switch (*slaveAddress)
 80048a2:	7800      	ldrb	r0, [r0, #0]
 80048a4:	2801      	cmp	r0, #1
 80048a6:	d127      	bne.n	80048f8 <adl_getData+0x58>

	default:
		return;
	}

	if (*startAddress == ADL_MODEL_NUMBER)
 80048a8:	f24f 0409 	movw	r4, #61449	@ 0xf009
 80048ac:	8808      	ldrh	r0, [r1, #0]
 80048ae:	42a0      	cmp	r0, r4
 80048b0:	d105      	bne.n	80048be <adl_getData+0x1e>
	{
		if ((*(((uint8_t*) result32) + 3) == 'A') && (result32 != NULL))
 80048b2:	78dc      	ldrb	r4, [r3, #3]
 80048b4:	2c41      	cmp	r4, #65	@ 0x41
		{
			obj->modelNumber = (*((uint8_t*) result32));
 80048b6:	bf02      	ittt	eq
 80048b8:	781d      	ldrbeq	r5, [r3, #0]
 80048ba:	4c2e      	ldreq	r4, [pc, #184]	@ (8004974 <adl_getData+0xd4>)
 80048bc:	7065      	strbeq	r5, [r4, #1]
		}
	}

	if(singlePhaseMeter){
 80048be:	4c2e      	ldr	r4, [pc, #184]	@ (8004978 <adl_getData+0xd8>)
 80048c0:	7824      	ldrb	r4, [r4, #0]
 80048c2:	b17c      	cbz	r4, 80048e4 <adl_getData+0x44>
		switch (*startAddress)
 80048c4:	b308      	cbz	r0, 800490a <adl_getData+0x6a>
 80048c6:	380b      	subs	r0, #11
 80048c8:	b284      	uxth	r4, r0
 80048ca:	2c06      	cmp	r4, #6
 80048cc:	d80a      	bhi.n	80048e4 <adl_getData+0x44>
 80048ce:	2806      	cmp	r0, #6
 80048d0:	d808      	bhi.n	80048e4 <adl_getData+0x44>
 80048d2:	e8df f000 	tbb	[pc, r0]
 80048d6:	1204      	.short	0x1204
 80048d8:	0707071e 	.word	0x0707071e
 80048dc:	16          	.byte	0x16
 80048dd:	00          	.byte	0x00
		{
		case VOLTAGE_OF_A1_PHASE:
			obj->data.voltage_PhaseA = (*result16);
 80048de:	8814      	ldrh	r4, [r2, #0]
 80048e0:	4824      	ldr	r0, [pc, #144]	@ (8004974 <adl_getData+0xd4>)
 80048e2:	8184      	strh	r4, [r0, #12]
		default:
			break;
		}
	}

	if (threePhaseMeter)
 80048e4:	4825      	ldr	r0, [pc, #148]	@ (800497c <adl_getData+0xdc>)
 80048e6:	7800      	ldrb	r0, [r0, #0]
 80048e8:	b130      	cbz	r0, 80048f8 <adl_getData+0x58>
	{
		switch (*startAddress)
 80048ea:	8809      	ldrh	r1, [r1, #0]
 80048ec:	2966      	cmp	r1, #102	@ 0x66
 80048ee:	d821      	bhi.n	8004934 <adl_getData+0x94>
 80048f0:	2960      	cmp	r1, #96	@ 0x60
 80048f2:	d815      	bhi.n	8004920 <adl_getData+0x80>
 80048f4:	2900      	cmp	r1, #0
 80048f6:	d039      	beq.n	800496c <adl_getData+0xcc>
			break;
		}
	}


}
 80048f8:	bd30      	pop	{r4, r5, pc}
			obj->data.current_PhaseA = (*result16);
 80048fa:	8814      	ldrh	r4, [r2, #0]
 80048fc:	481d      	ldr	r0, [pc, #116]	@ (8004974 <adl_getData+0xd4>)
 80048fe:	8244      	strh	r4, [r0, #18]
			break;
 8004900:	e7f0      	b.n	80048e4 <adl_getData+0x44>
			obj->data.freqeuncy = (*result16);
 8004902:	8814      	ldrh	r4, [r2, #0]
 8004904:	481b      	ldr	r0, [pc, #108]	@ (8004974 <adl_getData+0xd4>)
 8004906:	8304      	strh	r4, [r0, #24]
			break;
 8004908:	e7ec      	b.n	80048e4 <adl_getData+0x44>
			obj->data.activeEnergy = (*result32);
 800490a:	681c      	ldr	r4, [r3, #0]
 800490c:	4819      	ldr	r0, [pc, #100]	@ (8004974 <adl_getData+0xd4>)
 800490e:	6204      	str	r4, [r0, #32]
			break;
 8004910:	e7e8      	b.n	80048e4 <adl_getData+0x44>
			obj->data.activePower = *result16;
 8004912:	8814      	ldrh	r4, [r2, #0]
 8004914:	4817      	ldr	r0, [pc, #92]	@ (8004974 <adl_getData+0xd4>)
 8004916:	61c4      	str	r4, [r0, #28]
			emeter_bootup = true;
 8004918:	2401      	movs	r4, #1
 800491a:	4819      	ldr	r0, [pc, #100]	@ (8004980 <adl_getData+0xe0>)
 800491c:	7004      	strb	r4, [r0, #0]
			break;
 800491e:	e7e1      	b.n	80048e4 <adl_getData+0x44>
		switch (*startAddress)
 8004920:	3962      	subs	r1, #98	@ 0x62
 8004922:	4b14      	ldr	r3, [pc, #80]	@ (8004974 <adl_getData+0xd4>)
 8004924:	8812      	ldrh	r2, [r2, #0]
 8004926:	2904      	cmp	r1, #4
 8004928:	d810      	bhi.n	800494c <adl_getData+0xac>
 800492a:	e8df f001 	tbb	[pc, r1]
 800492e:	1311      	.short	0x1311
 8004930:	1715      	.short	0x1715
 8004932:	19          	.byte	0x19
 8004933:	00          	.byte	0x00
 8004934:	2977      	cmp	r1, #119	@ 0x77
 8004936:	d015      	beq.n	8004964 <adl_getData+0xc4>
 8004938:	f5b1 7fb5 	cmp.w	r1, #362	@ 0x16a
 800493c:	d1dc      	bne.n	80048f8 <adl_getData+0x58>
			obj->data.activePower = (*result32);
 800493e:	681a      	ldr	r2, [r3, #0]
 8004940:	4b0c      	ldr	r3, [pc, #48]	@ (8004974 <adl_getData+0xd4>)
 8004942:	61da      	str	r2, [r3, #28]
			emeter_bootup = true;
 8004944:	2201      	movs	r2, #1
 8004946:	4b0e      	ldr	r3, [pc, #56]	@ (8004980 <adl_getData+0xe0>)
 8004948:	701a      	strb	r2, [r3, #0]
			break;
 800494a:	e7d5      	b.n	80048f8 <adl_getData+0x58>
			obj->data.voltage_PhaseA = (*result16);
 800494c:	819a      	strh	r2, [r3, #12]
			break;
 800494e:	e7d3      	b.n	80048f8 <adl_getData+0x58>
			obj->data.voltage_PhaseB = (*result16);
 8004950:	81da      	strh	r2, [r3, #14]
			break;
 8004952:	e7d1      	b.n	80048f8 <adl_getData+0x58>
			obj->data.voltage_PhaseC = (*result16);
 8004954:	821a      	strh	r2, [r3, #16]
			break;
 8004956:	e7cf      	b.n	80048f8 <adl_getData+0x58>
			obj->data.current_PhaseA = (*result16);
 8004958:	825a      	strh	r2, [r3, #18]
			break;
 800495a:	e7cd      	b.n	80048f8 <adl_getData+0x58>
			obj->data.current_PhaseB = (*result16);
 800495c:	829a      	strh	r2, [r3, #20]
			break;
 800495e:	e7cb      	b.n	80048f8 <adl_getData+0x58>
			obj->data.current_PhaseC = (*result16);
 8004960:	82da      	strh	r2, [r3, #22]
			break;
 8004962:	e7c9      	b.n	80048f8 <adl_getData+0x58>
			obj->data.freqeuncy = (*result16);
 8004964:	8812      	ldrh	r2, [r2, #0]
 8004966:	4b03      	ldr	r3, [pc, #12]	@ (8004974 <adl_getData+0xd4>)
 8004968:	831a      	strh	r2, [r3, #24]
			break;
 800496a:	e7c5      	b.n	80048f8 <adl_getData+0x58>
			obj->data.activeEnergy = (*result32);
 800496c:	681a      	ldr	r2, [r3, #0]
 800496e:	4b01      	ldr	r3, [pc, #4]	@ (8004974 <adl_getData+0xd4>)
 8004970:	621a      	str	r2, [r3, #32]
			break;
 8004972:	e7c1      	b.n	80048f8 <adl_getData+0x58>
 8004974:	20000090 	.word	0x20000090
 8004978:	2000008d 	.word	0x2000008d
 800497c:	2000008c 	.word	0x2000008c
 8004980:	2000008f 	.word	0x2000008f

08004984 <adl_TotalActiveEnergy>:
/*----------------------------------------------------------------------------
 * Functions
 *----------------------------------------------------------------------------*/

void adl_TotalActiveEnergy(const ADL_t* restrict adl)
{
 8004984:	b510      	push	{r4, lr}
 8004986:	4604      	mov	r4, r0
 8004988:	b0a0      	sub	sp, #128	@ 0x80
	Modbus_t obj = {0};
 800498a:	227e      	movs	r2, #126	@ 0x7e
 800498c:	2100      	movs	r1, #0
 800498e:	f10d 0002 	add.w	r0, sp, #2
 8004992:	f006 fc55 	bl	800b240 <memset>
	obj.adu.pdu.slaveAddress = adl->slaveAddress;
 8004996:	7823      	ldrb	r3, [r4, #0]
	obj.adu.pdu.functionCode = READ_HOLDING_REGISTERS;
	obj.adu.pdu.startAddress = CURRENT_TOTAL_ACTIVE_ENERGY;
	obj.adu.pdu.numberOfRegisters = HWORD_2;
	ModbusRTU_queueSerial(&obj);
 8004998:	4668      	mov	r0, sp
	obj.adu.pdu.slaveAddress = adl->slaveAddress;
 800499a:	f88d 3000 	strb.w	r3, [sp]
	obj.adu.pdu.functionCode = READ_HOLDING_REGISTERS;
 800499e:	2303      	movs	r3, #3
 80049a0:	f88d 3001 	strb.w	r3, [sp, #1]
	obj.adu.pdu.numberOfRegisters = HWORD_2;
 80049a4:	2302      	movs	r3, #2
 80049a6:	f8ad 3004 	strh.w	r3, [sp, #4]
	ModbusRTU_queueSerial(&obj);
 80049aa:	f000 f99f 	bl	8004cec <ModbusRTU_queueSerial>
}
 80049ae:	b020      	add	sp, #128	@ 0x80
 80049b0:	bd10      	pop	{r4, pc}
	...

080049b4 <adl_VoltagePhaseA>:
	obj.adu.pdu.numberOfRegisters = HWORD_1;
	ModbusRTU_queueSerial(&obj);
}

void adl_VoltagePhaseA(const ADL_t* restrict adl)
{
 80049b4:	b510      	push	{r4, lr}
 80049b6:	4604      	mov	r4, r0
 80049b8:	b0a0      	sub	sp, #128	@ 0x80
	Modbus_t obj = {0};
 80049ba:	227e      	movs	r2, #126	@ 0x7e
 80049bc:	2100      	movs	r1, #0
 80049be:	f10d 0002 	add.w	r0, sp, #2
 80049c2:	f006 fc3d 	bl	800b240 <memset>
	obj.adu.pdu.slaveAddress = adl->slaveAddress;
 80049c6:	7823      	ldrb	r3, [r4, #0]
 80049c8:	f88d 3000 	strb.w	r3, [sp]
	obj.adu.pdu.functionCode = READ_HOLDING_REGISTERS;
 80049cc:	2303      	movs	r3, #3
 80049ce:	f88d 3001 	strb.w	r3, [sp, #1]

	if (singlePhaseMeter)
 80049d2:	4b0a      	ldr	r3, [pc, #40]	@ (80049fc <adl_VoltagePhaseA+0x48>)
 80049d4:	781b      	ldrb	r3, [r3, #0]
 80049d6:	b113      	cbz	r3, 80049de <adl_VoltagePhaseA+0x2a>
	{
		obj.adu.pdu.startAddress = VOLTAGE_OF_A1_PHASE;
 80049d8:	230b      	movs	r3, #11
 80049da:	f8ad 3002 	strh.w	r3, [sp, #2]
	}

	if (threePhaseMeter)
 80049de:	4b08      	ldr	r3, [pc, #32]	@ (8004a00 <adl_VoltagePhaseA+0x4c>)
 80049e0:	781b      	ldrb	r3, [r3, #0]
 80049e2:	b113      	cbz	r3, 80049ea <adl_VoltagePhaseA+0x36>
	{
		obj.adu.pdu.startAddress = VOLTAGE_OF_A_PHASE;
 80049e4:	2361      	movs	r3, #97	@ 0x61
 80049e6:	f8ad 3002 	strh.w	r3, [sp, #2]
	}

	obj.adu.pdu.numberOfRegisters = HWORD_1;
 80049ea:	2301      	movs	r3, #1
	ModbusRTU_queueSerial(&obj);
 80049ec:	4668      	mov	r0, sp
	obj.adu.pdu.numberOfRegisters = HWORD_1;
 80049ee:	f8ad 3004 	strh.w	r3, [sp, #4]
	ModbusRTU_queueSerial(&obj);
 80049f2:	f000 f97b 	bl	8004cec <ModbusRTU_queueSerial>
}
 80049f6:	b020      	add	sp, #128	@ 0x80
 80049f8:	bd10      	pop	{r4, pc}
 80049fa:	bf00      	nop
 80049fc:	2000008d 	.word	0x2000008d
 8004a00:	2000008c 	.word	0x2000008c

08004a04 <adl_VoltagePhaseB>:

void adl_VoltagePhaseB(const ADL_t* restrict adl)
{
 8004a04:	b510      	push	{r4, lr}
 8004a06:	4604      	mov	r4, r0
 8004a08:	b0a0      	sub	sp, #128	@ 0x80
	Modbus_t obj = {0};
 8004a0a:	227a      	movs	r2, #122	@ 0x7a
 8004a0c:	2100      	movs	r1, #0
 8004a0e:	f10d 0006 	add.w	r0, sp, #6
 8004a12:	f006 fc15 	bl	800b240 <memset>
	obj.adu.pdu.slaveAddress = adl->slaveAddress;
 8004a16:	7823      	ldrb	r3, [r4, #0]
	obj.adu.pdu.functionCode = READ_HOLDING_REGISTERS;
	obj.adu.pdu.startAddress = VOLTAGE_OF_B_PHASE;
	obj.adu.pdu.numberOfRegisters = HWORD_1;
	ModbusRTU_queueSerial(&obj);
 8004a18:	4668      	mov	r0, sp
	obj.adu.pdu.slaveAddress = adl->slaveAddress;
 8004a1a:	f88d 3000 	strb.w	r3, [sp]
	obj.adu.pdu.functionCode = READ_HOLDING_REGISTERS;
 8004a1e:	2303      	movs	r3, #3
 8004a20:	f88d 3001 	strb.w	r3, [sp, #1]
	obj.adu.pdu.startAddress = VOLTAGE_OF_B_PHASE;
 8004a24:	2362      	movs	r3, #98	@ 0x62
 8004a26:	f8ad 3002 	strh.w	r3, [sp, #2]
	obj.adu.pdu.numberOfRegisters = HWORD_1;
 8004a2a:	2301      	movs	r3, #1
 8004a2c:	f8ad 3004 	strh.w	r3, [sp, #4]
	ModbusRTU_queueSerial(&obj);
 8004a30:	f000 f95c 	bl	8004cec <ModbusRTU_queueSerial>
}
 8004a34:	b020      	add	sp, #128	@ 0x80
 8004a36:	bd10      	pop	{r4, pc}

08004a38 <adl_VoltagePhaseC>:

void adl_VoltagePhaseC(const ADL_t* restrict adl)
{
 8004a38:	b510      	push	{r4, lr}
 8004a3a:	4604      	mov	r4, r0
 8004a3c:	b0a0      	sub	sp, #128	@ 0x80
	Modbus_t obj = {0};
 8004a3e:	227a      	movs	r2, #122	@ 0x7a
 8004a40:	2100      	movs	r1, #0
 8004a42:	f10d 0006 	add.w	r0, sp, #6
 8004a46:	f006 fbfb 	bl	800b240 <memset>
	obj.adu.pdu.slaveAddress = adl->slaveAddress;
 8004a4a:	7823      	ldrb	r3, [r4, #0]
	obj.adu.pdu.functionCode = READ_HOLDING_REGISTERS;
	obj.adu.pdu.startAddress = VOLTAGE_OF_C_PHASE;
	obj.adu.pdu.numberOfRegisters = HWORD_1;
	ModbusRTU_queueSerial(&obj);
 8004a4c:	4668      	mov	r0, sp
	obj.adu.pdu.slaveAddress = adl->slaveAddress;
 8004a4e:	f88d 3000 	strb.w	r3, [sp]
	obj.adu.pdu.functionCode = READ_HOLDING_REGISTERS;
 8004a52:	2303      	movs	r3, #3
 8004a54:	f88d 3001 	strb.w	r3, [sp, #1]
	obj.adu.pdu.startAddress = VOLTAGE_OF_C_PHASE;
 8004a58:	2363      	movs	r3, #99	@ 0x63
 8004a5a:	f8ad 3002 	strh.w	r3, [sp, #2]
	obj.adu.pdu.numberOfRegisters = HWORD_1;
 8004a5e:	2301      	movs	r3, #1
 8004a60:	f8ad 3004 	strh.w	r3, [sp, #4]
	ModbusRTU_queueSerial(&obj);
 8004a64:	f000 f942 	bl	8004cec <ModbusRTU_queueSerial>
}
 8004a68:	b020      	add	sp, #128	@ 0x80
 8004a6a:	bd10      	pop	{r4, pc}

08004a6c <adl_CurrentPhaseA>:

void adl_CurrentPhaseA(const ADL_t* restrict adl)
{
 8004a6c:	b510      	push	{r4, lr}
 8004a6e:	4604      	mov	r4, r0
 8004a70:	b0a0      	sub	sp, #128	@ 0x80
	Modbus_t obj = {0};
 8004a72:	227e      	movs	r2, #126	@ 0x7e
 8004a74:	2100      	movs	r1, #0
 8004a76:	f10d 0002 	add.w	r0, sp, #2
 8004a7a:	f006 fbe1 	bl	800b240 <memset>
	obj.adu.pdu.slaveAddress = adl->slaveAddress;
 8004a7e:	7823      	ldrb	r3, [r4, #0]
 8004a80:	f88d 3000 	strb.w	r3, [sp]
	obj.adu.pdu.functionCode = READ_HOLDING_REGISTERS;
 8004a84:	2303      	movs	r3, #3
 8004a86:	f88d 3001 	strb.w	r3, [sp, #1]

	if (singlePhaseMeter)
 8004a8a:	4b0a      	ldr	r3, [pc, #40]	@ (8004ab4 <adl_CurrentPhaseA+0x48>)
 8004a8c:	781b      	ldrb	r3, [r3, #0]
 8004a8e:	b113      	cbz	r3, 8004a96 <adl_CurrentPhaseA+0x2a>
	{
		obj.adu.pdu.startAddress = CURRENT_OF_A1_PHASE;
 8004a90:	230c      	movs	r3, #12
 8004a92:	f8ad 3002 	strh.w	r3, [sp, #2]
	}

	if (threePhaseMeter)
 8004a96:	4b08      	ldr	r3, [pc, #32]	@ (8004ab8 <adl_CurrentPhaseA+0x4c>)
 8004a98:	781b      	ldrb	r3, [r3, #0]
 8004a9a:	b113      	cbz	r3, 8004aa2 <adl_CurrentPhaseA+0x36>
	{
		obj.adu.pdu.startAddress = CURRENT_OF_A_PHASE;
 8004a9c:	2364      	movs	r3, #100	@ 0x64
 8004a9e:	f8ad 3002 	strh.w	r3, [sp, #2]
	}

	obj.adu.pdu.numberOfRegisters = HWORD_1;
 8004aa2:	2301      	movs	r3, #1
	ModbusRTU_queueSerial(&obj);
 8004aa4:	4668      	mov	r0, sp
	obj.adu.pdu.numberOfRegisters = HWORD_1;
 8004aa6:	f8ad 3004 	strh.w	r3, [sp, #4]
	ModbusRTU_queueSerial(&obj);
 8004aaa:	f000 f91f 	bl	8004cec <ModbusRTU_queueSerial>
}
 8004aae:	b020      	add	sp, #128	@ 0x80
 8004ab0:	bd10      	pop	{r4, pc}
 8004ab2:	bf00      	nop
 8004ab4:	2000008d 	.word	0x2000008d
 8004ab8:	2000008c 	.word	0x2000008c

08004abc <adl_CurrentPhaseB>:

void adl_CurrentPhaseB(const ADL_t* restrict adl)
{
 8004abc:	b510      	push	{r4, lr}
 8004abe:	4604      	mov	r4, r0
 8004ac0:	b0a0      	sub	sp, #128	@ 0x80
	Modbus_t obj = {0};
 8004ac2:	227a      	movs	r2, #122	@ 0x7a
 8004ac4:	2100      	movs	r1, #0
 8004ac6:	f10d 0006 	add.w	r0, sp, #6
 8004aca:	f006 fbb9 	bl	800b240 <memset>
	obj.adu.pdu.slaveAddress = adl->slaveAddress;
 8004ace:	7823      	ldrb	r3, [r4, #0]
	obj.adu.pdu.functionCode = READ_HOLDING_REGISTERS;
	obj.adu.pdu.startAddress = CURRENT_OF_B_PHASE;
	obj.adu.pdu.numberOfRegisters = HWORD_1;
	ModbusRTU_queueSerial(&obj);
 8004ad0:	4668      	mov	r0, sp
	obj.adu.pdu.slaveAddress = adl->slaveAddress;
 8004ad2:	f88d 3000 	strb.w	r3, [sp]
	obj.adu.pdu.functionCode = READ_HOLDING_REGISTERS;
 8004ad6:	2303      	movs	r3, #3
 8004ad8:	f88d 3001 	strb.w	r3, [sp, #1]
	obj.adu.pdu.startAddress = CURRENT_OF_B_PHASE;
 8004adc:	2365      	movs	r3, #101	@ 0x65
 8004ade:	f8ad 3002 	strh.w	r3, [sp, #2]
	obj.adu.pdu.numberOfRegisters = HWORD_1;
 8004ae2:	2301      	movs	r3, #1
 8004ae4:	f8ad 3004 	strh.w	r3, [sp, #4]
	ModbusRTU_queueSerial(&obj);
 8004ae8:	f000 f900 	bl	8004cec <ModbusRTU_queueSerial>
}
 8004aec:	b020      	add	sp, #128	@ 0x80
 8004aee:	bd10      	pop	{r4, pc}

08004af0 <adl_CurrentPhaseC>:

void adl_CurrentPhaseC(const ADL_t* restrict adl)
{
 8004af0:	b510      	push	{r4, lr}
 8004af2:	4604      	mov	r4, r0
 8004af4:	b0a0      	sub	sp, #128	@ 0x80
	Modbus_t obj = {0};
 8004af6:	227a      	movs	r2, #122	@ 0x7a
 8004af8:	2100      	movs	r1, #0
 8004afa:	f10d 0006 	add.w	r0, sp, #6
 8004afe:	f006 fb9f 	bl	800b240 <memset>
	obj.adu.pdu.slaveAddress = adl->slaveAddress;
 8004b02:	7823      	ldrb	r3, [r4, #0]
	obj.adu.pdu.functionCode = READ_HOLDING_REGISTERS;
	obj.adu.pdu.startAddress = CURRENT_OF_C_PHASE;
	obj.adu.pdu.numberOfRegisters = HWORD_1;
	ModbusRTU_queueSerial(&obj);
 8004b04:	4668      	mov	r0, sp
	obj.adu.pdu.slaveAddress = adl->slaveAddress;
 8004b06:	f88d 3000 	strb.w	r3, [sp]
	obj.adu.pdu.functionCode = READ_HOLDING_REGISTERS;
 8004b0a:	2303      	movs	r3, #3
 8004b0c:	f88d 3001 	strb.w	r3, [sp, #1]
	obj.adu.pdu.startAddress = CURRENT_OF_C_PHASE;
 8004b10:	2366      	movs	r3, #102	@ 0x66
 8004b12:	f8ad 3002 	strh.w	r3, [sp, #2]
	obj.adu.pdu.numberOfRegisters = HWORD_1;
 8004b16:	2301      	movs	r3, #1
 8004b18:	f8ad 3004 	strh.w	r3, [sp, #4]
	ModbusRTU_queueSerial(&obj);
 8004b1c:	f000 f8e6 	bl	8004cec <ModbusRTU_queueSerial>
}
 8004b20:	b020      	add	sp, #128	@ 0x80
 8004b22:	bd10      	pop	{r4, pc}

08004b24 <adl_Frequency>:

void adl_Frequency(const ADL_t* restrict adl)
{
 8004b24:	b510      	push	{r4, lr}
 8004b26:	4604      	mov	r4, r0
 8004b28:	b0a0      	sub	sp, #128	@ 0x80
	Modbus_t obj = {0};
 8004b2a:	227e      	movs	r2, #126	@ 0x7e
 8004b2c:	2100      	movs	r1, #0
 8004b2e:	f10d 0002 	add.w	r0, sp, #2
 8004b32:	f006 fb85 	bl	800b240 <memset>
	obj.adu.pdu.slaveAddress = adl->slaveAddress;
 8004b36:	7823      	ldrb	r3, [r4, #0]
 8004b38:	f88d 3000 	strb.w	r3, [sp]
	obj.adu.pdu.functionCode = READ_HOLDING_REGISTERS;
 8004b3c:	2303      	movs	r3, #3
 8004b3e:	f88d 3001 	strb.w	r3, [sp, #1]

	if (singlePhaseMeter)
 8004b42:	4b0a      	ldr	r3, [pc, #40]	@ (8004b6c <adl_Frequency+0x48>)
 8004b44:	781b      	ldrb	r3, [r3, #0]
 8004b46:	b113      	cbz	r3, 8004b4e <adl_Frequency+0x2a>
	{
		obj.adu.pdu.startAddress = FREQUENCY1;
 8004b48:	2311      	movs	r3, #17
 8004b4a:	f8ad 3002 	strh.w	r3, [sp, #2]
	}

	if (threePhaseMeter)
 8004b4e:	4b08      	ldr	r3, [pc, #32]	@ (8004b70 <adl_Frequency+0x4c>)
 8004b50:	781b      	ldrb	r3, [r3, #0]
 8004b52:	b113      	cbz	r3, 8004b5a <adl_Frequency+0x36>
	{
		obj.adu.pdu.startAddress = FREQUENCY;
 8004b54:	2377      	movs	r3, #119	@ 0x77
 8004b56:	f8ad 3002 	strh.w	r3, [sp, #2]
	}

	obj.adu.pdu.numberOfRegisters = HWORD_1;
 8004b5a:	2301      	movs	r3, #1
	ModbusRTU_queueSerial(&obj);
 8004b5c:	4668      	mov	r0, sp
	obj.adu.pdu.numberOfRegisters = HWORD_1;
 8004b5e:	f8ad 3004 	strh.w	r3, [sp, #4]
	ModbusRTU_queueSerial(&obj);
 8004b62:	f000 f8c3 	bl	8004cec <ModbusRTU_queueSerial>
}
 8004b66:	b020      	add	sp, #128	@ 0x80
 8004b68:	bd10      	pop	{r4, pc}
 8004b6a:	bf00      	nop
 8004b6c:	2000008d 	.word	0x2000008d
 8004b70:	2000008c 	.word	0x2000008c

08004b74 <adl_TotalActivePower>:
	obj.adu.pdu.numberOfRegisters = HWORD_2;
	ModbusRTU_queueSerial(&obj);
}

void adl_TotalActivePower(const ADL_t* restrict adl)
{
 8004b74:	b510      	push	{r4, lr}
 8004b76:	4604      	mov	r4, r0
 8004b78:	b0a0      	sub	sp, #128	@ 0x80
	Modbus_t obj = {0};
 8004b7a:	227c      	movs	r2, #124	@ 0x7c
 8004b7c:	2100      	movs	r1, #0
 8004b7e:	a801      	add	r0, sp, #4
 8004b80:	f006 fb5e 	bl	800b240 <memset>
	obj.adu.pdu.slaveAddress = adl->slaveAddress;
 8004b84:	7823      	ldrb	r3, [r4, #0]
 8004b86:	f88d 3000 	strb.w	r3, [sp]
	obj.adu.pdu.functionCode = READ_HOLDING_REGISTERS;
 8004b8a:	2303      	movs	r3, #3
 8004b8c:	f88d 3001 	strb.w	r3, [sp, #1]
	obj.adu.pdu.startAddress = TOTAL_ACTIVE_POWER;
 8004b90:	f44f 73b5 	mov.w	r3, #362	@ 0x16a
 8004b94:	f8ad 3002 	strh.w	r3, [sp, #2]

	if (singlePhaseMeter)
 8004b98:	4b0b      	ldr	r3, [pc, #44]	@ (8004bc8 <adl_TotalActivePower+0x54>)
 8004b9a:	781b      	ldrb	r3, [r3, #0]
 8004b9c:	b12b      	cbz	r3, 8004baa <adl_TotalActivePower+0x36>
	{
		obj.adu.pdu.startAddress = TOTAL_ACTIVE1_POWER;
 8004b9e:	230d      	movs	r3, #13
 8004ba0:	f8ad 3002 	strh.w	r3, [sp, #2]
		obj.adu.pdu.numberOfRegisters = HWORD_1;
 8004ba4:	2301      	movs	r3, #1
 8004ba6:	f8ad 3004 	strh.w	r3, [sp, #4]
	}

	if (threePhaseMeter)
 8004baa:	4b08      	ldr	r3, [pc, #32]	@ (8004bcc <adl_TotalActivePower+0x58>)
 8004bac:	781b      	ldrb	r3, [r3, #0]
 8004bae:	b133      	cbz	r3, 8004bbe <adl_TotalActivePower+0x4a>
	{
		obj.adu.pdu.startAddress = TOTAL_ACTIVE_POWER;
 8004bb0:	f44f 73b5 	mov.w	r3, #362	@ 0x16a
 8004bb4:	f8ad 3002 	strh.w	r3, [sp, #2]
		obj.adu.pdu.numberOfRegisters = HWORD_2;
 8004bb8:	2302      	movs	r3, #2
 8004bba:	f8ad 3004 	strh.w	r3, [sp, #4]
	}

	ModbusRTU_queueSerial(&obj);
 8004bbe:	4668      	mov	r0, sp
 8004bc0:	f000 f894 	bl	8004cec <ModbusRTU_queueSerial>
}
 8004bc4:	b020      	add	sp, #128	@ 0x80
 8004bc6:	bd10      	pop	{r4, pc}
 8004bc8:	2000008d 	.word	0x2000008d
 8004bcc:	2000008c 	.word	0x2000008c

08004bd0 <adl_IdentifyEnergyMeter>:

/*----------------------------------------------------------------------------
 * Support Functions
 *----------------------------------------------------------------------------*/
void adl_IdentifyEnergyMeter(const ADL_t* restrict adl)
{
 8004bd0:	b530      	push	{r4, r5, lr}
 8004bd2:	4604      	mov	r4, r0
 8004bd4:	b0a1      	sub	sp, #132	@ 0x84
	Modbus_t obj = {0};
 8004bd6:	227a      	movs	r2, #122	@ 0x7a
 8004bd8:	2100      	movs	r1, #0
 8004bda:	f10d 0006 	add.w	r0, sp, #6
 8004bde:	f006 fb2f 	bl	800b240 <memset>
	obj.adu.pdu.slaveAddress = adl->slaveAddress;
 8004be2:	7823      	ldrb	r3, [r4, #0]
	obj.adu.pdu.functionCode = READ_HOLDING_REGISTERS;
	obj.adu.pdu.startAddress = ADL_MODEL_NUMBER;
	obj.adu.pdu.numberOfRegisters = HWORD_2;
 8004be4:	2502      	movs	r5, #2
	obj.adu.pdu.slaveAddress = adl->slaveAddress;
 8004be6:	f88d 3000 	strb.w	r3, [sp]
	obj.adu.pdu.functionCode = READ_HOLDING_REGISTERS;
 8004bea:	2303      	movs	r3, #3
 8004bec:	f88d 3001 	strb.w	r3, [sp, #1]
	obj.adu.pdu.startAddress = ADL_MODEL_NUMBER;
 8004bf0:	f24f 0309 	movw	r3, #61449	@ 0xf009
	ModbusRTU_queueSerial(&obj);
 8004bf4:	4668      	mov	r0, sp
	obj.adu.pdu.startAddress = ADL_MODEL_NUMBER;
 8004bf6:	f8ad 3002 	strh.w	r3, [sp, #2]
	obj.adu.pdu.numberOfRegisters = HWORD_2;
 8004bfa:	f8ad 5004 	strh.w	r5, [sp, #4]
	ModbusRTU_queueSerial(&obj);
 8004bfe:	f000 f875 	bl	8004cec <ModbusRTU_queueSerial>

	switch (adl->modelNumber)
 8004c02:	7863      	ldrb	r3, [r4, #1]
 8004c04:	480d      	ldr	r0, [pc, #52]	@ (8004c3c <adl_IdentifyEnergyMeter+0x6c>)
 8004c06:	2b32      	cmp	r3, #50	@ 0x32
 8004c08:	4c0d      	ldr	r4, [pc, #52]	@ (8004c40 <adl_IdentifyEnergyMeter+0x70>)
 8004c0a:	490e      	ldr	r1, [pc, #56]	@ (8004c44 <adl_IdentifyEnergyMeter+0x74>)
 8004c0c:	4a0e      	ldr	r2, [pc, #56]	@ (8004c48 <adl_IdentifyEnergyMeter+0x78>)
 8004c0e:	d006      	beq.n	8004c1e <adl_IdentifyEnergyMeter+0x4e>
 8004c10:	2b34      	cmp	r3, #52	@ 0x34
 8004c12:	d00b      	beq.n	8004c2c <adl_IdentifyEnergyMeter+0x5c>
		singlePhaseMeter = false;
		threePhaseMeter = true;
		charger_configGet.energyMeterModel = 2;
		break;
	default:
		identifyMeter = false;
 8004c14:	2300      	movs	r3, #0
 8004c16:	7023      	strb	r3, [r4, #0]
		singlePhaseMeter = false;
 8004c18:	7003      	strb	r3, [r0, #0]
		threePhaseMeter = false;
 8004c1a:	700b      	strb	r3, [r1, #0]
 8004c1c:	e004      	b.n	8004c28 <adl_IdentifyEnergyMeter+0x58>
		identifyMeter = true;
 8004c1e:	2301      	movs	r3, #1
 8004c20:	7023      	strb	r3, [r4, #0]
		singlePhaseMeter = true;
 8004c22:	7003      	strb	r3, [r0, #0]
		threePhaseMeter = false;
 8004c24:	2000      	movs	r0, #0
 8004c26:	7008      	strb	r0, [r1, #0]
		charger_configGet.energyMeterModel = 0;
 8004c28:	7513      	strb	r3, [r2, #20]
		break;
	}
}
 8004c2a:	e005      	b.n	8004c38 <adl_IdentifyEnergyMeter+0x68>
		identifyMeter = true;
 8004c2c:	2301      	movs	r3, #1
 8004c2e:	7023      	strb	r3, [r4, #0]
		singlePhaseMeter = false;
 8004c30:	2400      	movs	r4, #0
 8004c32:	7004      	strb	r4, [r0, #0]
		threePhaseMeter = true;
 8004c34:	700b      	strb	r3, [r1, #0]
		charger_configGet.energyMeterModel = 2;
 8004c36:	7515      	strb	r5, [r2, #20]
}
 8004c38:	b021      	add	sp, #132	@ 0x84
 8004c3a:	bd30      	pop	{r4, r5, pc}
 8004c3c:	2000008d 	.word	0x2000008d
 8004c40:	2000008e 	.word	0x2000008e
 8004c44:	2000008c 	.word	0x2000008c
 8004c48:	200011b0 	.word	0x200011b0

08004c4c <ModbusRTU_CRC>:
 *----------------------------------------------------------------------------*/

#ifndef INC_TABLES_H_

static uint16_t ModbusRTU_CRC(const uint8_t *data, size_t length)
{
 8004c4c:	4602      	mov	r2, r0
    uint16_t crc = 0xFFFF;

    while (length--)
 8004c4e:	4401      	add	r1, r0
    uint16_t crc = 0xFFFF;
 8004c50:	f64f 70ff 	movw	r0, #65535	@ 0xffff
{
 8004c54:	b530      	push	{r4, r5, lr}
    {
        crc ^= *data++;

        for (int i = 0; i < 8; ++i)
        {
            if (crc & 0x0001)
 8004c56:	4d08      	ldr	r5, [pc, #32]	@ (8004c78 <ModbusRTU_CRC+0x2c>)
    while (length--)
 8004c58:	4291      	cmp	r1, r2
 8004c5a:	d100      	bne.n	8004c5e <ModbusRTU_CRC+0x12>
            else
                crc >>= 1;
        }
    }
    return crc;
}
 8004c5c:	bd30      	pop	{r4, r5, pc}
        crc ^= *data++;
 8004c5e:	2408      	movs	r4, #8
 8004c60:	f812 3b01 	ldrb.w	r3, [r2], #1
 8004c64:	4058      	eors	r0, r3
            if (crc & 0x0001)
 8004c66:	f340 0300 	sbfx	r3, r0, #0, #1
 8004c6a:	402b      	ands	r3, r5
 8004c6c:	ea83 0350 	eor.w	r3, r3, r0, lsr #1
        for (int i = 0; i < 8; ++i)
 8004c70:	3c01      	subs	r4, #1
            if (crc & 0x0001)
 8004c72:	b298      	uxth	r0, r3
        for (int i = 0; i < 8; ++i)
 8004c74:	d1f7      	bne.n	8004c66 <ModbusRTU_CRC+0x1a>
 8004c76:	e7ef      	b.n	8004c58 <ModbusRTU_CRC+0xc>
 8004c78:	ffffa001 	.word	0xffffa001

08004c7c <ModbusRTU_checksum>:

#endif


static bool ModbusRTU_checksum(const uint8_t* restrict data, uint8_t length)
{
 8004c7c:	b538      	push	{r3, r4, r5, lr}
 8004c7e:	4604      	mov	r4, r0
 8004c80:	460d      	mov	r5, r1
	uint16_t crc_calc = ModbusRTU_CRC(data, (length - 2));
 8004c82:	3902      	subs	r1, #2
 8004c84:	f7ff ffe2 	bl	8004c4c <ModbusRTU_CRC>
	uint16_t crc_rx = (data[length - 1] << 8) | (data[length - 2]);
 8004c88:	1961      	adds	r1, r4, r5
 8004c8a:	f811 2c01 	ldrb.w	r2, [r1, #-1]
 8004c8e:	f811 3c02 	ldrb.w	r3, [r1, #-2]
	if (crc_calc == crc_rx && crc_calc != 0 && crc_rx != 0)
 8004c92:	ea43 2302 	orr.w	r3, r3, r2, lsl #8
 8004c96:	4298      	cmp	r0, r3
 8004c98:	d103      	bne.n	8004ca2 <ModbusRTU_checksum+0x26>
 8004c9a:	3800      	subs	r0, #0
 8004c9c:	bf18      	it	ne
 8004c9e:	2001      	movne	r0, #1
	}
	else
	{
		return false;
	}
}
 8004ca0:	bd38      	pop	{r3, r4, r5, pc}
		return false;
 8004ca2:	2000      	movs	r0, #0
 8004ca4:	e7fc      	b.n	8004ca0 <ModbusRTU_checksum+0x24>
	...

08004ca8 <ModbusRTU_Intick>:
			RxBusTimeout++;
 8004ca8:	4a0b      	ldr	r2, [pc, #44]	@ (8004cd8 <ModbusRTU_Intick+0x30>)
 8004caa:	6813      	ldr	r3, [r2, #0]
 8004cac:	3301      	adds	r3, #1
 8004cae:	6013      	str	r3, [r2, #0]
			sniffTxInterval++;
 8004cb0:	4a0a      	ldr	r2, [pc, #40]	@ (8004cdc <ModbusRTU_Intick+0x34>)
 8004cb2:	6813      	ldr	r3, [r2, #0]
 8004cb4:	3301      	adds	r3, #1
 8004cb6:	6013      	str	r3, [r2, #0]
			TxCycleInterval++;
 8004cb8:	4a09      	ldr	r2, [pc, #36]	@ (8004ce0 <ModbusRTU_Intick+0x38>)
 8004cba:	8813      	ldrh	r3, [r2, #0]
 8004cbc:	3301      	adds	r3, #1
 8004cbe:	b29b      	uxth	r3, r3
 8004cc0:	8013      	strh	r3, [r2, #0]
			TxInterval++;
 8004cc2:	4a08      	ldr	r2, [pc, #32]	@ (8004ce4 <ModbusRTU_Intick+0x3c>)
 8004cc4:	8813      	ldrh	r3, [r2, #0]
 8004cc6:	3301      	adds	r3, #1
 8004cc8:	b29b      	uxth	r3, r3
 8004cca:	8013      	strh	r3, [r2, #0]
			RxTimeoutInterval++;
 8004ccc:	4a06      	ldr	r2, [pc, #24]	@ (8004ce8 <ModbusRTU_Intick+0x40>)
 8004cce:	8813      	ldrh	r3, [r2, #0]
 8004cd0:	3301      	adds	r3, #1
 8004cd2:	b29b      	uxth	r3, r3
 8004cd4:	8013      	strh	r3, [r2, #0]
}
 8004cd6:	4770      	bx	lr
 8004cd8:	2000012c 	.word	0x2000012c
 8004cdc:	20000130 	.word	0x20000130
 8004ce0:	20000136 	.word	0x20000136
 8004ce4:	20000138 	.word	0x20000138
 8004ce8:	20000134 	.word	0x20000134

08004cec <ModbusRTU_queueSerial>:
		if((Modbus_Queue.ID[i] == modbusDevice.ID.all) && (((Modbus_Queue.ActiveMask >> i) & 0x0001) == 1))
 8004cec:	2200      	movs	r2, #0
{
 8004cee:	e92d 47f0 	stmdb	sp!, {r4, r5, r6, r7, r8, r9, sl, lr}
	modbusDevice.ID.bits.slaveAddress = obj->adu.pdu.slaveAddress;
 8004cf2:	2400      	movs	r4, #0
		if((Modbus_Queue.ID[i] == modbusDevice.ID.all) && (((Modbus_Queue.ActiveMask >> i) & 0x0001) == 1))
 8004cf4:	4616      	mov	r6, r2
	modbusDevice.ID.bits.slaveAddress = obj->adu.pdu.slaveAddress;
 8004cf6:	f890 c000 	ldrb.w	ip, [r0]
	modbusDevice.ID.bits.functionCode = obj->adu.pdu.functionCode;
 8004cfa:	7843      	ldrb	r3, [r0, #1]
	modbusDevice.ID.bits.startAddress = obj->adu.pdu.startAddress;
 8004cfc:	8841      	ldrh	r1, [r0, #2]
	modbusDevice.ID.bits.slaveAddress = obj->adu.pdu.slaveAddress;
 8004cfe:	f36c 0407 	bfi	r4, ip, #0, #8
	modbusDevice.ID.bits.functionCode = obj->adu.pdu.functionCode;
 8004d02:	f363 240f 	bfi	r4, r3, #8, #8
		if((Modbus_Queue.ID[i] == modbusDevice.ID.all) && (((Modbus_Queue.ActiveMask >> i) & 0x0001) == 1))
 8004d06:	4d46      	ldr	r5, [pc, #280]	@ (8004e20 <ModbusRTU_queueSerial+0x134>)
	modbusDevice.ID.bits.startAddress = obj->adu.pdu.startAddress;
 8004d08:	f361 441f 	bfi	r4, r1, #16, #16
		if((Modbus_Queue.ID[i] == modbusDevice.ID.all) && (((Modbus_Queue.ActiveMask >> i) & 0x0001) == 1))
 8004d0c:	f102 0708 	add.w	r7, r2, #8
 8004d10:	eb05 0787 	add.w	r7, r5, r7, lsl #2
 8004d14:	687f      	ldr	r7, [r7, #4]
 8004d16:	42a7      	cmp	r7, r4
 8004d18:	d109      	bne.n	8004d2e <ModbusRTU_queueSerial+0x42>
 8004d1a:	682f      	ldr	r7, [r5, #0]
 8004d1c:	40d7      	lsrs	r7, r2
 8004d1e:	07ff      	lsls	r7, r7, #31
 8004d20:	d505      	bpl.n	8004d2e <ModbusRTU_queueSerial+0x42>
 8004d22:	b116      	cbz	r6, 8004d2a <ModbusRTU_queueSerial+0x3e>
 8004d24:	2200      	movs	r2, #0
 8004d26:	4b3f      	ldr	r3, [pc, #252]	@ (8004e24 <ModbusRTU_queueSerial+0x138>)
 8004d28:	701a      	strb	r2, [r3, #0]
}
 8004d2a:	e8bd 87f0 	ldmia.w	sp!, {r4, r5, r6, r7, r8, r9, sl, pc}
		if(Modbus_Queue.ActiveMask == 0)
 8004d2e:	682f      	ldr	r7, [r5, #0]
	for(uint8_t i = 0; i < MODBUS_QUEUE_SIZE; i++) // fills vacant slots in queue
 8004d30:	3201      	adds	r2, #1
 8004d32:	2f00      	cmp	r7, #0
 8004d34:	bf08      	it	eq
 8004d36:	2601      	moveq	r6, #1
 8004d38:	2a20      	cmp	r2, #32
 8004d3a:	d1e7      	bne.n	8004d0c <ModbusRTU_queueSerial+0x20>
 8004d3c:	f8df 80e4 	ldr.w	r8, [pc, #228]	@ 8004e24 <ModbusRTU_queueSerial+0x138>
 8004d40:	b116      	cbz	r6, 8004d48 <ModbusRTU_queueSerial+0x5c>
 8004d42:	2200      	movs	r2, #0
 8004d44:	f888 2000 	strb.w	r2, [r8]
	Modbus_Queue.ActiveMask |= (1 << index);
 8004d48:	2201      	movs	r2, #1
 8004d4a:	f898 6000 	ldrb.w	r6, [r8]
 8004d4e:	682f      	ldr	r7, [r5, #0]
 8004d50:	40b2      	lsls	r2, r6
 8004d52:	433a      	orrs	r2, r7
 8004d54:	602a      	str	r2, [r5, #0]
	Modbus_Queue.ID[index] = modbusDevice.ID.all;
 8004d56:	f106 0208 	add.w	r2, r6, #8
 8004d5a:	eb05 0282 	add.w	r2, r5, r2, lsl #2
 8004d5e:	6054      	str	r4, [r2, #4]
	Modbus_Queue.TxData[index][i++] = modbusDevice.ID.bits.slaveAddress;
 8004d60:	eb05 1286 	add.w	r2, r5, r6, lsl #6
	Modbus_Queue.TxData[index][i++] = ((obj->adu.pdu.startAddress >> 8) & 0xFF);
 8004d64:	0a0c      	lsrs	r4, r1, #8
	Modbus_Queue.TxData[index][i++] = (obj->adu.pdu.startAddress & 0xFF);
 8004d66:	b2c9      	uxtb	r1, r1
	Modbus_Queue.TxData[index][i++] = modbusDevice.ID.bits.slaveAddress;
 8004d68:	f882 c0a4 	strb.w	ip, [r2, #164]	@ 0xa4
	Modbus_Queue.TxData[index][i++] = obj->adu.pdu.functionCode;
 8004d6c:	f882 30a5 	strb.w	r3, [r2, #165]	@ 0xa5
	Modbus_Queue.TxData[index][i++] = ((obj->adu.pdu.startAddress >> 8) & 0xFF);
 8004d70:	f882 40a6 	strb.w	r4, [r2, #166]	@ 0xa6
	Modbus_Queue.TxData[index][i++] = (obj->adu.pdu.startAddress & 0xFF);
 8004d74:	f882 10a7 	strb.w	r1, [r2, #167]	@ 0xa7
	if(obj->adu.pdu.functionCode == READ_HOLDING_REGISTERS || obj->adu.pdu.functionCode == READ_INPUT_REGISTERS
 8004d78:	1eda      	subs	r2, r3, #3
 8004d7a:	2a01      	cmp	r2, #1
	Modbus_Queue.TxData[index][i++] = modbusDevice.ID.bits.slaveAddress;
 8004d7c:	ea4f 1786 	mov.w	r7, r6, lsl #6
	if(obj->adu.pdu.functionCode == READ_HOLDING_REGISTERS || obj->adu.pdu.functionCode == READ_INPUT_REGISTERS
 8004d80:	d903      	bls.n	8004d8a <ModbusRTU_queueSerial+0x9e>
			|| obj->adu.pdu.functionCode == MULTIPLE_COIL_WRITE || obj->adu.pdu.functionCode == MULTIPLE_REGISTER_WRITE)
 8004d82:	f1a3 020f 	sub.w	r2, r3, #15
 8004d86:	2a01      	cmp	r2, #1
 8004d88:	d846      	bhi.n	8004e18 <ModbusRTU_queueSerial+0x12c>
		Modbus_Queue.TxData[index][i++] = ((obj->adu.pdu.numberOfRegisters >> 8) & 0xFF);
 8004d8a:	8882      	ldrh	r2, [r0, #4]
 8004d8c:	19e9      	adds	r1, r5, r7
 8004d8e:	0a14      	lsrs	r4, r2, #8
 8004d90:	f881 40a8 	strb.w	r4, [r1, #168]	@ 0xa8
		Modbus_Queue.TxData[index][i++] = (obj->adu.pdu.numberOfRegisters & 0xFF);
 8004d94:	2406      	movs	r4, #6
 8004d96:	b2d2      	uxtb	r2, r2
 8004d98:	f881 20a9 	strb.w	r2, [r1, #169]	@ 0xa9
	if(obj->adu.pdu.functionCode == MULTIPLE_COIL_WRITE || obj->adu.pdu.functionCode == MULTIPLE_REGISTER_WRITE ||
 8004d9c:	2b06      	cmp	r3, #6
 8004d9e:	d90b      	bls.n	8004db8 <ModbusRTU_queueSerial+0xcc>
		for (uint8_t j = 0; j < obj->adu.pdu.numberOfRegisters; j++)
 8004da0:	2300      	movs	r3, #0
 8004da2:	f8b0 e004 	ldrh.w	lr, [r0, #4]
			Modbus_Queue.TxData[index][i++] = ((obj->adu.pdu.writeData[j] >> 8) & 0xFF);
 8004da6:	eb05 0c07 	add.w	ip, r5, r7
 8004daa:	1c62      	adds	r2, r4, #1
			Modbus_Queue.TxData[index][i++] = (obj->adu.pdu.writeData[j] & 0xFF);
 8004dac:	1ca1      	adds	r1, r4, #2
		for (uint8_t j = 0; j < obj->adu.pdu.numberOfRegisters; j++)
 8004dae:	4573      	cmp	r3, lr
			Modbus_Queue.TxData[index][i++] = (obj->adu.pdu.writeData[j] & 0xFF);
 8004db0:	b2d2      	uxtb	r2, r2
 8004db2:	fa5f f981 	uxtb.w	r9, r1
		for (uint8_t j = 0; j < obj->adu.pdu.numberOfRegisters; j++)
 8004db6:	d31f      	bcc.n	8004df8 <ModbusRTU_queueSerial+0x10c>
	uint16_t crc = ModbusRTU_CRC((uint8_t*)Modbus_Queue.TxData[index], i);
 8004db8:	f107 00a4 	add.w	r0, r7, #164	@ 0xa4
 8004dbc:	4621      	mov	r1, r4
 8004dbe:	4428      	add	r0, r5
 8004dc0:	f7ff ff44 	bl	8004c4c <ModbusRTU_CRC>
	Modbus_Queue.TxData[index][i++] = (crc & 0xFF);
 8004dc4:	442f      	add	r7, r5
 8004dc6:	193b      	adds	r3, r7, r4
 8004dc8:	b2c2      	uxtb	r2, r0
 8004dca:	f883 20a4 	strb.w	r2, [r3, #164]	@ 0xa4
	Modbus_Queue.Length[index] = i;
 8004dce:	4435      	add	r5, r6
	Modbus_Queue.TxData[index][i++] = ((crc >> 8) & 0xFF);
 8004dd0:	1ca3      	adds	r3, r4, #2
	index++;
 8004dd2:	3601      	adds	r6, #1
	Modbus_Queue.TxData[index][i++] = (crc & 0xFF);
 8004dd4:	3401      	adds	r4, #1
	index++;
 8004dd6:	b2f6      	uxtb	r6, r6
	Modbus_Queue.TxData[index][i++] = ((crc >> 8) & 0xFF);
 8004dd8:	b2e4      	uxtb	r4, r4
 8004dda:	b2db      	uxtb	r3, r3
 8004ddc:	f3c0 2007 	ubfx	r0, r0, #8, #8
 8004de0:	4427      	add	r7, r4
	if((index >= MODBUS_QUEUE_SIZE))
 8004de2:	2e1f      	cmp	r6, #31
	Modbus_Queue.TxData[index][i++] = ((crc >> 8) & 0xFF);
 8004de4:	f887 00a4 	strb.w	r0, [r7, #164]	@ 0xa4
	index++;
 8004de8:	f888 6000 	strb.w	r6, [r8]
	Modbus_Queue.Length[index] = i;
 8004dec:	712b      	strb	r3, [r5, #4]
	if((index >= MODBUS_QUEUE_SIZE))
 8004dee:	d899      	bhi.n	8004d24 <ModbusRTU_queueSerial+0x38>
 8004df0:	e79b      	b.n	8004d2a <ModbusRTU_queueSerial+0x3e>
	Modbus_Queue.TxData[index][i++] = (obj->adu.pdu.startAddress & 0xFF);
 8004df2:	2404      	movs	r4, #4
 8004df4:	2b04      	cmp	r3, #4
 8004df6:	e7d2      	b.n	8004d9e <ModbusRTU_queueSerial+0xb2>
			Modbus_Queue.TxData[index][i++] = ((obj->adu.pdu.writeData[j] >> 8) & 0xFF);
 8004df8:	eb00 0143 	add.w	r1, r0, r3, lsl #1
 8004dfc:	88c9      	ldrh	r1, [r1, #6]
 8004dfe:	4464      	add	r4, ip
 8004e00:	ea4f 2a11 	mov.w	sl, r1, lsr #8
			Modbus_Queue.TxData[index][i++] = (obj->adu.pdu.writeData[j] & 0xFF);
 8004e04:	4462      	add	r2, ip
 8004e06:	b2c9      	uxtb	r1, r1
		for (uint8_t j = 0; j < obj->adu.pdu.numberOfRegisters; j++)
 8004e08:	3301      	adds	r3, #1
			Modbus_Queue.TxData[index][i++] = ((obj->adu.pdu.writeData[j] >> 8) & 0xFF);
 8004e0a:	f884 a0a4 	strb.w	sl, [r4, #164]	@ 0xa4
		for (uint8_t j = 0; j < obj->adu.pdu.numberOfRegisters; j++)
 8004e0e:	b2db      	uxtb	r3, r3
			Modbus_Queue.TxData[index][i++] = (obj->adu.pdu.writeData[j] & 0xFF);
 8004e10:	464c      	mov	r4, r9
 8004e12:	f882 10a4 	strb.w	r1, [r2, #164]	@ 0xa4
		for (uint8_t j = 0; j < obj->adu.pdu.numberOfRegisters; j++)
 8004e16:	e7c8      	b.n	8004daa <ModbusRTU_queueSerial+0xbe>
	if(obj->adu.pdu.functionCode == MULTIPLE_COIL_WRITE || obj->adu.pdu.functionCode == MULTIPLE_REGISTER_WRITE ||
 8004e18:	2b06      	cmp	r3, #6
 8004e1a:	d9ea      	bls.n	8004df2 <ModbusRTU_queueSerial+0x106>
	Modbus_Queue.TxData[index][i++] = (obj->adu.pdu.startAddress & 0xFF);
 8004e1c:	2404      	movs	r4, #4
 8004e1e:	e7cb      	b.n	8004db8 <ModbusRTU_queueSerial+0xcc>
 8004e20:	20000140 	.word	0x20000140
 8004e24:	200000c3 	.word	0x200000c3

08004e28 <ModbusRTU_transmitSerial>:
	if(TxInterval >= MODBUS_TRANSMIT_INTERVAL)
 8004e28:	4a28      	ldr	r2, [pc, #160]	@ (8004ecc <ModbusRTU_transmitSerial+0xa4>)
{
 8004e2a:	e92d 41f0 	stmdb	sp!, {r4, r5, r6, r7, r8, lr}
	if(TxInterval >= MODBUS_TRANSMIT_INTERVAL)
 8004e2e:	8813      	ldrh	r3, [r2, #0]
{
 8004e30:	4680      	mov	r8, r0
	if(TxInterval >= MODBUS_TRANSMIT_INTERVAL)
 8004e32:	b29b      	uxth	r3, r3
 8004e34:	2b09      	cmp	r3, #9
 8004e36:	d940      	bls.n	8004eba <ModbusRTU_transmitSerial+0x92>
		TxInterval = 0;
 8004e38:	2300      	movs	r3, #0
 8004e3a:	8013      	strh	r3, [r2, #0]
		if ((Modbus_Queue.ActiveMask & (1 << instruction)) != 0x0) // check whether activation mask not zero
 8004e3c:	2201      	movs	r2, #1
 8004e3e:	4d24      	ldr	r5, [pc, #144]	@ (8004ed0 <ModbusRTU_transmitSerial+0xa8>)
 8004e40:	4c24      	ldr	r4, [pc, #144]	@ (8004ed4 <ModbusRTU_transmitSerial+0xac>)
 8004e42:	782b      	ldrb	r3, [r5, #0]
 8004e44:	6821      	ldr	r1, [r4, #0]
 8004e46:	409a      	lsls	r2, r3
 8004e48:	420a      	tst	r2, r1
 8004e4a:	d036      	beq.n	8004eba <ModbusRTU_transmitSerial+0x92>
	if((rxFlag) || (RxTimeoutInterval >= MODBUS_RX_TIMEOUT_INTERVAL))
 8004e4c:	4e22      	ldr	r6, [pc, #136]	@ (8004ed8 <ModbusRTU_transmitSerial+0xb0>)
 8004e4e:	4f23      	ldr	r7, [pc, #140]	@ (8004edc <ModbusRTU_transmitSerial+0xb4>)
 8004e50:	7832      	ldrb	r2, [r6, #0]
 8004e52:	b922      	cbnz	r2, 8004e5e <ModbusRTU_transmitSerial+0x36>
 8004e54:	883a      	ldrh	r2, [r7, #0]
 8004e56:	b292      	uxth	r2, r2
 8004e58:	f5b2 7f7a 	cmp.w	r2, #1000	@ 0x3e8
 8004e5c:	d32d      	bcc.n	8004eba <ModbusRTU_transmitSerial+0x92>
		if(RxTimeoutInterval >= MODBUS_RX_TIMEOUT_INTERVAL)
 8004e5e:	883a      	ldrh	r2, [r7, #0]
 8004e60:	b292      	uxth	r2, r2
 8004e62:	f5b2 7f7a 	cmp.w	r2, #1000	@ 0x3e8
 8004e66:	d32a      	bcc.n	8004ebe <ModbusRTU_transmitSerial+0x96>
			RxRetryCount++;
 8004e68:	491d      	ldr	r1, [pc, #116]	@ (8004ee0 <ModbusRTU_transmitSerial+0xb8>)
 8004e6a:	780a      	ldrb	r2, [r1, #0]
 8004e6c:	3201      	adds	r2, #1
 8004e6e:	b2d2      	uxtb	r2, r2
 8004e70:	700a      	strb	r2, [r1, #0]
				TransmitFunction((uint8_t*)Modbus_Queue.TxData[instruction], Modbus_Queue.Length[instruction]);
 8004e72:	18e2      	adds	r2, r4, r3
 8004e74:	eb04 1383 	add.w	r3, r4, r3, lsl #6
 8004e78:	7911      	ldrb	r1, [r2, #4]
 8004e7a:	f103 00a4 	add.w	r0, r3, #164	@ 0xa4
 8004e7e:	47c0      	blx	r8
				Modbus_Queue.ActiveMask &= ~(1 << instruction); // reset activation for instruction
 8004e80:	2101      	movs	r1, #1
 8004e82:	782b      	ldrb	r3, [r5, #0]
 8004e84:	6822      	ldr	r2, [r4, #0]
 8004e86:	fa01 f003 	lsl.w	r0, r1, r3
 8004e8a:	ea22 0200 	bic.w	r2, r2, r0
 8004e8e:	6022      	str	r2, [r4, #0]
	txID = Modbus_Queue.ID[*index];
 8004e90:	f103 0208 	add.w	r2, r3, #8
 8004e94:	eb04 0282 	add.w	r2, r4, r2, lsl #2
 8004e98:	6850      	ldr	r0, [r2, #4]
 8004e9a:	4a12      	ldr	r2, [pc, #72]	@ (8004ee4 <ModbusRTU_transmitSerial+0xbc>)
				instruction++; // update instruction starting point
 8004e9c:	440b      	add	r3, r1
	txID = Modbus_Queue.ID[*index];
 8004e9e:	6010      	str	r0, [r2, #0]
	RxTimeoutInterval = 0;
 8004ea0:	2200      	movs	r2, #0
				instruction++; // update instruction starting point
 8004ea2:	b2db      	uxtb	r3, r3
	txFlag = true;
 8004ea4:	4810      	ldr	r0, [pc, #64]	@ (8004ee8 <ModbusRTU_transmitSerial+0xc0>)
				if((instruction == MODBUS_QUEUE_SIZE) || (Modbus_Queue.ActiveMask == 0))
 8004ea6:	2b20      	cmp	r3, #32
	RxTimeoutInterval = 0;
 8004ea8:	803a      	strh	r2, [r7, #0]
				instruction++; // update instruction starting point
 8004eaa:	702b      	strb	r3, [r5, #0]
	txFlag = true;
 8004eac:	7001      	strb	r1, [r0, #0]
	rxFlag = false;
 8004eae:	7032      	strb	r2, [r6, #0]
				if((instruction == MODBUS_QUEUE_SIZE) || (Modbus_Queue.ActiveMask == 0))
 8004eb0:	d001      	beq.n	8004eb6 <ModbusRTU_transmitSerial+0x8e>
 8004eb2:	6823      	ldr	r3, [r4, #0]
 8004eb4:	b90b      	cbnz	r3, 8004eba <ModbusRTU_transmitSerial+0x92>
					instruction = 0;
 8004eb6:	2300      	movs	r3, #0
 8004eb8:	702b      	strb	r3, [r5, #0]
}
 8004eba:	e8bd 81f0 	ldmia.w	sp!, {r4, r5, r6, r7, r8, pc}
		else if(rxFlag)
 8004ebe:	7832      	ldrb	r2, [r6, #0]
 8004ec0:	2a00      	cmp	r2, #0
 8004ec2:	d0d6      	beq.n	8004e72 <ModbusRTU_transmitSerial+0x4a>
			RxRetryCount = 0;
 8004ec4:	2100      	movs	r1, #0
 8004ec6:	4a06      	ldr	r2, [pc, #24]	@ (8004ee0 <ModbusRTU_transmitSerial+0xb8>)
 8004ec8:	7011      	strb	r1, [r2, #0]
 8004eca:	e7d2      	b.n	8004e72 <ModbusRTU_transmitSerial+0x4a>
 8004ecc:	20000138 	.word	0x20000138
 8004ed0:	200000c2 	.word	0x200000c2
 8004ed4:	20000140 	.word	0x20000140
 8004ed8:	2000013a 	.word	0x2000013a
 8004edc:	20000134 	.word	0x20000134
 8004ee0:	200000c5 	.word	0x200000c5
 8004ee4:	2000013c 	.word	0x2000013c
 8004ee8:	2000013b 	.word	0x2000013b

08004eec <ModbusRTU_receiveSerial>:
{
 8004eec:	e92d 41f0 	stmdb	sp!, {r4, r5, r6, r7, r8, lr}
	obj.ID.all = txID;
 8004ef0:	4b46      	ldr	r3, [pc, #280]	@ (800500c <ModbusRTU_receiveSerial+0x120>)
    if(RxBusTimeout >= MODBUS_RX_DEAD_TIME_INTERVAL) // dead time monitor
 8004ef2:	f8df 811c 	ldr.w	r8, [pc, #284]	@ 8005010 <ModbusRTU_receiveSerial+0x124>
	obj.ID.all = txID;
 8004ef6:	681f      	ldr	r7, [r3, #0]
    if(RxBusTimeout >= MODBUS_RX_DEAD_TIME_INTERVAL) // dead time monitor
 8004ef8:	f8d8 3000 	ldr.w	r3, [r8]
{
 8004efc:	4606      	mov	r6, r0
    if(RxBusTimeout >= MODBUS_RX_DEAD_TIME_INTERVAL) // dead time monitor
 8004efe:	2b04      	cmp	r3, #4
 8004f00:	4d44      	ldr	r5, [pc, #272]	@ (8005014 <ModbusRTU_receiveSerial+0x128>)
 8004f02:	4c45      	ldr	r4, [pc, #276]	@ (8005018 <ModbusRTU_receiveSerial+0x12c>)
 8004f04:	d90f      	bls.n	8004f26 <ModbusRTU_receiveSerial+0x3a>
        if(Modbus_RxSerialState != M_RxIdle)
 8004f06:	782b      	ldrb	r3, [r5, #0]
 8004f08:	2b01      	cmp	r3, #1
 8004f0a:	d00c      	beq.n	8004f26 <ModbusRTU_receiveSerial+0x3a>
			memset((uint8_t*) RxBuffer, 0,
 8004f0c:	2264      	movs	r2, #100	@ 0x64
 8004f0e:	2100      	movs	r1, #0
 8004f10:	4842      	ldr	r0, [pc, #264]	@ (800501c <ModbusRTU_receiveSerial+0x130>)
 8004f12:	f006 f995 	bl	800b240 <memset>
			RxBufferPos = 0;
 8004f16:	2300      	movs	r3, #0
 8004f18:	4a41      	ldr	r2, [pc, #260]	@ (8005020 <ModbusRTU_receiveSerial+0x134>)
			RxCount = 0;
 8004f1a:	7023      	strb	r3, [r4, #0]
			RxBufferPos = 0;
 8004f1c:	7013      	strb	r3, [r2, #0]
			length = 0;
 8004f1e:	4a41      	ldr	r2, [pc, #260]	@ (8005024 <ModbusRTU_receiveSerial+0x138>)
 8004f20:	7013      	strb	r3, [r2, #0]
			Modbus_RxSerialState = M_RxSoF;
 8004f22:	2202      	movs	r2, #2
 8004f24:	702a      	strb	r2, [r5, #0]
    RxBusTimeout = 0;
 8004f26:	2200      	movs	r2, #0
 8004f28:	f8c8 2000 	str.w	r2, [r8]
	switch(Modbus_RxSerialState)
 8004f2c:	782b      	ldrb	r3, [r5, #0]
 8004f2e:	3b01      	subs	r3, #1
 8004f30:	2b03      	cmp	r3, #3
 8004f32:	d804      	bhi.n	8004f3e <ModbusRTU_receiveSerial+0x52>
 8004f34:	e8df f003 	tbb	[pc, r3]
 8004f38:	513f1702 	.word	0x513f1702
			RxCount = 0;
 8004f3c:	7022      	strb	r2, [r4, #0]
{
 8004f3e:	2300      	movs	r3, #0
	RxCount++;
 8004f40:	7822      	ldrb	r2, [r4, #0]
 8004f42:	3201      	adds	r2, #1
 8004f44:	7022      	strb	r2, [r4, #0]
	if(RxBufferFlush)
 8004f46:	b163      	cbz	r3, 8004f62 <ModbusRTU_receiveSerial+0x76>
		memset((uint8_t*)RxBuffer,0,(sizeof(RxBuffer)/sizeof(RxBuffer[0])));
 8004f48:	2264      	movs	r2, #100	@ 0x64
 8004f4a:	2100      	movs	r1, #0
 8004f4c:	4833      	ldr	r0, [pc, #204]	@ (800501c <ModbusRTU_receiveSerial+0x130>)
 8004f4e:	f006 f977 	bl	800b240 <memset>
		RxBufferPos = 0;
 8004f52:	2300      	movs	r3, #0
 8004f54:	4a32      	ldr	r2, [pc, #200]	@ (8005020 <ModbusRTU_receiveSerial+0x134>)
		RxCount = 0;
 8004f56:	7023      	strb	r3, [r4, #0]
		RxBufferPos = 0;
 8004f58:	7013      	strb	r3, [r2, #0]
		Modbus_RxSerialState = M_RxSoF;
 8004f5a:	2202      	movs	r2, #2
 8004f5c:	702a      	strb	r2, [r5, #0]
		length = 0;
 8004f5e:	4a31      	ldr	r2, [pc, #196]	@ (8005024 <ModbusRTU_receiveSerial+0x138>)
 8004f60:	7013      	strb	r3, [r2, #0]
}
 8004f62:	e8bd 81f0 	ldmia.w	sp!, {r4, r5, r6, r7, r8, pc}
			if((*data == obj.ID.bits.slaveAddress) && (RxCount == 0))
 8004f66:	7833      	ldrb	r3, [r6, #0]
 8004f68:	b2f9      	uxtb	r1, r7
 8004f6a:	428b      	cmp	r3, r1
 8004f6c:	7822      	ldrb	r2, [r4, #0]
 8004f6e:	d109      	bne.n	8004f84 <ModbusRTU_receiveSerial+0x98>
 8004f70:	b942      	cbnz	r2, 8004f84 <ModbusRTU_receiveSerial+0x98>
				RxBuffer[RxBufferPos++] = *data;
 8004f72:	492b      	ldr	r1, [pc, #172]	@ (8005020 <ModbusRTU_receiveSerial+0x134>)
 8004f74:	780a      	ldrb	r2, [r1, #0]
 8004f76:	b2d0      	uxtb	r0, r2
 8004f78:	3201      	adds	r2, #1
 8004f7a:	b2d2      	uxtb	r2, r2
 8004f7c:	700a      	strb	r2, [r1, #0]
 8004f7e:	4a27      	ldr	r2, [pc, #156]	@ (800501c <ModbusRTU_receiveSerial+0x130>)
 8004f80:	5413      	strb	r3, [r2, r0]
 8004f82:	e7dc      	b.n	8004f3e <ModbusRTU_receiveSerial+0x52>
			else if((*data == obj.ID.bits.functionCode) && (RxCount == 1))
 8004f84:	f3c7 2707 	ubfx	r7, r7, #8, #8
 8004f88:	429f      	cmp	r7, r3
 8004f8a:	d101      	bne.n	8004f90 <ModbusRTU_receiveSerial+0xa4>
 8004f8c:	2a01      	cmp	r2, #1
 8004f8e:	d0f0      	beq.n	8004f72 <ModbusRTU_receiveSerial+0x86>
			else if((*data < 100) && (RxCount == 2)) // 100 = (sizeof(RxBuffer)/sizeof(uint8_t))
 8004f90:	2b63      	cmp	r3, #99	@ 0x63
 8004f92:	d838      	bhi.n	8005006 <ModbusRTU_receiveSerial+0x11a>
 8004f94:	2a02      	cmp	r2, #2
 8004f96:	d136      	bne.n	8005006 <ModbusRTU_receiveSerial+0x11a>
				RxBuffer[RxBufferPos++] = *data;
 8004f98:	4921      	ldr	r1, [pc, #132]	@ (8005020 <ModbusRTU_receiveSerial+0x134>)
 8004f9a:	780a      	ldrb	r2, [r1, #0]
 8004f9c:	b2d0      	uxtb	r0, r2
 8004f9e:	3201      	adds	r2, #1
 8004fa0:	b2d2      	uxtb	r2, r2
 8004fa2:	700a      	strb	r2, [r1, #0]
 8004fa4:	4a1d      	ldr	r2, [pc, #116]	@ (800501c <ModbusRTU_receiveSerial+0x130>)
 8004fa6:	5413      	strb	r3, [r2, r0]
				length = (2 + RxBuffer[2]); // slave address + function code + number of registers + data
 8004fa8:	7893      	ldrb	r3, [r2, #2]
 8004faa:	4a1e      	ldr	r2, [pc, #120]	@ (8005024 <ModbusRTU_receiveSerial+0x138>)
 8004fac:	3302      	adds	r3, #2
 8004fae:	7013      	strb	r3, [r2, #0]
				Modbus_RxSerialState = M_RxData;
 8004fb0:	2303      	movs	r3, #3
				Modbus_RxSerialState = M_RxIdle;
 8004fb2:	702b      	strb	r3, [r5, #0]
 8004fb4:	e7c3      	b.n	8004f3e <ModbusRTU_receiveSerial+0x52>
			RxBuffer[RxBufferPos++] = *data;
 8004fb6:	4a1a      	ldr	r2, [pc, #104]	@ (8005020 <ModbusRTU_receiveSerial+0x134>)
 8004fb8:	7813      	ldrb	r3, [r2, #0]
 8004fba:	b2d9      	uxtb	r1, r3
 8004fbc:	3301      	adds	r3, #1
 8004fbe:	b2db      	uxtb	r3, r3
 8004fc0:	7013      	strb	r3, [r2, #0]
 8004fc2:	7832      	ldrb	r2, [r6, #0]
 8004fc4:	4b15      	ldr	r3, [pc, #84]	@ (800501c <ModbusRTU_receiveSerial+0x130>)
 8004fc6:	545a      	strb	r2, [r3, r1]
			if(RxCount >= length)
 8004fc8:	4a16      	ldr	r2, [pc, #88]	@ (8005024 <ModbusRTU_receiveSerial+0x138>)
 8004fca:	7821      	ldrb	r1, [r4, #0]
 8004fcc:	7813      	ldrb	r3, [r2, #0]
 8004fce:	4299      	cmp	r1, r3
 8004fd0:	d3b5      	bcc.n	8004f3e <ModbusRTU_receiveSerial+0x52>
				length += 2; // add CRC bytes
 8004fd2:	3302      	adds	r3, #2
 8004fd4:	7013      	strb	r3, [r2, #0]
				Modbus_RxSerialState = M_RxEoF;
 8004fd6:	2304      	movs	r3, #4
 8004fd8:	e7eb      	b.n	8004fb2 <ModbusRTU_receiveSerial+0xc6>
			RxBuffer[RxBufferPos++] = *data;
 8004fda:	4a11      	ldr	r2, [pc, #68]	@ (8005020 <ModbusRTU_receiveSerial+0x134>)
 8004fdc:	7813      	ldrb	r3, [r2, #0]
 8004fde:	b2d9      	uxtb	r1, r3
 8004fe0:	3301      	adds	r3, #1
 8004fe2:	b2db      	uxtb	r3, r3
 8004fe4:	7013      	strb	r3, [r2, #0]
 8004fe6:	7832      	ldrb	r2, [r6, #0]
 8004fe8:	4b0c      	ldr	r3, [pc, #48]	@ (800501c <ModbusRTU_receiveSerial+0x130>)
 8004fea:	545a      	strb	r2, [r3, r1]
			if(RxCount == length)
 8004fec:	4b0d      	ldr	r3, [pc, #52]	@ (8005024 <ModbusRTU_receiveSerial+0x138>)
 8004fee:	7822      	ldrb	r2, [r4, #0]
 8004ff0:	781b      	ldrb	r3, [r3, #0]
 8004ff2:	429a      	cmp	r2, r3
 8004ff4:	d103      	bne.n	8004ffe <ModbusRTU_receiveSerial+0x112>
				RxPcktCpltFlag = true;
 8004ff6:	2301      	movs	r3, #1
 8004ff8:	4a0b      	ldr	r2, [pc, #44]	@ (8005028 <ModbusRTU_receiveSerial+0x13c>)
 8004ffa:	7013      	strb	r3, [r2, #0]
 8004ffc:	e7d9      	b.n	8004fb2 <ModbusRTU_receiveSerial+0xc6>
			else if(RxCount > length)
 8004ffe:	bf8c      	ite	hi
 8005000:	2301      	movhi	r3, #1
 8005002:	2300      	movls	r3, #0
 8005004:	e79c      	b.n	8004f40 <ModbusRTU_receiveSerial+0x54>
				RxBufferFlush = true;
 8005006:	2301      	movs	r3, #1
 8005008:	e79a      	b.n	8004f40 <ModbusRTU_receiveSerial+0x54>
 800500a:	bf00      	nop
 800500c:	2000013c 	.word	0x2000013c
 8005010:	2000012c 	.word	0x2000012c
 8005014:	20000000 	.word	0x20000000
 8005018:	200000c0 	.word	0x200000c0
 800501c:	200000c8 	.word	0x200000c8
 8005020:	200000c7 	.word	0x200000c7
 8005024:	200000c1 	.word	0x200000c1
 8005028:	200000c6 	.word	0x200000c6

0800502c <ModbusRTU_Init>:
}


void ModbusRTU_Init(void)
{
	ADL.slaveAddress = ADL_SLAVE_ADDRESS;
 800502c:	2201      	movs	r2, #1
 800502e:	4b01      	ldr	r3, [pc, #4]	@ (8005034 <ModbusRTU_Init+0x8>)
 8005030:	701a      	strb	r2, [r3, #0]
//	IMD1.slaveAddress = IMD1_SLAVE_ADDRESS;
//	IMD1.insulationMonitoringControl = IMD_ENABLE_DC1;
//	IMD2.slaveAddress = IMD2_SLAVE_ADDRESS;
//	IMD2.insulationMonitoringControl = IMD_ENABLE_DC2;
}
 8005032:	4770      	bx	lr
 8005034:	20000090 	.word	0x20000090

08005038 <ModbusRTU_functions>:
	uint16_t result16 = 0;
 8005038:	2300      	movs	r3, #0

void ModbusRTU_functions(void)
{
 800503a:	b5f0      	push	{r4, r5, r6, r7, lr}
	if(RxPcktCpltFlag)
 800503c:	4a54      	ldr	r2, [pc, #336]	@ (8005190 <ModbusRTU_functions+0x158>)
{
 800503e:	b085      	sub	sp, #20
	if(RxPcktCpltFlag)
 8005040:	7811      	ldrb	r1, [r2, #0]
	ModbusID_t objID = {0};
 8005042:	e9cd 3302 	strd	r3, r3, [sp, #8]
	uint16_t result16 = 0;
 8005046:	f8ad 3006 	strh.w	r3, [sp, #6]
	if(RxPcktCpltFlag)
 800504a:	2900      	cmp	r1, #0
 800504c:	d02f      	beq.n	80050ae <ModbusRTU_functions+0x76>
		if(ModbusRTU_checksum((uint8_t*)RxBuffer, RxBufferPos))
 800504e:	4d51      	ldr	r5, [pc, #324]	@ (8005194 <ModbusRTU_functions+0x15c>)
 8005050:	4c51      	ldr	r4, [pc, #324]	@ (8005198 <ModbusRTU_functions+0x160>)
		RxPcktCpltFlag = false;
 8005052:	7013      	strb	r3, [r2, #0]
		if(ModbusRTU_checksum((uint8_t*)RxBuffer, RxBufferPos))
 8005054:	4620      	mov	r0, r4
 8005056:	7829      	ldrb	r1, [r5, #0]
 8005058:	f7ff fe10 	bl	8004c7c <ModbusRTU_checksum>
 800505c:	4e4f      	ldr	r6, [pc, #316]	@ (800519c <ModbusRTU_functions+0x164>)
 800505e:	4607      	mov	r7, r0
 8005060:	2800      	cmp	r0, #0
 8005062:	f000 8089 	beq.w	8005178 <ModbusRTU_functions+0x140>
			if(RxBuffer[2] == 2)
 8005066:	78a3      	ldrb	r3, [r4, #2]
 8005068:	2b02      	cmp	r3, #2
 800506a:	d176      	bne.n	800515a <ModbusRTU_functions+0x122>
				result16 = ((uint16_t)(RxBuffer[3] << 8) | ((uint16_t)RxBuffer[4]));
 800506c:	78e2      	ldrb	r2, [r4, #3]
 800506e:	7923      	ldrb	r3, [r4, #4]
 8005070:	ea43 2302 	orr.w	r3, r3, r2, lsl #8
 8005074:	f8ad 3006 	strh.w	r3, [sp, #6]
			objID.ID.all = txID;
 8005078:	4b49      	ldr	r3, [pc, #292]	@ (80051a0 <ModbusRTU_functions+0x168>)
 800507a:	681b      	ldr	r3, [r3, #0]
			if((objID.ID.bits.slaveAddress == RxBuffer[0]))
 800507c:	7822      	ldrb	r2, [r4, #0]
			objID.ID.all = txID;
 800507e:	9303      	str	r3, [sp, #12]
			if((objID.ID.bits.slaveAddress == RxBuffer[0]))
 8005080:	b2db      	uxtb	r3, r3
 8005082:	4293      	cmp	r3, r2
 8005084:	d107      	bne.n	8005096 <ModbusRTU_functions+0x5e>
				adl_getData(&objID.ID.bits.slaveAddress, &objID.ID.bits.startAddress, &result16, &result32);
 8005086:	ab02      	add	r3, sp, #8
 8005088:	f10d 0206 	add.w	r2, sp, #6
 800508c:	f10d 010e 	add.w	r1, sp, #14
 8005090:	a803      	add	r0, sp, #12
 8005092:	f7ff fc05 	bl	80048a0 <adl_getData>
			memset((uint8_t*)RxBuffer,0,(sizeof(RxBuffer)/sizeof(RxBuffer[0])));
 8005096:	2264      	movs	r2, #100	@ 0x64
 8005098:	2100      	movs	r1, #0
 800509a:	483f      	ldr	r0, [pc, #252]	@ (8005198 <ModbusRTU_functions+0x160>)
 800509c:	f006 f8d0 	bl	800b240 <memset>
			RxBufferPos = 0;
 80050a0:	2300      	movs	r3, #0
 80050a2:	702b      	strb	r3, [r5, #0]
			Modbus_RxSerialState = M_RxSoF;
 80050a4:	2302      	movs	r3, #2
			rxFlag = true;
 80050a6:	2201      	movs	r2, #1
			Modbus_RxSerialState = M_RxSoF;
 80050a8:	7033      	strb	r3, [r6, #0]
			rxFlag = true;
 80050aa:	4b3e      	ldr	r3, [pc, #248]	@ (80051a4 <ModbusRTU_functions+0x16c>)
 80050ac:	701a      	strb	r2, [r3, #0]
	if(RxRetryCount >= 5)
 80050ae:	4b3e      	ldr	r3, [pc, #248]	@ (80051a8 <ModbusRTU_functions+0x170>)
 80050b0:	4a3e      	ldr	r2, [pc, #248]	@ (80051ac <ModbusRTU_functions+0x174>)
 80050b2:	781b      	ldrb	r3, [r3, #0]
 80050b4:	2b04      	cmp	r3, #4
		ModbusRxError = true;
 80050b6:	bf8c      	ite	hi
 80050b8:	2101      	movhi	r1, #1
		ModbusRxError = false;
 80050ba:	2100      	movls	r1, #0
 80050bc:	4b3c      	ldr	r3, [pc, #240]	@ (80051b0 <ModbusRTU_functions+0x178>)
		ModbusRxError = true;
 80050be:	bf8b      	itete	hi
 80050c0:	7011      	strbhi	r1, [r2, #0]
		ModbusRxError = false;
 80050c2:	7011      	strbls	r1, [r2, #0]
		controlSide_data.errorStatus.bit.serialAError = 1;
 80050c4:	785a      	ldrbhi	r2, [r3, #1]
		controlSide_data.errorStatus.bit.serialAError = 0;
 80050c6:	785a      	ldrbls	r2, [r3, #1]
		controlSide_data.errorStatus.bit.serialAError = 1;
 80050c8:	bf8c      	ite	hi
 80050ca:	430a      	orrhi	r2, r1
		controlSide_data.errorStatus.bit.serialAError = 0;
 80050cc:	f361 0200 	bfils	r2, r1, #0, #1
 80050d0:	705a      	strb	r2, [r3, #1]
#endif

#if !MODBUS_SNIFFER

#if ADL_ENABLE
	if(!Modbus_Queue.ActiveMask && TxCycleInterval >= MODBUS_TRANSMIT_CYCLE)
 80050d2:	4b38      	ldr	r3, [pc, #224]	@ (80051b4 <ModbusRTU_functions+0x17c>)
 80050d4:	6819      	ldr	r1, [r3, #0]
 80050d6:	2900      	cmp	r1, #0
 80050d8:	d157      	bne.n	800518a <ModbusRTU_functions+0x152>
 80050da:	4a37      	ldr	r2, [pc, #220]	@ (80051b8 <ModbusRTU_functions+0x180>)
 80050dc:	8813      	ldrh	r3, [r2, #0]
 80050de:	b29b      	uxth	r3, r3
 80050e0:	2b63      	cmp	r3, #99	@ 0x63
 80050e2:	d952      	bls.n	800518a <ModbusRTU_functions+0x152>
	{
		TxCycleInterval = 0;

		if (identifyMeter == false)
 80050e4:	4b35      	ldr	r3, [pc, #212]	@ (80051bc <ModbusRTU_functions+0x184>)
		TxCycleInterval = 0;
 80050e6:	8011      	strh	r1, [r2, #0]
		if (identifyMeter == false)
 80050e8:	781b      	ldrb	r3, [r3, #0]
 80050ea:	b913      	cbnz	r3, 80050f2 <ModbusRTU_functions+0xba>
		{
			adl_IdentifyEnergyMeter((ADL_t*) &ADL);
 80050ec:	4834      	ldr	r0, [pc, #208]	@ (80051c0 <ModbusRTU_functions+0x188>)
 80050ee:	f7ff fd6f 	bl	8004bd0 <adl_IdentifyEnergyMeter>
		}

		if (singlePhaseMeter)
 80050f2:	4b34      	ldr	r3, [pc, #208]	@ (80051c4 <ModbusRTU_functions+0x18c>)
 80050f4:	781b      	ldrb	r3, [r3, #0]
 80050f6:	b173      	cbz	r3, 8005116 <ModbusRTU_functions+0xde>
		{
			adl_VoltagePhaseA((ADL_t*) &ADL);
 80050f8:	4831      	ldr	r0, [pc, #196]	@ (80051c0 <ModbusRTU_functions+0x188>)
 80050fa:	f7ff fc5b 	bl	80049b4 <adl_VoltagePhaseA>
			adl_CurrentPhaseA((ADL_t*) &ADL);
 80050fe:	4830      	ldr	r0, [pc, #192]	@ (80051c0 <ModbusRTU_functions+0x188>)
 8005100:	f7ff fcb4 	bl	8004a6c <adl_CurrentPhaseA>
			adl_Frequency((ADL_t*) &ADL);
 8005104:	482e      	ldr	r0, [pc, #184]	@ (80051c0 <ModbusRTU_functions+0x188>)
 8005106:	f7ff fd0d 	bl	8004b24 <adl_Frequency>
			adl_TotalActiveEnergy((ADL_t*) &ADL);
 800510a:	482d      	ldr	r0, [pc, #180]	@ (80051c0 <ModbusRTU_functions+0x188>)
 800510c:	f7ff fc3a 	bl	8004984 <adl_TotalActiveEnergy>
			adl_TotalActivePower((ADL_t*) &ADL);
 8005110:	482b      	ldr	r0, [pc, #172]	@ (80051c0 <ModbusRTU_functions+0x188>)
 8005112:	f7ff fd2f 	bl	8004b74 <adl_TotalActivePower>
		}

		if (threePhaseMeter)
 8005116:	4b2c      	ldr	r3, [pc, #176]	@ (80051c8 <ModbusRTU_functions+0x190>)
 8005118:	781b      	ldrb	r3, [r3, #0]
 800511a:	2b00      	cmp	r3, #0
 800511c:	d035      	beq.n	800518a <ModbusRTU_functions+0x152>
		{
			adl_VoltagePhaseA((ADL_t*) &ADL);
 800511e:	4828      	ldr	r0, [pc, #160]	@ (80051c0 <ModbusRTU_functions+0x188>)
 8005120:	f7ff fc48 	bl	80049b4 <adl_VoltagePhaseA>
			adl_VoltagePhaseB((ADL_t*) &ADL);
 8005124:	4826      	ldr	r0, [pc, #152]	@ (80051c0 <ModbusRTU_functions+0x188>)
 8005126:	f7ff fc6d 	bl	8004a04 <adl_VoltagePhaseB>
			adl_VoltagePhaseC((ADL_t*) &ADL);
 800512a:	4825      	ldr	r0, [pc, #148]	@ (80051c0 <ModbusRTU_functions+0x188>)
 800512c:	f7ff fc84 	bl	8004a38 <adl_VoltagePhaseC>
			adl_CurrentPhaseA((ADL_t*) &ADL);
 8005130:	4823      	ldr	r0, [pc, #140]	@ (80051c0 <ModbusRTU_functions+0x188>)
 8005132:	f7ff fc9b 	bl	8004a6c <adl_CurrentPhaseA>
			adl_CurrentPhaseB((ADL_t*) &ADL);
 8005136:	4822      	ldr	r0, [pc, #136]	@ (80051c0 <ModbusRTU_functions+0x188>)
 8005138:	f7ff fcc0 	bl	8004abc <adl_CurrentPhaseB>
			adl_CurrentPhaseC((ADL_t*) &ADL);
 800513c:	4820      	ldr	r0, [pc, #128]	@ (80051c0 <ModbusRTU_functions+0x188>)
 800513e:	f7ff fcd7 	bl	8004af0 <adl_CurrentPhaseC>
			adl_Frequency((ADL_t*) &ADL);
 8005142:	481f      	ldr	r0, [pc, #124]	@ (80051c0 <ModbusRTU_functions+0x188>)
 8005144:	f7ff fcee 	bl	8004b24 <adl_Frequency>
			adl_TotalActiveEnergy((ADL_t*) &ADL);
 8005148:	481d      	ldr	r0, [pc, #116]	@ (80051c0 <ModbusRTU_functions+0x188>)
 800514a:	f7ff fc1b 	bl	8004984 <adl_TotalActiveEnergy>
			adl_TotalActivePower((ADL_t*) &ADL);
 800514e:	481c      	ldr	r0, [pc, #112]	@ (80051c0 <ModbusRTU_functions+0x188>)
	imd_negativeResistance((IMD_t*)&IMD2);

#endif

#endif
}
 8005150:	b005      	add	sp, #20
 8005152:	e8bd 40f0 	ldmia.w	sp!, {r4, r5, r6, r7, lr}
			adl_TotalActivePower((ADL_t*) &ADL);
 8005156:	f7ff bd0d 	b.w	8004b74 <adl_TotalActivePower>
			else if(RxBuffer[2] == 4)
 800515a:	78a3      	ldrb	r3, [r4, #2]
 800515c:	2b04      	cmp	r3, #4
 800515e:	d18b      	bne.n	8005078 <ModbusRTU_functions+0x40>
				result32 = ((uint32_t)(RxBuffer[3] << 24) | ((uint32_t)RxBuffer[4] << 16) | ((uint32_t)RxBuffer[5] << 8) | ((uint32_t)RxBuffer[6]));
 8005160:	78e0      	ldrb	r0, [r4, #3]
 8005162:	7923      	ldrb	r3, [r4, #4]
 8005164:	7962      	ldrb	r2, [r4, #5]
 8005166:	041b      	lsls	r3, r3, #16
 8005168:	79a1      	ldrb	r1, [r4, #6]
 800516a:	ea43 6300 	orr.w	r3, r3, r0, lsl #24
 800516e:	430b      	orrs	r3, r1
 8005170:	ea43 2302 	orr.w	r3, r3, r2, lsl #8
 8005174:	9302      	str	r3, [sp, #8]
 8005176:	e77f      	b.n	8005078 <ModbusRTU_functions+0x40>
			memset((uint8_t*)RxBuffer,0,(sizeof(RxBuffer)/sizeof(RxBuffer[0])));
 8005178:	4601      	mov	r1, r0
 800517a:	2264      	movs	r2, #100	@ 0x64
 800517c:	4620      	mov	r0, r4
 800517e:	f006 f85f 	bl	800b240 <memset>
			Modbus_RxSerialState = M_RxSoF;
 8005182:	2302      	movs	r3, #2
			RxBufferPos = 0;
 8005184:	702f      	strb	r7, [r5, #0]
			Modbus_RxSerialState = M_RxSoF;
 8005186:	7033      	strb	r3, [r6, #0]
 8005188:	e791      	b.n	80050ae <ModbusRTU_functions+0x76>
}
 800518a:	b005      	add	sp, #20
 800518c:	bdf0      	pop	{r4, r5, r6, r7, pc}
 800518e:	bf00      	nop
 8005190:	200000c6 	.word	0x200000c6
 8005194:	200000c7 	.word	0x200000c7
 8005198:	200000c8 	.word	0x200000c8
 800519c:	20000000 	.word	0x20000000
 80051a0:	2000013c 	.word	0x2000013c
 80051a4:	2000013a 	.word	0x2000013a
 80051a8:	200000c5 	.word	0x200000c5
 80051ac:	200000c4 	.word	0x200000c4
 80051b0:	20001458 	.word	0x20001458
 80051b4:	20000140 	.word	0x20000140
 80051b8:	20000136 	.word	0x20000136
 80051bc:	2000008e 	.word	0x2000008e
 80051c0:	20000090 	.word	0x20000090
 80051c4:	2000008d 	.word	0x2000008d
 80051c8:	2000008c 	.word	0x2000008c

080051cc <CSMS_modbusCRC>:
/*----------------------------------------------------------------------------
 * Functions
 *----------------------------------------------------------------------------*/

static uint16_t CSMS_modbusCRC(const char* restrict data, uint8_t length)
{
 80051cc:	4602      	mov	r2, r0
    uint16_t crc = 0xFFFF;

    while (length--)
 80051ce:	4401      	add	r1, r0
    uint16_t crc = 0xFFFF;
 80051d0:	f64f 70ff 	movw	r0, #65535	@ 0xffff
{
 80051d4:	b530      	push	{r4, r5, lr}
    {
        crc ^= *data++;

        for (int i = 0; i < 8; ++i)
        {
            if (crc & 0x0001)
 80051d6:	4d08      	ldr	r5, [pc, #32]	@ (80051f8 <CSMS_modbusCRC+0x2c>)
    while (length--)
 80051d8:	428a      	cmp	r2, r1
 80051da:	d100      	bne.n	80051de <CSMS_modbusCRC+0x12>
            else
                crc >>= 1;
        }
    }
    return crc;
}
 80051dc:	bd30      	pop	{r4, r5, pc}
        crc ^= *data++;
 80051de:	2408      	movs	r4, #8
 80051e0:	f812 3b01 	ldrb.w	r3, [r2], #1
 80051e4:	4058      	eors	r0, r3
            if (crc & 0x0001)
 80051e6:	f340 0300 	sbfx	r3, r0, #0, #1
 80051ea:	402b      	ands	r3, r5
 80051ec:	ea83 0350 	eor.w	r3, r3, r0, lsr #1
        for (int i = 0; i < 8; ++i)
 80051f0:	3c01      	subs	r4, #1
            if (crc & 0x0001)
 80051f2:	b298      	uxth	r0, r3
        for (int i = 0; i < 8; ++i)
 80051f4:	d1f7      	bne.n	80051e6 <CSMS_modbusCRC+0x1a>
 80051f6:	e7ef      	b.n	80051d8 <CSMS_modbusCRC+0xc>
 80051f8:	ffffa001 	.word	0xffffa001

080051fc <CSMS_Intick>:
            RxBusTimeout++;
 80051fc:	4a04      	ldr	r2, [pc, #16]	@ (8005210 <CSMS_Intick+0x14>)
 80051fe:	6813      	ldr	r3, [r2, #0]
 8005200:	3301      	adds	r3, #1
 8005202:	6013      	str	r3, [r2, #0]
            RxSerialFaultTimeout++;
 8005204:	4a03      	ldr	r2, [pc, #12]	@ (8005214 <CSMS_Intick+0x18>)
 8005206:	6813      	ldr	r3, [r2, #0]
 8005208:	3301      	adds	r3, #1
 800520a:	6013      	str	r3, [r2, #0]
}
 800520c:	4770      	bx	lr
 800520e:	bf00      	nop
 8005210:	200009ec 	.word	0x200009ec
 8005214:	200009e8 	.word	0x200009e8

08005218 <CSMS_transmitSerial>:
{
 8005218:	b570      	push	{r4, r5, r6, lr}
		if ((CSMS_Queue.ActiveMask & (1 << instruction)) != 0x0)        // check whether activation mask not zero
 800521a:	4c12      	ldr	r4, [pc, #72]	@ (8005264 <CSMS_transmitSerial+0x4c>)
 800521c:	4d12      	ldr	r5, [pc, #72]	@ (8005268 <CSMS_transmitSerial+0x50>)
 800521e:	8822      	ldrh	r2, [r4, #0]
 8005220:	782b      	ldrb	r3, [r5, #0]
 8005222:	b292      	uxth	r2, r2
 8005224:	411a      	asrs	r2, r3
 8005226:	07d2      	lsls	r2, r2, #31
{
 8005228:	4606      	mov	r6, r0
		if ((CSMS_Queue.ActiveMask & (1 << instruction)) != 0x0)        // check whether activation mask not zero
 800522a:	d519      	bpl.n	8005260 <CSMS_transmitSerial+0x48>
			TransmitFunction((uint8_t*)CSMS_Queue.TxData[instruction], CSMS_Queue.Length[instruction]);
 800522c:	18e2      	adds	r2, r4, r3
 800522e:	7891      	ldrb	r1, [r2, #2]
 8005230:	2264      	movs	r2, #100	@ 0x64
 8005232:	fb02 4303 	mla	r3, r2, r3, r4
 8005236:	f103 0022 	add.w	r0, r3, #34	@ 0x22
 800523a:	47b0      	blx	r6
			CSMS_Queue.ActiveMask &= ~(1 << instruction);               // reset activation for instruction
 800523c:	2101      	movs	r1, #1
 800523e:	782b      	ldrb	r3, [r5, #0]
 8005240:	8822      	ldrh	r2, [r4, #0]
 8005242:	4099      	lsls	r1, r3
			instruction++;                                              // update instruction starting point
 8005244:	3301      	adds	r3, #1
 8005246:	b2db      	uxtb	r3, r3
			CSMS_Queue.ActiveMask &= ~(1 << instruction);               // reset activation for instruction
 8005248:	b292      	uxth	r2, r2
 800524a:	ea22 0201 	bic.w	r2, r2, r1
			if((instruction == CSMS_QUEUE_SIZE) || (CSMS_Queue.ActiveMask == 0))
 800524e:	2b10      	cmp	r3, #16
			CSMS_Queue.ActiveMask &= ~(1 << instruction);               // reset activation for instruction
 8005250:	8022      	strh	r2, [r4, #0]
			instruction++;                                              // update instruction starting point
 8005252:	702b      	strb	r3, [r5, #0]
			if((instruction == CSMS_QUEUE_SIZE) || (CSMS_Queue.ActiveMask == 0))
 8005254:	d002      	beq.n	800525c <CSMS_transmitSerial+0x44>
 8005256:	8823      	ldrh	r3, [r4, #0]
 8005258:	b29b      	uxth	r3, r3
 800525a:	b90b      	cbnz	r3, 8005260 <CSMS_transmitSerial+0x48>
				instruction = 0;
 800525c:	2300      	movs	r3, #0
 800525e:	702b      	strb	r3, [r5, #0]
}
 8005260:	bd70      	pop	{r4, r5, r6, pc}
 8005262:	bf00      	nop
 8005264:	20000a5e 	.word	0x20000a5e
 8005268:	200009e7 	.word	0x200009e7

0800526c <CSMS_receiveSerial>:
{
 800526c:	e92d 41f0 	stmdb	sp!, {r4, r5, r6, r7, r8, lr}
    if(RxBusTimeout >= CSMS_RX_DEAD_TIME_INTERVAL) // dead time monitor
 8005270:	f8df 80e4 	ldr.w	r8, [pc, #228]	@ 8005358 <CSMS_receiveSerial+0xec>
{
 8005274:	4606      	mov	r6, r0
    if(RxBusTimeout >= CSMS_RX_DEAD_TIME_INTERVAL) // dead time monitor
 8005276:	f8d8 3000 	ldr.w	r3, [r8]
 800527a:	4d38      	ldr	r5, [pc, #224]	@ (800535c <CSMS_receiveSerial+0xf0>)
 800527c:	2b31      	cmp	r3, #49	@ 0x31
 800527e:	4f38      	ldr	r7, [pc, #224]	@ (8005360 <CSMS_receiveSerial+0xf4>)
 8005280:	4c38      	ldr	r4, [pc, #224]	@ (8005364 <CSMS_receiveSerial+0xf8>)
 8005282:	d90e      	bls.n	80052a2 <CSMS_receiveSerial+0x36>
        if(RxSerialState != RxIdle)
 8005284:	782b      	ldrb	r3, [r5, #0]
 8005286:	2b01      	cmp	r3, #1
 8005288:	d00b      	beq.n	80052a2 <CSMS_receiveSerial+0x36>
            memset(RxBuffer,0,(sizeof(RxBuffer)/sizeof(RxBuffer[0])));
 800528a:	2264      	movs	r2, #100	@ 0x64
 800528c:	2100      	movs	r1, #0
 800528e:	4836      	ldr	r0, [pc, #216]	@ (8005368 <CSMS_receiveSerial+0xfc>)
 8005290:	f005 ffd6 	bl	800b240 <memset>
            RxBufferPos = 0;
 8005294:	2300      	movs	r3, #0
 8005296:	4a35      	ldr	r2, [pc, #212]	@ (800536c <CSMS_receiveSerial+0x100>)
            RxBufferFlush = false;
 8005298:	703b      	strb	r3, [r7, #0]
            RxBufferPos = 0;
 800529a:	7013      	strb	r3, [r2, #0]
            RxSerialState = RxSoF;
 800529c:	2202      	movs	r2, #2
            RxCount = 0;
 800529e:	7023      	strb	r3, [r4, #0]
            RxSerialState = RxSoF;
 80052a0:	702a      	strb	r2, [r5, #0]
    RxBusTimeout = 0;
 80052a2:	2200      	movs	r2, #0
 80052a4:	f8c8 2000 	str.w	r2, [r8]
	switch(RxSerialState)
 80052a8:	782b      	ldrb	r3, [r5, #0]
 80052aa:	3b01      	subs	r3, #1
 80052ac:	2b03      	cmp	r3, #3
 80052ae:	d804      	bhi.n	80052ba <CSMS_receiveSerial+0x4e>
 80052b0:	e8df f003 	tbb	[pc, r3]
 80052b4:	3b2f1602 	.word	0x3b2f1602
			RxCount = 0;
 80052b8:	7022      	strb	r2, [r4, #0]
	RxCount++;
 80052ba:	7823      	ldrb	r3, [r4, #0]
 80052bc:	3301      	adds	r3, #1
 80052be:	7023      	strb	r3, [r4, #0]
	if(RxBufferFlush)
 80052c0:	783b      	ldrb	r3, [r7, #0]
 80052c2:	b15b      	cbz	r3, 80052dc <CSMS_receiveSerial+0x70>
		memset(RxBuffer,0,(sizeof(RxBuffer)/sizeof(RxBuffer[0])));
 80052c4:	2264      	movs	r2, #100	@ 0x64
 80052c6:	2100      	movs	r1, #0
 80052c8:	4827      	ldr	r0, [pc, #156]	@ (8005368 <CSMS_receiveSerial+0xfc>)
 80052ca:	f005 ffb9 	bl	800b240 <memset>
		RxBufferPos = 0;
 80052ce:	2300      	movs	r3, #0
 80052d0:	4a26      	ldr	r2, [pc, #152]	@ (800536c <CSMS_receiveSerial+0x100>)
		RxBufferFlush = false;
 80052d2:	703b      	strb	r3, [r7, #0]
		RxBufferPos = 0;
 80052d4:	7013      	strb	r3, [r2, #0]
		RxSerialState = RxSoF;
 80052d6:	2202      	movs	r2, #2
		RxCount = 0;
 80052d8:	7023      	strb	r3, [r4, #0]
		RxSerialState = RxSoF;
 80052da:	702a      	strb	r2, [r5, #0]
}
 80052dc:	e8bd 81f0 	ldmia.w	sp!, {r4, r5, r6, r7, r8, pc}
			if((*data == '#') && (RxCount == 0))
 80052e0:	7833      	ldrb	r3, [r6, #0]
 80052e2:	7822      	ldrb	r2, [r4, #0]
 80052e4:	2b23      	cmp	r3, #35	@ 0x23
 80052e6:	d107      	bne.n	80052f8 <CSMS_receiveSerial+0x8c>
 80052e8:	bb2a      	cbnz	r2, 8005336 <CSMS_receiveSerial+0xca>
				RxBuffer[RxBufferPos++] = *data;
 80052ea:	4920      	ldr	r1, [pc, #128]	@ (800536c <CSMS_receiveSerial+0x100>)
 80052ec:	780a      	ldrb	r2, [r1, #0]
 80052ee:	1c50      	adds	r0, r2, #1
 80052f0:	7008      	strb	r0, [r1, #0]
 80052f2:	491d      	ldr	r1, [pc, #116]	@ (8005368 <CSMS_receiveSerial+0xfc>)
 80052f4:	548b      	strb	r3, [r1, r2]
 80052f6:	e7e0      	b.n	80052ba <CSMS_receiveSerial+0x4e>
			else if((*data == 'M') && (RxCount == 1))
 80052f8:	2b4d      	cmp	r3, #77	@ 0x4d
 80052fa:	d11c      	bne.n	8005336 <CSMS_receiveSerial+0xca>
 80052fc:	2a01      	cmp	r2, #1
 80052fe:	d11a      	bne.n	8005336 <CSMS_receiveSerial+0xca>
				RxBuffer[RxBufferPos++] = *data;
 8005300:	491a      	ldr	r1, [pc, #104]	@ (800536c <CSMS_receiveSerial+0x100>)
 8005302:	780a      	ldrb	r2, [r1, #0]
 8005304:	1c50      	adds	r0, r2, #1
 8005306:	7008      	strb	r0, [r1, #0]
 8005308:	4917      	ldr	r1, [pc, #92]	@ (8005368 <CSMS_receiveSerial+0xfc>)
 800530a:	548b      	strb	r3, [r1, r2]
				RxSerialState = RxData;
 800530c:	2303      	movs	r3, #3
				RxSerialState = RxIdle;
 800530e:	702b      	strb	r3, [r5, #0]
 8005310:	e7d3      	b.n	80052ba <CSMS_receiveSerial+0x4e>
			RxBuffer[RxBufferPos++] = *data;
 8005312:	4a16      	ldr	r2, [pc, #88]	@ (800536c <CSMS_receiveSerial+0x100>)
 8005314:	7813      	ldrb	r3, [r2, #0]
 8005316:	1c59      	adds	r1, r3, #1
 8005318:	7011      	strb	r1, [r2, #0]
 800531a:	7831      	ldrb	r1, [r6, #0]
 800531c:	4a12      	ldr	r2, [pc, #72]	@ (8005368 <CSMS_receiveSerial+0xfc>)
 800531e:	54d1      	strb	r1, [r2, r3]
			if(RxCount == 17)
 8005320:	7823      	ldrb	r3, [r4, #0]
 8005322:	2b11      	cmp	r3, #17
 8005324:	d1c9      	bne.n	80052ba <CSMS_receiveSerial+0x4e>
				RxSerialState = RxEoF;
 8005326:	2304      	movs	r3, #4
 8005328:	e7f1      	b.n	800530e <CSMS_receiveSerial+0xa2>
			if((*data == '*') && (RxCount == 18))
 800532a:	7833      	ldrb	r3, [r6, #0]
			if((*data == '#') && (RxCount == 0))
 800532c:	7822      	ldrb	r2, [r4, #0]
			if((*data == '*') && (RxCount == 18))
 800532e:	2b2a      	cmp	r3, #42	@ 0x2a
 8005330:	d104      	bne.n	800533c <CSMS_receiveSerial+0xd0>
 8005332:	2a12      	cmp	r2, #18
 8005334:	d0d9      	beq.n	80052ea <CSMS_receiveSerial+0x7e>
				RxBufferFlush = true;
 8005336:	2301      	movs	r3, #1
 8005338:	703b      	strb	r3, [r7, #0]
 800533a:	e7be      	b.n	80052ba <CSMS_receiveSerial+0x4e>
			else if((*data == '\n') && (RxCount == 19))
 800533c:	2b0a      	cmp	r3, #10
 800533e:	d1fa      	bne.n	8005336 <CSMS_receiveSerial+0xca>
 8005340:	2a13      	cmp	r2, #19
 8005342:	d1f8      	bne.n	8005336 <CSMS_receiveSerial+0xca>
				RxBuffer[RxBufferPos++] = *data;
 8005344:	4909      	ldr	r1, [pc, #36]	@ (800536c <CSMS_receiveSerial+0x100>)
 8005346:	780a      	ldrb	r2, [r1, #0]
 8005348:	1c50      	adds	r0, r2, #1
 800534a:	7008      	strb	r0, [r1, #0]
 800534c:	4906      	ldr	r1, [pc, #24]	@ (8005368 <CSMS_receiveSerial+0xfc>)
 800534e:	548b      	strb	r3, [r1, r2]
				RxPcktCpltFlag = true;
 8005350:	2301      	movs	r3, #1
 8005352:	4a07      	ldr	r2, [pc, #28]	@ (8005370 <CSMS_receiveSerial+0x104>)
 8005354:	7013      	strb	r3, [r2, #0]
 8005356:	e7da      	b.n	800530e <CSMS_receiveSerial+0xa2>
 8005358:	200009ec 	.word	0x200009ec
 800535c:	20000001 	.word	0x20000001
 8005360:	200009e6 	.word	0x200009e6
 8005364:	200009e5 	.word	0x200009e5
 8005368:	200009fa 	.word	0x200009fa
 800536c:	200009f9 	.word	0x200009f9
 8005370:	200009f8 	.word	0x200009f8

08005374 <CSMS_Init>:
}

void CSMS_Init(void)
{
//	RxSerialState = RxSoF;
}
 8005374:	4770      	bx	lr
	...

08005378 <CSMS_functions>:

void CSMS_functions(void)
{
 8005378:	e92d 4ff0 	stmdb	sp!, {r4, r5, r6, r7, r8, r9, sl, fp, lr}
	if(RxPcktCpltFlag)
 800537c:	4fb2      	ldr	r7, [pc, #712]	@ (8005648 <CSMS_functions+0x2d0>)
 800537e:	4cb3      	ldr	r4, [pc, #716]	@ (800564c <CSMS_functions+0x2d4>)
 8005380:	783b      	ldrb	r3, [r7, #0]
{
 8005382:	b08b      	sub	sp, #44	@ 0x2c
	if(RxPcktCpltFlag)
 8005384:	2b00      	cmp	r3, #0
 8005386:	d07d      	beq.n	8005484 <CSMS_functions+0x10c>
	{
		CSMS_getmSerial(&RxBuffer[1], (RxBufferPos - 3));
 8005388:	4db1      	ldr	r5, [pc, #708]	@ (8005650 <CSMS_functions+0x2d8>)
	uint16_t crc_calc = CSMS_modbusCRC(data, (length - 2));
 800538a:	48b2      	ldr	r0, [pc, #712]	@ (8005654 <CSMS_functions+0x2dc>)
		CSMS_getmSerial(&RxBuffer[1], (RxBufferPos - 3));
 800538c:	782e      	ldrb	r6, [r5, #0]
	uint16_t crc_calc = CSMS_modbusCRC(data, (length - 2));
 800538e:	1f71      	subs	r1, r6, #5
 8005390:	b2c9      	uxtb	r1, r1
 8005392:	f7ff ff1b 	bl	80051cc <CSMS_modbusCRC>
	uint16_t crc_rx = (data[length - 1] << 8) | (data[length - 2]);
 8005396:	f8df e2c0 	ldr.w	lr, [pc, #704]	@ 8005658 <CSMS_functions+0x2e0>
		CSMS_getmSerial(&RxBuffer[1], (RxBufferPos - 3));
 800539a:	3e03      	subs	r6, #3
	uint16_t crc_rx = (data[length - 1] << 8) | (data[length - 2]);
 800539c:	b2f6      	uxtb	r6, r6
 800539e:	f10e 33ff 	add.w	r3, lr, #4294967295
 80053a2:	f81e 2006 	ldrb.w	r2, [lr, r6]
 80053a6:	5d9b      	ldrb	r3, [r3, r6]
	if ((crc_calc == crc_rx) && (crc_calc != 0) && (crc_rx != 0))
 80053a8:	ea43 2302 	orr.w	r3, r3, r2, lsl #8
 80053ac:	4298      	cmp	r0, r3
 80053ae:	d15d      	bne.n	800546c <CSMS_functions+0xf4>
 80053b0:	2800      	cmp	r0, #0
 80053b2:	d05b      	beq.n	800546c <CSMS_functions+0xf4>
		networkSide_data.status = (uint8_t) data[1];
 80053b4:	f89e 3002 	ldrb.w	r3, [lr, #2]
 80053b8:	f8df 82a0 	ldr.w	r8, [pc, #672]	@ 800565c <CSMS_functions+0x2e4>
		CSMS.request.msgID = (uint8_t) data[8];
 80053bc:	f89e 2009 	ldrb.w	r2, [lr, #9]
		networkSide_data.status = (uint8_t) data[1];
 80053c0:	f8a8 3000 	strh.w	r3, [r8]
		CSMS.request.msgID = (uint8_t) data[8];
 80053c4:	4ba6      	ldr	r3, [pc, #664]	@ (8005660 <CSMS_functions+0x2e8>)
 80053c6:	f8be 900d 	ldrh.w	r9, [lr, #13]
 80053ca:	70da      	strb	r2, [r3, #3]
		uint8_t data1 = (uint8_t) data[9];
 80053cc:	f8cd 9004 	str.w	r9, [sp, #4]
		switch (CSMS.request.msgID)
 80053d0:	f893 9003 	ldrb.w	r9, [r3, #3]
		uint8_t data1 = (uint8_t) data[9];
 80053d4:	f89e 200a 	ldrb.w	r2, [lr, #10]
		switch (CSMS.request.msgID)
 80053d8:	f1b9 0f30 	cmp.w	r9, #48	@ 0x30
 80053dc:	f8be c00a 	ldrh.w	ip, [lr, #10]
		uint8_t data2 = (uint8_t) data[10];
 80053e0:	f89e 000b 	ldrb.w	r0, [lr, #11]
		uint8_t data3 = (uint8_t) data[11];
 80053e4:	f8be 100b 	ldrh.w	r1, [lr, #11]
 80053e8:	f89e b00c 	ldrb.w	fp, [lr, #12]
		uint8_t data4 = (uint8_t) data[12];
 80053ec:	f8be 600c 	ldrh.w	r6, [lr, #12]
		uint8_t data5 = (uint8_t) data[13];
 80053f0:	f89e a00e 	ldrb.w	sl, [lr, #14]
		switch (CSMS.request.msgID)
 80053f4:	fa5f f389 	uxtb.w	r3, r9
 80053f8:	f8be e00e 	ldrh.w	lr, [lr, #14]
 80053fc:	d82c      	bhi.n	8005458 <CSMS_functions+0xe0>
 80053fe:	2b27      	cmp	r3, #39	@ 0x27
 8005400:	d811      	bhi.n	8005426 <CSMS_functions+0xae>
 8005402:	2b00      	cmp	r3, #0
 8005404:	f000 80a0 	beq.w	8005548 <CSMS_functions+0x1d0>
		rxFlag = true;
 8005408:	2301      	movs	r3, #1
		memset(RxBuffer, 0, (sizeof(RxBuffer) / sizeof(RxBuffer[0])));
 800540a:	2264      	movs	r2, #100	@ 0x64
 800540c:	2100      	movs	r1, #0
 800540e:	4892      	ldr	r0, [pc, #584]	@ (8005658 <CSMS_functions+0x2e0>)
		rxFlag = true;
 8005410:	7023      	strb	r3, [r4, #0]
		memset(RxBuffer, 0, (sizeof(RxBuffer) / sizeof(RxBuffer[0])));
 8005412:	f005 ff15 	bl	800b240 <memset>
		RxSerialState = RxSoF;
 8005416:	2102      	movs	r1, #2
		RxBufferPos = 0;
 8005418:	2300      	movs	r3, #0
		RxSerialState = RxSoF;
 800541a:	4a92      	ldr	r2, [pc, #584]	@ (8005664 <CSMS_functions+0x2ec>)
		RxBufferPos = 0;
 800541c:	702b      	strb	r3, [r5, #0]
		RxSerialState = RxSoF;
 800541e:	7011      	strb	r1, [r2, #0]
		RxSerialFaultTimeout = 0;       // reset packet fault timeout
 8005420:	4a91      	ldr	r2, [pc, #580]	@ (8005668 <CSMS_functions+0x2f0>)
 8005422:	6013      	str	r3, [r2, #0]
 8005424:	e02c      	b.n	8005480 <CSMS_functions+0x108>
		switch (CSMS.request.msgID)
 8005426:	3b28      	subs	r3, #40	@ 0x28
 8005428:	2b08      	cmp	r3, #8
 800542a:	d8ed      	bhi.n	8005408 <CSMS_functions+0x90>
 800542c:	a101      	add	r1, pc, #4	@ (adr r1, 8005434 <CSMS_functions+0xbc>)
 800542e:	f851 f023 	ldr.w	pc, [r1, r3, lsl #2]
 8005432:	bf00      	nop
 8005434:	0800554f 	.word	0x0800554f
 8005438:	08005409 	.word	0x08005409
 800543c:	08005409 	.word	0x08005409
 8005440:	08005409 	.word	0x08005409
 8005444:	08005409 	.word	0x08005409
 8005448:	08005569 	.word	0x08005569
 800544c:	08005577 	.word	0x08005577
 8005450:	0800558f 	.word	0x0800558f
 8005454:	080055a7 	.word	0x080055a7
 8005458:	2b3c      	cmp	r3, #60	@ 0x3c
 800545a:	f04f 0601 	mov.w	r6, #1
 800545e:	f000 80b6 	beq.w	80055ce <CSMS_functions+0x256>
 8005462:	2b64      	cmp	r3, #100	@ 0x64
 8005464:	d1d0      	bne.n	8005408 <CSMS_functions+0x90>
			OTA_flag = true;
 8005466:	4b81      	ldr	r3, [pc, #516]	@ (800566c <CSMS_functions+0x2f4>)
 8005468:	701e      	strb	r6, [r3, #0]
			break;
 800546a:	e7cd      	b.n	8005408 <CSMS_functions+0x90>
		memset(RxBuffer, 0, (sizeof(RxBuffer) / sizeof(RxBuffer[0])));
 800546c:	2264      	movs	r2, #100	@ 0x64
 800546e:	2100      	movs	r1, #0
 8005470:	4879      	ldr	r0, [pc, #484]	@ (8005658 <CSMS_functions+0x2e0>)
 8005472:	f005 fee5 	bl	800b240 <memset>
		RxBufferPos = 0;
 8005476:	2300      	movs	r3, #0
		RxSerialState = RxSoF;
 8005478:	2202      	movs	r2, #2
		RxBufferPos = 0;
 800547a:	702b      	strb	r3, [r5, #0]
		RxSerialState = RxSoF;
 800547c:	4b79      	ldr	r3, [pc, #484]	@ (8005664 <CSMS_functions+0x2ec>)
 800547e:	701a      	strb	r2, [r3, #0]
		RxPcktCpltFlag = false;
 8005480:	2300      	movs	r3, #0
 8005482:	703b      	strb	r3, [r7, #0]
	}

	if(rxFlag)
 8005484:	7823      	ldrb	r3, [r4, #0]
 8005486:	f003 06ff 	and.w	r6, r3, #255	@ 0xff
 800548a:	2b00      	cmp	r3, #0
 800548c:	d059      	beq.n	8005542 <CSMS_functions+0x1ca>
	{
		tick_clear(&serial_error);
 800548e:	4878      	ldr	r0, [pc, #480]	@ (8005670 <CSMS_functions+0x2f8>)
 8005490:	f003 f802 	bl	8008498 <tick_clear>
	char data[30] =
 8005494:	221e      	movs	r2, #30
 8005496:	2100      	movs	r1, #0
 8005498:	a802      	add	r0, sp, #8
 800549a:	f005 fed1 	bl	800b240 <memset>
	data[0] = '#';
 800549e:	f244 3323 	movw	r3, #17187	@ 0x4323
	data[2] = controlSide_data.status.all;
 80054a2:	4a74      	ldr	r2, [pc, #464]	@ (8005674 <CSMS_functions+0x2fc>)
	data[3] = powerSide_data.status.all;
 80054a4:	4d74      	ldr	r5, [pc, #464]	@ (8005678 <CSMS_functions+0x300>)
	data[0] = '#';
 80054a6:	f8ad 3008 	strh.w	r3, [sp, #8]
	data[2] = controlSide_data.status.all;
 80054aa:	7813      	ldrb	r3, [r2, #0]
	data[9] = CSMS.request.msgID;
 80054ac:	4f6c      	ldr	r7, [pc, #432]	@ (8005660 <CSMS_functions+0x2e8>)
	data[2] = controlSide_data.status.all;
 80054ae:	f88d 300a 	strb.w	r3, [sp, #10]
	data[3] = powerSide_data.status.all;
 80054b2:	782b      	ldrb	r3, [r5, #0]
 80054b4:	f88d 300b 	strb.w	r3, [sp, #11]
	data[4] = controlSide_data.networkSide_request.all;
 80054b8:	7f53      	ldrb	r3, [r2, #29]
 80054ba:	f88d 300c 	strb.w	r3, [sp, #12]
	data[5] = (controlSide_data.errorStatus.all & 0xFF);
 80054be:	7853      	ldrb	r3, [r2, #1]
 80054c0:	f88d 300d 	strb.w	r3, [sp, #13]
	data[6] = controlSide_data.errorReport;
 80054c4:	7fd3      	ldrb	r3, [r2, #31]
 80054c6:	f88d 300e 	strb.w	r3, [sp, #14]
	data[7] = powerSide_data.tripStatus.all;
 80054ca:	78ab      	ldrb	r3, [r5, #2]
 80054cc:	f88d 300f 	strb.w	r3, [sp, #15]
	data[8] = powerSide_data.errorStatus.all;
 80054d0:	786b      	ldrb	r3, [r5, #1]
 80054d2:	f88d 3010 	strb.w	r3, [sp, #16]
	data[9] = CSMS.request.msgID;
 80054d6:	78fb      	ldrb	r3, [r7, #3]
	switch (CSMS.request.msgID)
 80054d8:	78f9      	ldrb	r1, [r7, #3]
	data[9] = CSMS.request.msgID;
 80054da:	f88d 3011 	strb.w	r3, [sp, #17]
	switch (CSMS.request.msgID)
 80054de:	2905      	cmp	r1, #5
 80054e0:	b2cb      	uxtb	r3, r1
 80054e2:	f240 80e6 	bls.w	80056b2 <CSMS_functions+0x33a>
 80054e6:	f1a3 022d 	sub.w	r2, r3, #45	@ 0x2d
 80054ea:	2a03      	cmp	r2, #3
 80054ec:	f240 80da 	bls.w	80056a4 <CSMS_functions+0x32c>
	if (CSMS.request.msgID != 100)
 80054f0:	78fb      	ldrb	r3, [r7, #3]
 80054f2:	2b64      	cmp	r3, #100	@ 0x64
 80054f4:	d020      	beq.n	8005538 <CSMS_functions+0x1c0>
		uint16_t crc = CSMS_modbusCRC(&data[1], (16 - 1));
 80054f6:	210f      	movs	r1, #15
 80054f8:	f10d 0009 	add.w	r0, sp, #9
 80054fc:	f7ff fe66 	bl	80051cc <CSMS_modbusCRC>
		data[18] = '*';
 8005500:	f640 232a 	movw	r3, #2602	@ 0xa2a
 8005504:	f8ad 301a 	strh.w	r3, [sp, #26]
 8005508:	2300      	movs	r3, #0
		data[16] = (crc & 0xFF);
 800550a:	f8ad 0018 	strh.w	r0, [sp, #24]
		data[18] = '*';
 800550e:	4618      	mov	r0, r3
		if((CSMS_Queue.ID[i] == id) && (((CSMS_Queue.ActiveMask >> i) & 0x0001) == 1))
 8005510:	4a5a      	ldr	r2, [pc, #360]	@ (800567c <CSMS_functions+0x304>)
 8005512:	18d1      	adds	r1, r2, r3
 8005514:	7c89      	ldrb	r1, [r1, #18]
 8005516:	2901      	cmp	r1, #1
 8005518:	f040 8190 	bne.w	800583c <CSMS_functions+0x4c4>
 800551c:	8811      	ldrh	r1, [r2, #0]
 800551e:	b289      	uxth	r1, r1
 8005520:	4119      	asrs	r1, r3
 8005522:	07c9      	lsls	r1, r1, #31
 8005524:	f140 818a 	bpl.w	800583c <CSMS_functions+0x4c4>
 8005528:	b110      	cbz	r0, 8005530 <CSMS_functions+0x1b8>
 800552a:	2200      	movs	r2, #0
 800552c:	4b54      	ldr	r3, [pc, #336]	@ (8005680 <CSMS_functions+0x308>)
 800552e:	701a      	strb	r2, [r3, #0]
		pingPongCount++;
 8005530:	4a54      	ldr	r2, [pc, #336]	@ (8005684 <CSMS_functions+0x30c>)
 8005532:	6813      	ldr	r3, [r2, #0]
 8005534:	3301      	adds	r3, #1
 8005536:	6013      	str	r3, [r2, #0]
		CSMS_setmSerial();
		rxFlag = false;
 8005538:	2300      	movs	r3, #0
		networkSide_bootup = true;
 800553a:	2201      	movs	r2, #1
		rxFlag = false;
 800553c:	7023      	strb	r3, [r4, #0]
		networkSide_bootup = true;
 800553e:	4b52      	ldr	r3, [pc, #328]	@ (8005688 <CSMS_functions+0x310>)
 8005540:	701a      	strb	r2, [r3, #0]
	}
}
 8005542:	b00b      	add	sp, #44	@ 0x2c
 8005544:	e8bd 8ff0 	ldmia.w	sp!, {r4, r5, r6, r7, r8, r9, sl, fp, pc}
			networkSide_data.maxCurrent_req = data1;
 8005548:	f888 2004 	strb.w	r2, [r8, #4]
			break;
 800554c:	e75c      	b.n	8005408 <CSMS_functions+0x90>
			if ((data1 == 11) && (data2 == 22) && (data3 == 33))
 800554e:	2a0b      	cmp	r2, #11
 8005550:	f47f af5a 	bne.w	8005408 <CSMS_functions+0x90>
 8005554:	2816      	cmp	r0, #22
 8005556:	f47f af57 	bne.w	8005408 <CSMS_functions+0x90>
 800555a:	f1bb 0f21 	cmp.w	fp, #33	@ 0x21
 800555e:	f47f af53 	bne.w	8005408 <CSMS_functions+0x90>
				HAL_NVIC_SystemReset();
 8005562:	f003 fd61 	bl	8009028 <HAL_NVIC_SystemReset>
 8005566:	e74f      	b.n	8005408 <CSMS_functions+0x90>
			if (data1 == 45)
 8005568:	2a2d      	cmp	r2, #45	@ 0x2d
 800556a:	f47f af4d 	bne.w	8005408 <CSMS_functions+0x90>
				charger_configSet.config_counter = 10;
 800556e:	220a      	movs	r2, #10
 8005570:	4b46      	ldr	r3, [pc, #280]	@ (800568c <CSMS_functions+0x314>)
				charger_configSet.config_counter = 0;
 8005572:	749a      	strb	r2, [r3, #18]
 8005574:	e748      	b.n	8005408 <CSMS_functions+0x90>
			if (charger_configSet.config_counter == 10)
 8005576:	4b45      	ldr	r3, [pc, #276]	@ (800568c <CSMS_functions+0x314>)
 8005578:	7c9a      	ldrb	r2, [r3, #18]
 800557a:	2a0a      	cmp	r2, #10
 800557c:	f47f af44 	bne.w	8005408 <CSMS_functions+0x90>
				charger_configSet.en_1.all = ((data2 << 8) | data1);
 8005580:	f8a3 c000 	strh.w	ip, [r3]
				charger_configSet.config_counter = 20;
 8005584:	2214      	movs	r2, #20
				charger_configSet.en_2.all = ((data4 << 8) | data3);
 8005586:	805e      	strh	r6, [r3, #2]
				charger_configSet.uv_upper = ((data6 << 8) | data5);
 8005588:	f8a3 e006 	strh.w	lr, [r3, #6]
				charger_configSet.config_counter = 20;
 800558c:	e7f1      	b.n	8005572 <CSMS_functions+0x1fa>
			if (charger_configSet.config_counter == 20)
 800558e:	4b3f      	ldr	r3, [pc, #252]	@ (800568c <CSMS_functions+0x314>)
 8005590:	7c9a      	ldrb	r2, [r3, #18]
 8005592:	2a14      	cmp	r2, #20
 8005594:	f47f af38 	bne.w	8005408 <CSMS_functions+0x90>
				charger_configSet.uv_lower = ((data2 << 8) | data1);
 8005598:	f8a3 c008 	strh.w	ip, [r3, #8]
				charger_configSet.config_counter = 30;
 800559c:	221e      	movs	r2, #30
				charger_configSet.ov_upper = ((data4 << 8) | data3);
 800559e:	815e      	strh	r6, [r3, #10]
				charger_configSet.ov_lower = ((data6 << 8) | data5);
 80055a0:	f8a3 e00c 	strh.w	lr, [r3, #12]
				charger_configSet.config_counter = 30;
 80055a4:	e7e5      	b.n	8005572 <CSMS_functions+0x1fa>
			if (charger_configSet.config_counter == 30)
 80055a6:	4b39      	ldr	r3, [pc, #228]	@ (800568c <CSMS_functions+0x314>)
 80055a8:	7c9a      	ldrb	r2, [r3, #18]
 80055aa:	2a1e      	cmp	r2, #30
 80055ac:	d106      	bne.n	80055bc <CSMS_functions+0x244>
				charger_configSet.config_counter = 89;
 80055ae:	2259      	movs	r2, #89	@ 0x59
				charger_configSet.freq_upper = ((data2 << 8) | data1);
 80055b0:	f8a3 c00e 	strh.w	ip, [r3, #14]
				charger_configSet.freq_lower = ((data4 << 8) | data3);
 80055b4:	821e      	strh	r6, [r3, #16]
				charger_configSet.max_current = data5;
 80055b6:	f883 a004 	strb.w	sl, [r3, #4]
				charger_configSet.config_counter = 89;
 80055ba:	749a      	strb	r2, [r3, #18]
			if (charger_configSet.config_counter == 89)
 80055bc:	7c9a      	ldrb	r2, [r3, #18]
 80055be:	2a59      	cmp	r2, #89	@ 0x59
 80055c0:	d102      	bne.n	80055c8 <CSMS_functions+0x250>
				charger_configSet.config_enable = true;
 80055c2:	2201      	movs	r2, #1
 80055c4:	74da      	strb	r2, [r3, #19]
 80055c6:	e71f      	b.n	8005408 <CSMS_functions+0x90>
				charger_configSet.config_enable = false;
 80055c8:	2200      	movs	r2, #0
 80055ca:	74da      	strb	r2, [r3, #19]
 80055cc:	e7d1      	b.n	8005572 <CSMS_functions+0x1fa>
			switch (data1)
 80055ce:	3a01      	subs	r2, #1
 80055d0:	2300      	movs	r3, #0
 80055d2:	2a05      	cmp	r2, #5
 80055d4:	f63f af18 	bhi.w	8005408 <CSMS_functions+0x90>
 80055d8:	e8df f002 	tbb	[pc, r2]
 80055dc:	170f0903 	.word	0x170f0903
 80055e0:	2e25      	.short	0x2e25
				cpCalibrate_cmplt = false;
 80055e2:	2200      	movs	r2, #0
				cpCalibrate_en = true;
 80055e4:	4b2a      	ldr	r3, [pc, #168]	@ (8005690 <CSMS_functions+0x318>)
 80055e6:	701e      	strb	r6, [r3, #0]
				cpCalibrate_cmplt = false;
 80055e8:	4b2a      	ldr	r3, [pc, #168]	@ (8005694 <CSMS_functions+0x31c>)
				cpCalibrate_cmplt = true;
 80055ea:	701a      	strb	r2, [r3, #0]
				break;
 80055ec:	e70c      	b.n	8005408 <CSMS_functions+0x90>
				cpPositve_en = true;
 80055ee:	4b2a      	ldr	r3, [pc, #168]	@ (8005698 <CSMS_functions+0x320>)
 80055f0:	701e      	strb	r6, [r3, #0]
				cpNegative_en = false;
 80055f2:	2300      	movs	r3, #0
				cpNegative_en = false;
 80055f4:	4a29      	ldr	r2, [pc, #164]	@ (800569c <CSMS_functions+0x324>)
 80055f6:	7013      	strb	r3, [r2, #0]
 80055f8:	e004      	b.n	8005604 <CSMS_functions+0x28c>
				cpNegative_en = true;
 80055fa:	2101      	movs	r1, #1
				cpPositve_en = false;
 80055fc:	4a26      	ldr	r2, [pc, #152]	@ (8005698 <CSMS_functions+0x320>)
 80055fe:	7013      	strb	r3, [r2, #0]
				cpNegative_en = true;
 8005600:	4a26      	ldr	r2, [pc, #152]	@ (800569c <CSMS_functions+0x324>)
 8005602:	7011      	strb	r1, [r2, #0]
				cpDuty_en = false;
 8005604:	4a26      	ldr	r2, [pc, #152]	@ (80056a0 <CSMS_functions+0x328>)
 8005606:	7013      	strb	r3, [r2, #0]
				break;
 8005608:	e6fe      	b.n	8005408 <CSMS_functions+0x90>
				cpPositve_en = false;
 800560a:	4a23      	ldr	r2, [pc, #140]	@ (8005698 <CSMS_functions+0x320>)
				if ((data2 >= 0) && (data2 <= 100))
 800560c:	2864      	cmp	r0, #100	@ 0x64
				cpPositve_en = false;
 800560e:	7013      	strb	r3, [r2, #0]
				cpNegative_en = false;
 8005610:	4a22      	ldr	r2, [pc, #136]	@ (800569c <CSMS_functions+0x324>)
 8005612:	7013      	strb	r3, [r2, #0]
				cpDuty_en = true;
 8005614:	f04f 0201 	mov.w	r2, #1
 8005618:	4b21      	ldr	r3, [pc, #132]	@ (80056a0 <CSMS_functions+0x328>)
 800561a:	701a      	strb	r2, [r3, #0]
				if ((data2 >= 0) && (data2 <= 100))
 800561c:	f63f aef4 	bhi.w	8005408 <CSMS_functions+0x90>
					charger_configSet.cp_set = data2;
 8005620:	4b1a      	ldr	r3, [pc, #104]	@ (800568c <CSMS_functions+0x314>)
 8005622:	7698      	strb	r0, [r3, #26]
 8005624:	e6f0      	b.n	8005408 <CSMS_functions+0x90>
				charger_configSet.cp_positive = ((data3 << 8) | data2);
 8005626:	4a19      	ldr	r2, [pc, #100]	@ (800568c <CSMS_functions+0x314>)
				charger_configSet.cp_negative = ((data5 << 8) | data4);
 8005628:	f9bd 3004 	ldrsh.w	r3, [sp, #4]
				charger_configSet.cp_positive = ((data3 << 8) | data2);
 800562c:	b209      	sxth	r1, r1
 800562e:	82d1      	strh	r1, [r2, #22]
				charger_configSet.cp_negative = ((data5 << 8) | data4);
 8005630:	8313      	strh	r3, [r2, #24]
				cpCalibrate_cmplt = true;
 8005632:	2201      	movs	r2, #1
 8005634:	4b17      	ldr	r3, [pc, #92]	@ (8005694 <CSMS_functions+0x31c>)
 8005636:	e7d8      	b.n	80055ea <CSMS_functions+0x272>
				cpCalibrate_en = false;
 8005638:	4a15      	ldr	r2, [pc, #84]	@ (8005690 <CSMS_functions+0x318>)
 800563a:	7013      	strb	r3, [r2, #0]
				cpCalibrate_cmplt = false;
 800563c:	4a15      	ldr	r2, [pc, #84]	@ (8005694 <CSMS_functions+0x31c>)
 800563e:	7013      	strb	r3, [r2, #0]
				cpPositve_en = false;
 8005640:	4a15      	ldr	r2, [pc, #84]	@ (8005698 <CSMS_functions+0x320>)
 8005642:	7013      	strb	r3, [r2, #0]
 8005644:	e7d6      	b.n	80055f4 <CSMS_functions+0x27c>
 8005646:	bf00      	nop
 8005648:	200009f8 	.word	0x200009f8
 800564c:	200009f0 	.word	0x200009f0
 8005650:	200009f9 	.word	0x200009f9
 8005654:	200009fb 	.word	0x200009fb
 8005658:	200009fa 	.word	0x200009fa
 800565c:	20001406 	.word	0x20001406
 8005660:	200010c0 	.word	0x200010c0
 8005664:	20000001 	.word	0x20000001
 8005668:	200009e8 	.word	0x200009e8
 800566c:	200010f0 	.word	0x200010f0
 8005670:	20001610 	.word	0x20001610
 8005674:	20001458 	.word	0x20001458
 8005678:	20001428 	.word	0x20001428
 800567c:	20000a5e 	.word	0x20000a5e
 8005680:	200009e4 	.word	0x200009e4
 8005684:	200009f4 	.word	0x200009f4
 8005688:	20000004 	.word	0x20000004
 800568c:	20001194 	.word	0x20001194
 8005690:	200011e4 	.word	0x200011e4
 8005694:	200011e0 	.word	0x200011e0
 8005698:	200011e3 	.word	0x200011e3
 800569c:	200011e2 	.word	0x200011e2
 80056a0:	200011e1 	.word	0x200011e1
	switch (CSMS.request.msgID)
 80056a4:	3b2e      	subs	r3, #46	@ 0x2e
 80056a6:	2b02      	cmp	r3, #2
 80056a8:	d85c      	bhi.n	8005764 <CSMS_functions+0x3ec>
 80056aa:	e8df f003 	tbb	[pc, r3]
 80056ae:	7e62      	.short	0x7e62
 80056b0:	98          	.byte	0x98
 80056b1:	00          	.byte	0x00
 80056b2:	3b01      	subs	r3, #1
 80056b4:	2b04      	cmp	r3, #4
 80056b6:	d804      	bhi.n	80056c2 <CSMS_functions+0x34a>
 80056b8:	e8df f003 	tbb	[pc, r3]
 80056bc:	3d2b150d 	.word	0x3d2b150d
 80056c0:	44          	.byte	0x44
 80056c1:	00          	.byte	0x00
		temp = powerSide_data.voltage.VA;
 80056c2:	8aab      	ldrh	r3, [r5, #20]
		data[10] = (temp & 0xFF); 			// LB
 80056c4:	f8ad 3012 	strh.w	r3, [sp, #18]
		temp = powerSide_data.voltage.VB;
 80056c8:	8aeb      	ldrh	r3, [r5, #22]
		data[12] = (temp & 0xFF); 			// LB
 80056ca:	f8ad 3014 	strh.w	r3, [sp, #20]
		temp = powerSide_data.voltage.VC;
 80056ce:	8b2b      	ldrh	r3, [r5, #24]
		data[14] = (temp & 0xFF); 			// LB
 80056d0:	f8ad 3016 	strh.w	r3, [sp, #22]
		break;
 80056d4:	e70c      	b.n	80054f0 <CSMS_functions+0x178>
		temp = powerSide_data.current.IA;
 80056d6:	8b6b      	ldrh	r3, [r5, #26]
		data[10] = (temp & 0xFF); 			// LB
 80056d8:	f8ad 3012 	strh.w	r3, [sp, #18]
		temp = powerSide_data.current.IB;
 80056dc:	8bab      	ldrh	r3, [r5, #28]
		data[12] = (temp & 0xFF); 			// LB
 80056de:	f8ad 3014 	strh.w	r3, [sp, #20]
		temp = powerSide_data.current.IC;
 80056e2:	8beb      	ldrh	r3, [r5, #30]
 80056e4:	e7f4      	b.n	80056d0 <CSMS_functions+0x358>
		data[10] = powerSide_data.powerEnergy.power;
 80056e6:	f895 3020 	ldrb.w	r3, [r5, #32]
 80056ea:	f88d 3012 	strb.w	r3, [sp, #18]
		temp2 = (uint32_t) powerSide_data.powerEnergy.kWh;
 80056ee:	6a6b      	ldr	r3, [r5, #36]	@ 0x24
		data[14] = (int8_t) powerSide_data.tempSensors.T1;
 80056f0:	6868      	ldr	r0, [r5, #4]
		data[12] = (uint8_t) (temp2 >> 8); 		// LB
 80056f2:	0a1a      	lsrs	r2, r3, #8
		data[11] = (uint8_t) (temp2 & 0xFF);
 80056f4:	f88d 3013 	strb.w	r3, [sp, #19]
		data[13] = (uint8_t) ((temp2 >> 16));	// HB
 80056f8:	0c1b      	lsrs	r3, r3, #16
 80056fa:	f88d 3015 	strb.w	r3, [sp, #21]
		data[12] = (uint8_t) (temp2 >> 8); 		// LB
 80056fe:	f88d 2014 	strb.w	r2, [sp, #20]
		data[14] = (int8_t) powerSide_data.tempSensors.T1;
 8005702:	f7ff f887 	bl	8004814 <__aeabi_f2iz>
		data[15] = (uint8_t) powerSide_data.frequency;
 8005706:	8dab      	ldrh	r3, [r5, #44]	@ 0x2c
		data[14] = (int8_t) powerSide_data.tempSensors.T1;
 8005708:	f88d 0016 	strb.w	r0, [sp, #22]
			data[15] = charger_configGet.energyMeterModel;
 800570c:	f88d 3017 	strb.w	r3, [sp, #23]
 8005710:	e6ee      	b.n	80054f0 <CSMS_functions+0x178>
		temp = (uint16_t) (controlSide_data.controlPilot.cp_max);
 8005712:	8a13      	ldrh	r3, [r2, #16]
		data[10] = (temp & 0xFF); 			// LB
 8005714:	f8ad 3012 	strh.w	r3, [sp, #18]
		data[12] = (ADL.data.activeEnergy & 0xFF);
 8005718:	4b64      	ldr	r3, [pc, #400]	@ (80058ac <CSMS_functions+0x534>)
 800571a:	6a1a      	ldr	r2, [r3, #32]
 800571c:	f88d 2014 	strb.w	r2, [sp, #20]
		data[13] = ((ADL.data.activeEnergy >> 8) & 0xFF);
 8005720:	6a1a      	ldr	r2, [r3, #32]
 8005722:	0a12      	lsrs	r2, r2, #8
 8005724:	f88d 2015 	strb.w	r2, [sp, #21]
		data[14] = ((ADL.data.activeEnergy >> 16) & 0xFF);
 8005728:	6a1a      	ldr	r2, [r3, #32]
		data[15] = ((ADL.data.activeEnergy >> 24) & 0xFF);
 800572a:	6a1b      	ldr	r3, [r3, #32]
		data[14] = ((ADL.data.activeEnergy >> 16) & 0xFF);
 800572c:	0c12      	lsrs	r2, r2, #16
 800572e:	f88d 2016 	strb.w	r2, [sp, #22]
		data[15] = ((ADL.data.activeEnergy >> 24) & 0xFF);
 8005732:	0e1b      	lsrs	r3, r3, #24
 8005734:	e7ea      	b.n	800570c <CSMS_functions+0x394>
		data[10] = 3;
 8005736:	2303      	movs	r3, #3
 8005738:	f88d 3012 	strb.w	r3, [sp, #18]
		data[12] = 5;//3
 800573c:	f06f 03fa 	mvn.w	r3, #250	@ 0xfa
		data[12] = 0xFF;
 8005740:	9305      	str	r3, [sp, #20]
		break;
 8005742:	e6d5      	b.n	80054f0 <CSMS_functions+0x178>
		data[10] = hw_version.v1;
 8005744:	4b5a      	ldr	r3, [pc, #360]	@ (80058b0 <CSMS_functions+0x538>)
 8005746:	781a      	ldrb	r2, [r3, #0]
 8005748:	f88d 2012 	strb.w	r2, [sp, #18]
		data[11] = hw_version.v2;
 800574c:	785a      	ldrb	r2, [r3, #1]
		data[12] = hw_version.v3;
 800574e:	789b      	ldrb	r3, [r3, #2]
		data[11] = hw_version.v2;
 8005750:	f88d 2013 	strb.w	r2, [sp, #19]
		data[12] = hw_version.v3;
 8005754:	f88d 3014 	strb.w	r3, [sp, #20]
		data[13] = 0xFF;
 8005758:	23ff      	movs	r3, #255	@ 0xff
 800575a:	f88d 3015 	strb.w	r3, [sp, #21]
		data[14] = 0xFF;
 800575e:	f64f 73ff 	movw	r3, #65535	@ 0xffff
 8005762:	e7b5      	b.n	80056d0 <CSMS_functions+0x358>
		data[10] = 0xFF;
 8005764:	f64f 73ff 	movw	r3, #65535	@ 0xffff
 8005768:	f8ad 3012 	strh.w	r3, [sp, #18]
		data[12] = 0xFF;
 800576c:	f04f 33ff 	mov.w	r3, #4294967295
 8005770:	e7e6      	b.n	8005740 <CSMS_functions+0x3c8>
		if (charger_configSet.config_counter >= 10)
 8005772:	4b50      	ldr	r3, [pc, #320]	@ (80058b4 <CSMS_functions+0x53c>)
 8005774:	7c9a      	ldrb	r2, [r3, #18]
 8005776:	2a09      	cmp	r2, #9
			data[10] = (charger_configGet.en_1.all & 0xFF);
 8005778:	bf98      	it	ls
 800577a:	4b4f      	ldrls	r3, [pc, #316]	@ (80058b8 <CSMS_functions+0x540>)
 800577c:	881a      	ldrh	r2, [r3, #0]
 800577e:	f88d 2012 	strb.w	r2, [sp, #18]
			data[11] = ((charger_configGet.en_1.all >> 8) & 0xFF);
 8005782:	881a      	ldrh	r2, [r3, #0]
 8005784:	f3c2 2207 	ubfx	r2, r2, #8, #8
 8005788:	f88d 2013 	strb.w	r2, [sp, #19]
			data[12] = (charger_configGet.en_2.all & 0xFF);
 800578c:	885a      	ldrh	r2, [r3, #2]
 800578e:	f88d 2014 	strb.w	r2, [sp, #20]
			data[13] = ((charger_configGet.en_2.all >> 8) & 0xFF);
 8005792:	885a      	ldrh	r2, [r3, #2]
 8005794:	f3c2 2207 	ubfx	r2, r2, #8, #8
 8005798:	f88d 2015 	strb.w	r2, [sp, #21]
			data[14] = (charger_configGet.uv_upper & 0xFF);
 800579c:	88da      	ldrh	r2, [r3, #6]
 800579e:	f88d 2016 	strb.w	r2, [sp, #22]
			data[15] = ((charger_configGet.uv_upper >> 8) & 0xFF);
 80057a2:	88db      	ldrh	r3, [r3, #6]
			data[15] = ((charger_configGet.ov_lower >> 8) & 0xFF);
 80057a4:	f3c3 2307 	ubfx	r3, r3, #8, #8
 80057a8:	e7b0      	b.n	800570c <CSMS_functions+0x394>
		if (charger_configSet.config_counter >= 10)
 80057aa:	4b42      	ldr	r3, [pc, #264]	@ (80058b4 <CSMS_functions+0x53c>)
 80057ac:	7c9a      	ldrb	r2, [r3, #18]
 80057ae:	2a09      	cmp	r2, #9
			data[10] = (charger_configGet.uv_lower & 0xFF);
 80057b0:	bf98      	it	ls
 80057b2:	4b41      	ldrls	r3, [pc, #260]	@ (80058b8 <CSMS_functions+0x540>)
 80057b4:	891a      	ldrh	r2, [r3, #8]
 80057b6:	f88d 2012 	strb.w	r2, [sp, #18]
			data[11] = ((charger_configGet.uv_lower >> 8) & 0xFF);
 80057ba:	891a      	ldrh	r2, [r3, #8]
 80057bc:	f3c2 2207 	ubfx	r2, r2, #8, #8
 80057c0:	f88d 2013 	strb.w	r2, [sp, #19]
			data[12] = (charger_configGet.ov_upper & 0xFF);
 80057c4:	895a      	ldrh	r2, [r3, #10]
 80057c6:	f88d 2014 	strb.w	r2, [sp, #20]
			data[13] = ((charger_configGet.ov_upper >> 8) & 0xFF);
 80057ca:	895a      	ldrh	r2, [r3, #10]
 80057cc:	f3c2 2207 	ubfx	r2, r2, #8, #8
 80057d0:	f88d 2015 	strb.w	r2, [sp, #21]
			data[14] = (charger_configGet.ov_lower & 0xFF);
 80057d4:	899a      	ldrh	r2, [r3, #12]
 80057d6:	f88d 2016 	strb.w	r2, [sp, #22]
			data[15] = ((charger_configGet.ov_lower >> 8) & 0xFF);
 80057da:	899b      	ldrh	r3, [r3, #12]
 80057dc:	e7e2      	b.n	80057a4 <CSMS_functions+0x42c>
		if (charger_configSet.config_counter >= 10)
 80057de:	4b35      	ldr	r3, [pc, #212]	@ (80058b4 <CSMS_functions+0x53c>)
 80057e0:	7c9a      	ldrb	r2, [r3, #18]
 80057e2:	2a09      	cmp	r2, #9
 80057e4:	d914      	bls.n	8005810 <CSMS_functions+0x498>
			data[10] = (charger_configSet.freq_upper & 0xFF);
 80057e6:	89da      	ldrh	r2, [r3, #14]
 80057e8:	f88d 2012 	strb.w	r2, [sp, #18]
			data[11] = ((charger_configSet.freq_upper >> 8) & 0xFF);
 80057ec:	89da      	ldrh	r2, [r3, #14]
 80057ee:	f3c2 2207 	ubfx	r2, r2, #8, #8
 80057f2:	f88d 2013 	strb.w	r2, [sp, #19]
			data[12] = (charger_configSet.freq_lower & 0xFF);
 80057f6:	8a1a      	ldrh	r2, [r3, #16]
 80057f8:	f88d 2014 	strb.w	r2, [sp, #20]
			data[13] = ((charger_configSet.freq_lower >> 8) & 0xFF);
 80057fc:	8a1a      	ldrh	r2, [r3, #16]
			data[14] = charger_configSet.max_current;
 80057fe:	791b      	ldrb	r3, [r3, #4]
			data[13] = ((charger_configSet.freq_lower >> 8) & 0xFF);
 8005800:	f3c2 2207 	ubfx	r2, r2, #8, #8
			data[14] = charger_configSet.max_current;
 8005804:	f88d 3016 	strb.w	r3, [sp, #22]
			data[13] = ((charger_configSet.freq_lower >> 8) & 0xFF);
 8005808:	f88d 2015 	strb.w	r2, [sp, #21]
			data[15] = 0xFF;
 800580c:	23ff      	movs	r3, #255	@ 0xff
 800580e:	e77d      	b.n	800570c <CSMS_functions+0x394>
			data[10] = (charger_configGet.freq_upper & 0xFF);
 8005810:	4b29      	ldr	r3, [pc, #164]	@ (80058b8 <CSMS_functions+0x540>)
 8005812:	89da      	ldrh	r2, [r3, #14]
 8005814:	f88d 2012 	strb.w	r2, [sp, #18]
			data[11] = ((charger_configGet.freq_upper >> 8) & 0xFF);
 8005818:	89da      	ldrh	r2, [r3, #14]
 800581a:	f3c2 2207 	ubfx	r2, r2, #8, #8
 800581e:	f88d 2013 	strb.w	r2, [sp, #19]
			data[12] = (charger_configGet.freq_lower & 0xFF);
 8005822:	8a1a      	ldrh	r2, [r3, #16]
 8005824:	f88d 2014 	strb.w	r2, [sp, #20]
			data[13] = ((charger_configGet.freq_lower >> 8) & 0xFF);
 8005828:	8a1a      	ldrh	r2, [r3, #16]
 800582a:	f3c2 2207 	ubfx	r2, r2, #8, #8
 800582e:	f88d 2015 	strb.w	r2, [sp, #21]
			data[14] = charger_configGet.max_current;
 8005832:	791a      	ldrb	r2, [r3, #4]
			data[15] = charger_configGet.energyMeterModel;
 8005834:	7d1b      	ldrb	r3, [r3, #20]
			data[14] = charger_configGet.max_current;
 8005836:	f88d 2016 	strb.w	r2, [sp, #22]
			data[15] = charger_configGet.energyMeterModel;
 800583a:	e767      	b.n	800570c <CSMS_functions+0x394>
		if(CSMS_Queue.ActiveMask == 0)
 800583c:	8811      	ldrh	r1, [r2, #0]
	for(uint8_t i = 0; i < CSMS_QUEUE_SIZE; i++)
 800583e:	3301      	adds	r3, #1
		if(CSMS_Queue.ActiveMask == 0)
 8005840:	b289      	uxth	r1, r1
 8005842:	2900      	cmp	r1, #0
 8005844:	bf08      	it	eq
 8005846:	4630      	moveq	r0, r6
	for(uint8_t i = 0; i < CSMS_QUEUE_SIZE; i++)
 8005848:	2b10      	cmp	r3, #16
 800584a:	f47f ae62 	bne.w	8005512 <CSMS_functions+0x19a>
 800584e:	4d1b      	ldr	r5, [pc, #108]	@ (80058bc <CSMS_functions+0x544>)
 8005850:	b108      	cbz	r0, 8005856 <CSMS_functions+0x4de>
 8005852:	2300      	movs	r3, #0
 8005854:	702b      	strb	r3, [r5, #0]
	CSMS_Queue.ActiveMask |= (1 << index);
 8005856:	2001      	movs	r0, #1
 8005858:	782b      	ldrb	r3, [r5, #0]
 800585a:	8816      	ldrh	r6, [r2, #0]
 800585c:	fa00 f103 	lsl.w	r1, r0, r3
 8005860:	4331      	orrs	r1, r6
		CSMS_Queue.TxData[index][i] = data[i];
 8005862:	2664      	movs	r6, #100	@ 0x64
	CSMS_Queue.ActiveMask |= (1 << index);
 8005864:	b289      	uxth	r1, r1
 8005866:	8011      	strh	r1, [r2, #0]
	CSMS_Queue.ID[index] = id;
 8005868:	18d1      	adds	r1, r2, r3
 800586a:	7488      	strb	r0, [r1, #18]
 800586c:	2100      	movs	r1, #0
		CSMS_Queue.TxData[index][i] = data[i];
 800586e:	fb06 2603 	mla	r6, r6, r3, r2
 8005872:	a802      	add	r0, sp, #8
 8005874:	f810 7b01 	ldrb.w	r7, [r0], #1
 8005878:	eb06 0c01 	add.w	ip, r6, r1
 800587c:	f88c 7022 	strb.w	r7, [ip, #34]	@ 0x22
		if((data[i-1] == '*') && (data[i] == '\n'))
 8005880:	f810 cc02 	ldrb.w	ip, [r0, #-2]
 8005884:	3101      	adds	r1, #1
 8005886:	f1bc 0f2a 	cmp.w	ip, #42	@ 0x2a
 800588a:	d10b      	bne.n	80058a4 <CSMS_functions+0x52c>
 800588c:	2f0a      	cmp	r7, #10
 800588e:	d109      	bne.n	80058a4 <CSMS_functions+0x52c>
			CSMS_Queue.Length[index] = (i + 1);
 8005890:	b2c9      	uxtb	r1, r1
 8005892:	441a      	add	r2, r3
 8005894:	7091      	strb	r1, [r2, #2]
	index++;
 8005896:	3301      	adds	r3, #1
 8005898:	b2db      	uxtb	r3, r3
	if((index >= CSMS_QUEUE_SIZE))
 800589a:	2b0f      	cmp	r3, #15
	index++;
 800589c:	702b      	strb	r3, [r5, #0]
	if((index >= CSMS_QUEUE_SIZE))
 800589e:	f63f ae44 	bhi.w	800552a <CSMS_functions+0x1b2>
 80058a2:	e645      	b.n	8005530 <CSMS_functions+0x1b8>
	for(uint8_t i = 0; i < *length; i++) // fill data
 80058a4:	291e      	cmp	r1, #30
 80058a6:	d1e5      	bne.n	8005874 <CSMS_functions+0x4fc>
 80058a8:	e7f5      	b.n	8005896 <CSMS_functions+0x51e>
 80058aa:	bf00      	nop
 80058ac:	20000090 	.word	0x20000090
 80058b0:	2000116c 	.word	0x2000116c
 80058b4:	20001194 	.word	0x20001194
 80058b8:	200011b0 	.word	0x200011b0
 80058bc:	200009e4 	.word	0x200009e4

080058c0 <GetPage>:
 *
 * @param Address The memory address to calculate the page.
 * @return The start address of the Flash page containing the given address.
 */
static uint32_t GetPage(uint32_t Address)
{
 80058c0:	4602      	mov	r2, r0
 80058c2:	f04f 6300 	mov.w	r3, #134217728	@ 0x8000000
    for (int indx = 0; indx < 128; indx++)
 80058c6:	4906      	ldr	r1, [pc, #24]	@ (80058e0 <GetPage+0x20>)
    {
        if ((Address < (0x08000000 + (FLASH_PAGE_SIZE * (indx + 1)))) &&
 80058c8:	4618      	mov	r0, r3
 80058ca:	f503 6380 	add.w	r3, r3, #1024	@ 0x400
 80058ce:	429a      	cmp	r2, r3
 80058d0:	d201      	bcs.n	80058d6 <GetPage+0x16>
 80058d2:	4282      	cmp	r2, r0
 80058d4:	d202      	bcs.n	80058dc <GetPage+0x1c>
    for (int indx = 0; indx < 128; indx++)
 80058d6:	428b      	cmp	r3, r1
 80058d8:	d1f6      	bne.n	80058c8 <GetPage+0x8>
            (Address >= (0x08000000 + FLASH_PAGE_SIZE * indx)))
        {
            return (0x08000000 + FLASH_PAGE_SIZE * indx);
        }
    }
    return 0;
 80058da:	2000      	movs	r0, #0
}
 80058dc:	4770      	bx	lr
 80058de:	bf00      	nop
 80058e0:	08020000 	.word	0x08020000

080058e4 <Write_Data>:
 * @param Data Pointer to the data buffer to be written.
 * @param WordSize The size of the data buffer in words.
 * @return 0 on success, or an error code from `HAL_FLASH_GetError()` on failure.
 */
uint32_t Write_Data(uint32_t StartAddress, uint32_t *Data, uint16_t WordSize)
{
 80058e4:	b5f7      	push	{r0, r1, r2, r4, r5, r6, r7, lr}
 80058e6:	4605      	mov	r5, r0
 80058e8:	4616      	mov	r6, r2
 80058ea:	460f      	mov	r7, r1
    static FLASH_EraseInitTypeDef EraseInitStruct;
    uint32_t PAGEError;
    int sofar = 0;

    /* Unlock the Flash memory for write access. */
    HAL_FLASH_Unlock();
 80058ec:	f003 fd50 	bl	8009390 <HAL_FLASH_Unlock>

    /* Calculate the start and end Flash pages. */
    uint32_t StartPage = GetPage(StartAddress);
 80058f0:	4628      	mov	r0, r5
 80058f2:	f7ff ffe5 	bl	80058c0 <GetPage>
 80058f6:	4604      	mov	r4, r0
    uint32_t EndPageAddress = StartAddress + WordSize * 4;
    uint32_t EndPage = GetPage(EndPageAddress);
 80058f8:	eb05 0086 	add.w	r0, r5, r6, lsl #2
 80058fc:	f7ff ffe0 	bl	80058c0 <GetPage>
 8005900:	4603      	mov	r3, r0

    /* Configure Flash page erase settings. */
    EraseInitStruct.TypeErase = FLASH_TYPEERASE_PAGES;
 8005902:	2200      	movs	r2, #0
    EraseInitStruct.PageAddress = StartPage;
    EraseInitStruct.NbPages = ((EndPage - StartPage) / FLASH_PAGE_SIZE) + 1;
 8005904:	1b1b      	subs	r3, r3, r4
    EraseInitStruct.TypeErase = FLASH_TYPEERASE_PAGES;
 8005906:	4810      	ldr	r0, [pc, #64]	@ (8005948 <Write_Data+0x64>)
    EraseInitStruct.NbPages = ((EndPage - StartPage) / FLASH_PAGE_SIZE) + 1;
 8005908:	0a9b      	lsrs	r3, r3, #10
 800590a:	3301      	adds	r3, #1

    /* Erase the specified Flash pages. */
    if (HAL_FLASHEx_Erase(&EraseInitStruct, &PAGEError) != HAL_OK)
 800590c:	a901      	add	r1, sp, #4
    EraseInitStruct.PageAddress = StartPage;
 800590e:	6084      	str	r4, [r0, #8]
    EraseInitStruct.TypeErase = FLASH_TYPEERASE_PAGES;
 8005910:	6002      	str	r2, [r0, #0]
    EraseInitStruct.NbPages = ((EndPage - StartPage) / FLASH_PAGE_SIZE) + 1;
 8005912:	60c3      	str	r3, [r0, #12]
    if (HAL_FLASHEx_Erase(&EraseInitStruct, &PAGEError) != HAL_OK)
 8005914:	f003 fdec 	bl	80094f0 <HAL_FLASHEx_Erase>
 8005918:	4604      	mov	r4, r0
 800591a:	b160      	cbz	r0, 8005936 <Write_Data+0x52>
            sofar++;
        }
        else
        {
            /* Error occurred during Flash programming. */
            return HAL_FLASH_GetError();
 800591c:	f003 fd54 	bl	80093c8 <HAL_FLASH_GetError>

    /* Lock the Flash memory to prevent further modification. */
    HAL_FLASH_Lock();

    return 0;
}
 8005920:	b003      	add	sp, #12
 8005922:	bdf0      	pop	{r4, r5, r6, r7, pc}
        if (HAL_FLASH_Program(FLASH_TYPEPROGRAM_WORD, StartAddress, Data[sofar]) == HAL_OK)
 8005924:	2300      	movs	r3, #0
 8005926:	2002      	movs	r0, #2
 8005928:	f857 2024 	ldr.w	r2, [r7, r4, lsl #2]
 800592c:	f003 fd7c 	bl	8009428 <HAL_FLASH_Program>
 8005930:	2800      	cmp	r0, #0
 8005932:	d1f3      	bne.n	800591c <Write_Data+0x38>
            sofar++;
 8005934:	3401      	adds	r4, #1
    while (sofar < WordSize)
 8005936:	42a6      	cmp	r6, r4
 8005938:	eb05 0184 	add.w	r1, r5, r4, lsl #2
 800593c:	dcf2      	bgt.n	8005924 <Write_Data+0x40>
    HAL_FLASH_Lock();
 800593e:	f003 fd39 	bl	80093b4 <HAL_FLASH_Lock>
    return 0;
 8005942:	2000      	movs	r0, #0
 8005944:	e7ec      	b.n	8005920 <Write_Data+0x3c>
 8005946:	bf00      	nop
 8005948:	200010e0 	.word	0x200010e0

0800594c <Flag_up>:
 * @details Writes the OTA update flag to Flash memory and triggers a system reset.
 */
void Flag_up()
{
    uint32_t Data[1];
    Data[0] = 0x10;
 800594c:	2310      	movs	r3, #16
{
 800594e:	b507      	push	{r0, r1, r2, lr}
    Write_Data(CONFIGURATION_LOCATION, Data, 1);
 8005950:	2201      	movs	r2, #1
 8005952:	a901      	add	r1, sp, #4
 8005954:	4804      	ldr	r0, [pc, #16]	@ (8005968 <Flag_up+0x1c>)
    Data[0] = 0x10;
 8005956:	9301      	str	r3, [sp, #4]
    Write_Data(CONFIGURATION_LOCATION, Data, 1);
 8005958:	f7ff ffc4 	bl	80058e4 <Write_Data>
    HAL_NVIC_SystemReset();
}
 800595c:	b003      	add	sp, #12
 800595e:	f85d eb04 	ldr.w	lr, [sp], #4
    HAL_NVIC_SystemReset();
 8005962:	f003 bb61 	b.w	8009028 <HAL_NVIC_SystemReset>
 8005966:	bf00      	nop
 8005968:	08002c00 	.word	0x08002c00

0800596c <EEPROM_Erase>:
 *
 * @param address The starting address of the Flash memory page to erase.
 * @param size The number of pages to erase (currently set to 1 in the implementation).
 */
void EEPROM_Erase(uint32_t address, uint32_t size)
{
 800596c:	b510      	push	{r4, lr}
 800596e:	b086      	sub	sp, #24
 8005970:	4604      	mov	r4, r0
    HAL_FLASH_Unlock();
 8005972:	f003 fd0d 	bl	8009390 <HAL_FLASH_Unlock>
    Flash_Init();

    FLASH_EraseInitTypeDef eraseInitStruct;
    eraseInitStruct.TypeErase = TYPEERASE_PAGES;
 8005976:	2300      	movs	r3, #0
 8005978:	9302      	str	r3, [sp, #8]
    eraseInitStruct.PageAddress = address; /**< Specify the start address of the page. */
    eraseInitStruct.NbPages = 1; /**< Specify the number of pages to erase. */
 800597a:	2301      	movs	r3, #1

    uint32_t error;

    HAL_FLASHEx_Erase(&eraseInitStruct, &error);
 800597c:	a901      	add	r1, sp, #4
 800597e:	a802      	add	r0, sp, #8
    eraseInitStruct.NbPages = 1; /**< Specify the number of pages to erase. */
 8005980:	9305      	str	r3, [sp, #20]
    eraseInitStruct.PageAddress = address; /**< Specify the start address of the page. */
 8005982:	9404      	str	r4, [sp, #16]
    HAL_FLASHEx_Erase(&eraseInitStruct, &error);
 8005984:	f003 fdb4 	bl	80094f0 <HAL_FLASHEx_Erase>

    HAL_FLASH_Lock();
 8005988:	f003 fd14 	bl	80093b4 <HAL_FLASH_Lock>
}
 800598c:	b006      	add	sp, #24
 800598e:	bd10      	pop	{r4, pc}

08005990 <EEPROM_WriteData>:
 * @param address The starting address to write the data.
 * @param data Pointer to the data buffer containing the data to be written.
 * @param size The number of 16-bit words to write.
 */
void EEPROM_WriteData(uint32_t address, uint16_t *data, uint16_t size)
{
 8005990:	b570      	push	{r4, r5, r6, lr}
 8005992:	460c      	mov	r4, r1
 8005994:	4606      	mov	r6, r0
 8005996:	4615      	mov	r5, r2
    HAL_FLASH_Unlock();
 8005998:	f003 fcfa 	bl	8009390 <HAL_FLASH_Unlock>
    Flash_Init();

    for (uint16_t i = 0; i < size; i++)
 800599c:	eb04 0545 	add.w	r5, r4, r5, lsl #1
 80059a0:	1b36      	subs	r6, r6, r4
 80059a2:	42ac      	cmp	r4, r5
 80059a4:	eb04 0106 	add.w	r1, r4, r6
 80059a8:	d103      	bne.n	80059b2 <EEPROM_WriteData+0x22>
        HAL_FLASH_Program(FLASH_TYPEPROGRAM_HALFWORD, address, data[i]);
        address += 2; // Increment by the word size (16 bits).
    }

    HAL_FLASH_Lock();
}
 80059aa:	e8bd 4070 	ldmia.w	sp!, {r4, r5, r6, lr}
    HAL_FLASH_Lock();
 80059ae:	f003 bd01 	b.w	80093b4 <HAL_FLASH_Lock>
        HAL_FLASH_Program(FLASH_TYPEPROGRAM_HALFWORD, address, data[i]);
 80059b2:	2300      	movs	r3, #0
 80059b4:	f834 2b02 	ldrh.w	r2, [r4], #2
 80059b8:	2001      	movs	r0, #1
 80059ba:	f003 fd35 	bl	8009428 <HAL_FLASH_Program>
    for (uint16_t i = 0; i < size; i++)
 80059be:	e7f0      	b.n	80059a2 <EEPROM_WriteData+0x12>

080059c0 <EEPROM_ReadData>:
 * @param data Pointer to the buffer where the read data will be stored.
 * @param size The number of 16-bit words to read.
 */
void EEPROM_ReadData(uint32_t address, uint16_t *data, uint32_t size)
{
    for (uint32_t i = 0; i < size; i++)
 80059c0:	eb01 0242 	add.w	r2, r1, r2, lsl #1
    {
        data[i] = *(__IO uint16_t*) address;
 80059c4:	1a40      	subs	r0, r0, r1
    for (uint32_t i = 0; i < size; i++)
 80059c6:	4291      	cmp	r1, r2
 80059c8:	d100      	bne.n	80059cc <EEPROM_ReadData+0xc>
        address += 2; // Increment by the word size (16 bits).
    }
}
 80059ca:	4770      	bx	lr
        data[i] = *(__IO uint16_t*) address;
 80059cc:	5a43      	ldrh	r3, [r0, r1]
 80059ce:	f821 3b02 	strh.w	r3, [r1], #2
    for (uint32_t i = 0; i < size; i++)
 80059d2:	e7f8      	b.n	80059c6 <EEPROM_ReadData+0x6>

080059d4 <MX_ADC1_Init>:
ADC_HandleTypeDef hadc1;
DMA_HandleTypeDef hdma_adc1;

/* ADC1 init function */
void MX_ADC1_Init(void)
{
 80059d4:	b51f      	push	{r0, r1, r2, r3, r4, lr}

  /* USER CODE END ADC1_Init 1 */

  /** Common config
  */
  hadc1.Instance = ADC1;
 80059d6:	4837      	ldr	r0, [pc, #220]	@ (8005ab4 <MX_ADC1_Init+0xe0>)
 80059d8:	4a37      	ldr	r2, [pc, #220]	@ (8005ab8 <MX_ADC1_Init+0xe4>)
  ADC_ChannelConfTypeDef sConfig = {0};
 80059da:	2300      	movs	r3, #0
  hadc1.Instance = ADC1;
 80059dc:	6002      	str	r2, [r0, #0]
  hadc1.Init.ScanConvMode = ADC_SCAN_ENABLE;
 80059de:	f44f 7280 	mov.w	r2, #256	@ 0x100
  hadc1.Init.ContinuousConvMode = ENABLE;
 80059e2:	2401      	movs	r4, #1
  ADC_ChannelConfTypeDef sConfig = {0};
 80059e4:	e9cd 3301 	strd	r3, r3, [sp, #4]
 80059e8:	9303      	str	r3, [sp, #12]
  hadc1.Init.ScanConvMode = ADC_SCAN_ENABLE;
 80059ea:	6082      	str	r2, [r0, #8]
  hadc1.Init.DiscontinuousConvMode = DISABLE;
 80059ec:	7503      	strb	r3, [r0, #20]
  hadc1.Init.ExternalTrigConv = ADC_SOFTWARE_START;
 80059ee:	f44f 2260 	mov.w	r2, #917504	@ 0xe0000
  hadc1.Init.DataAlign = ADC_DATAALIGN_RIGHT;
 80059f2:	6043      	str	r3, [r0, #4]
  hadc1.Init.NbrOfConversion = 7;
 80059f4:	2307      	movs	r3, #7
  hadc1.Init.ContinuousConvMode = ENABLE;
 80059f6:	7304      	strb	r4, [r0, #12]
  hadc1.Init.ExternalTrigConv = ADC_SOFTWARE_START;
 80059f8:	61c2      	str	r2, [r0, #28]
  hadc1.Init.NbrOfConversion = 7;
 80059fa:	6103      	str	r3, [r0, #16]
  if (HAL_ADC_Init(&hadc1) != HAL_OK)
 80059fc:	f003 f9d4 	bl	8008da8 <HAL_ADC_Init>
 8005a00:	b108      	cbz	r0, 8005a06 <MX_ADC1_Init+0x32>
  {
    Error_Handler();
 8005a02:	f001 f9c5 	bl	8006d90 <Error_Handler>
  }

  /** Configure Regular Channel
  */
  sConfig.Channel = ADC_CHANNEL_4;
 8005a06:	2304      	movs	r3, #4
  sConfig.Rank = ADC_REGULAR_RANK_1;
  sConfig.SamplingTime = ADC_SAMPLETIME_7CYCLES_5;
  if (HAL_ADC_ConfigChannel(&hadc1, &sConfig) != HAL_OK)
 8005a08:	482a      	ldr	r0, [pc, #168]	@ (8005ab4 <MX_ADC1_Init+0xe0>)
 8005a0a:	eb0d 0103 	add.w	r1, sp, r3
  sConfig.Rank = ADC_REGULAR_RANK_1;
 8005a0e:	e9cd 3401 	strd	r3, r4, [sp, #4]
  sConfig.SamplingTime = ADC_SAMPLETIME_7CYCLES_5;
 8005a12:	9403      	str	r4, [sp, #12]
  if (HAL_ADC_ConfigChannel(&hadc1, &sConfig) != HAL_OK)
 8005a14:	f003 f85a 	bl	8008acc <HAL_ADC_ConfigChannel>
 8005a18:	b108      	cbz	r0, 8005a1e <MX_ADC1_Init+0x4a>
  {
    Error_Handler();
 8005a1a:	f001 f9b9 	bl	8006d90 <Error_Handler>
  }

  /** Configure Regular Channel
  */
  sConfig.Channel = ADC_CHANNEL_5;
  sConfig.Rank = ADC_REGULAR_RANK_2;
 8005a1e:	f04f 0e05 	mov.w	lr, #5
 8005a22:	2302      	movs	r3, #2
  if (HAL_ADC_ConfigChannel(&hadc1, &sConfig) != HAL_OK)
 8005a24:	4823      	ldr	r0, [pc, #140]	@ (8005ab4 <MX_ADC1_Init+0xe0>)
 8005a26:	a901      	add	r1, sp, #4
  sConfig.Rank = ADC_REGULAR_RANK_2;
 8005a28:	e9cd e301 	strd	lr, r3, [sp, #4]
  if (HAL_ADC_ConfigChannel(&hadc1, &sConfig) != HAL_OK)
 8005a2c:	f003 f84e 	bl	8008acc <HAL_ADC_ConfigChannel>
 8005a30:	b108      	cbz	r0, 8005a36 <MX_ADC1_Init+0x62>
  {
    Error_Handler();
 8005a32:	f001 f9ad 	bl	8006d90 <Error_Handler>
  }

  /** Configure Regular Channel
  */
  sConfig.Channel = ADC_CHANNEL_6;
  sConfig.Rank = ADC_REGULAR_RANK_3;
 8005a36:	f04f 0c06 	mov.w	ip, #6
 8005a3a:	2303      	movs	r3, #3
  if (HAL_ADC_ConfigChannel(&hadc1, &sConfig) != HAL_OK)
 8005a3c:	481d      	ldr	r0, [pc, #116]	@ (8005ab4 <MX_ADC1_Init+0xe0>)
 8005a3e:	a901      	add	r1, sp, #4
  sConfig.Rank = ADC_REGULAR_RANK_3;
 8005a40:	e9cd c301 	strd	ip, r3, [sp, #4]
  if (HAL_ADC_ConfigChannel(&hadc1, &sConfig) != HAL_OK)
 8005a44:	f003 f842 	bl	8008acc <HAL_ADC_ConfigChannel>
 8005a48:	b108      	cbz	r0, 8005a4e <MX_ADC1_Init+0x7a>
  {
    Error_Handler();
 8005a4a:	f001 f9a1 	bl	8006d90 <Error_Handler>
  }

  /** Configure Regular Channel
  */
  sConfig.Channel = ADC_CHANNEL_8;
  sConfig.Rank = ADC_REGULAR_RANK_4;
 8005a4e:	2304      	movs	r3, #4
 8005a50:	2408      	movs	r4, #8
 8005a52:	e9cd 4301 	strd	r4, r3, [sp, #4]
  sConfig.SamplingTime = ADC_SAMPLETIME_28CYCLES_5;
 8005a56:	2303      	movs	r3, #3
  if (HAL_ADC_ConfigChannel(&hadc1, &sConfig) != HAL_OK)
 8005a58:	4816      	ldr	r0, [pc, #88]	@ (8005ab4 <MX_ADC1_Init+0xe0>)
 8005a5a:	a901      	add	r1, sp, #4
  sConfig.SamplingTime = ADC_SAMPLETIME_28CYCLES_5;
 8005a5c:	9303      	str	r3, [sp, #12]
  if (HAL_ADC_ConfigChannel(&hadc1, &sConfig) != HAL_OK)
 8005a5e:	f003 f835 	bl	8008acc <HAL_ADC_ConfigChannel>
 8005a62:	b108      	cbz	r0, 8005a68 <MX_ADC1_Init+0x94>
  {
    Error_Handler();
 8005a64:	f001 f994 	bl	8006d90 <Error_Handler>
  }

  /** Configure Regular Channel
  */
  sConfig.Channel = ADC_CHANNEL_10;
  sConfig.Rank = ADC_REGULAR_RANK_5;
 8005a68:	200a      	movs	r0, #10
 8005a6a:	2305      	movs	r3, #5
 8005a6c:	e9cd 0301 	strd	r0, r3, [sp, #4]
  sConfig.SamplingTime = ADC_SAMPLETIME_7CYCLES_5;
 8005a70:	2301      	movs	r3, #1
  if (HAL_ADC_ConfigChannel(&hadc1, &sConfig) != HAL_OK)
 8005a72:	4810      	ldr	r0, [pc, #64]	@ (8005ab4 <MX_ADC1_Init+0xe0>)
 8005a74:	a901      	add	r1, sp, #4
  sConfig.SamplingTime = ADC_SAMPLETIME_7CYCLES_5;
 8005a76:	9303      	str	r3, [sp, #12]
  if (HAL_ADC_ConfigChannel(&hadc1, &sConfig) != HAL_OK)
 8005a78:	f003 f828 	bl	8008acc <HAL_ADC_ConfigChannel>
 8005a7c:	b108      	cbz	r0, 8005a82 <MX_ADC1_Init+0xae>
  {
    Error_Handler();
 8005a7e:	f001 f987 	bl	8006d90 <Error_Handler>
  }

  /** Configure Regular Channel
  */
  sConfig.Channel = ADC_CHANNEL_TEMPSENSOR;
  sConfig.Rank = ADC_REGULAR_RANK_6;
 8005a82:	2110      	movs	r1, #16
 8005a84:	2306      	movs	r3, #6
  if (HAL_ADC_ConfigChannel(&hadc1, &sConfig) != HAL_OK)
 8005a86:	480b      	ldr	r0, [pc, #44]	@ (8005ab4 <MX_ADC1_Init+0xe0>)
  sConfig.Rank = ADC_REGULAR_RANK_6;
 8005a88:	e9cd 1301 	strd	r1, r3, [sp, #4]
  if (HAL_ADC_ConfigChannel(&hadc1, &sConfig) != HAL_OK)
 8005a8c:	a901      	add	r1, sp, #4
 8005a8e:	f003 f81d 	bl	8008acc <HAL_ADC_ConfigChannel>
 8005a92:	b108      	cbz	r0, 8005a98 <MX_ADC1_Init+0xc4>
  {
    Error_Handler();
 8005a94:	f001 f97c 	bl	8006d90 <Error_Handler>
  }

  /** Configure Regular Channel
  */
  sConfig.Channel = ADC_CHANNEL_VREFINT;
  sConfig.Rank = ADC_REGULAR_RANK_7;
 8005a98:	2307      	movs	r3, #7
 8005a9a:	2211      	movs	r2, #17
  sConfig.SamplingTime = ADC_SAMPLETIME_239CYCLES_5;
  if (HAL_ADC_ConfigChannel(&hadc1, &sConfig) != HAL_OK)
 8005a9c:	4805      	ldr	r0, [pc, #20]	@ (8005ab4 <MX_ADC1_Init+0xe0>)
 8005a9e:	a901      	add	r1, sp, #4
  sConfig.Rank = ADC_REGULAR_RANK_7;
 8005aa0:	e9cd 2301 	strd	r2, r3, [sp, #4]
  sConfig.SamplingTime = ADC_SAMPLETIME_239CYCLES_5;
 8005aa4:	9303      	str	r3, [sp, #12]
  if (HAL_ADC_ConfigChannel(&hadc1, &sConfig) != HAL_OK)
 8005aa6:	f003 f811 	bl	8008acc <HAL_ADC_ConfigChannel>
 8005aaa:	b108      	cbz	r0, 8005ab0 <MX_ADC1_Init+0xdc>
  {
    Error_Handler();
 8005aac:	f001 f970 	bl	8006d90 <Error_Handler>
  }
  /* USER CODE BEGIN ADC1_Init 2 */

  /* USER CODE END ADC1_Init 2 */

}
 8005ab0:	b004      	add	sp, #16
 8005ab2:	bd10      	pop	{r4, pc}
 8005ab4:	20001138 	.word	0x20001138
 8005ab8:	40012400 	.word	0x40012400

08005abc <HAL_ADC_MspInit>:

void HAL_ADC_MspInit(ADC_HandleTypeDef* adcHandle)
{

  GPIO_InitTypeDef GPIO_InitStruct = {0};
 8005abc:	2210      	movs	r2, #16
{
 8005abe:	b570      	push	{r4, r5, r6, lr}
 8005ac0:	4605      	mov	r5, r0
 8005ac2:	b088      	sub	sp, #32
  GPIO_InitTypeDef GPIO_InitStruct = {0};
 8005ac4:	eb0d 0002 	add.w	r0, sp, r2
 8005ac8:	2100      	movs	r1, #0
 8005aca:	f005 fbb9 	bl	800b240 <memset>
  if(adcHandle->Instance==ADC1)
 8005ace:	682a      	ldr	r2, [r5, #0]
 8005ad0:	4b31      	ldr	r3, [pc, #196]	@ (8005b98 <HAL_ADC_MspInit+0xdc>)
 8005ad2:	429a      	cmp	r2, r3
 8005ad4:	d15d      	bne.n	8005b92 <HAL_ADC_MspInit+0xd6>
  {
  /* USER CODE BEGIN ADC1_MspInit 0 */

  /* USER CODE END ADC1_MspInit 0 */
    /* ADC1 clock enable */
    __HAL_RCC_ADC1_CLK_ENABLE();
 8005ad6:	f503 436c 	add.w	r3, r3, #60416	@ 0xec00
 8005ada:	699a      	ldr	r2, [r3, #24]
    PA5     ------> ADC1_IN5
    PA6     ------> ADC1_IN6
    PB0     ------> ADC1_IN8
    */
    GPIO_InitStruct.Pin = EARTH_SENSE_Pin;
    GPIO_InitStruct.Mode = GPIO_MODE_ANALOG;
 8005adc:	2403      	movs	r4, #3
 8005ade:	2601      	movs	r6, #1
    __HAL_RCC_ADC1_CLK_ENABLE();
 8005ae0:	f442 7200 	orr.w	r2, r2, #512	@ 0x200
 8005ae4:	619a      	str	r2, [r3, #24]
 8005ae6:	699a      	ldr	r2, [r3, #24]
    HAL_GPIO_Init(EARTH_SENSE_GPIO_Port, &GPIO_InitStruct);
 8005ae8:	482c      	ldr	r0, [pc, #176]	@ (8005b9c <HAL_ADC_MspInit+0xe0>)
    __HAL_RCC_ADC1_CLK_ENABLE();
 8005aea:	f402 7200 	and.w	r2, r2, #512	@ 0x200
 8005aee:	9200      	str	r2, [sp, #0]
 8005af0:	9a00      	ldr	r2, [sp, #0]
    __HAL_RCC_GPIOC_CLK_ENABLE();
 8005af2:	699a      	ldr	r2, [r3, #24]
    HAL_GPIO_Init(EARTH_SENSE_GPIO_Port, &GPIO_InitStruct);
 8005af4:	a904      	add	r1, sp, #16
    __HAL_RCC_GPIOC_CLK_ENABLE();
 8005af6:	f042 0210 	orr.w	r2, r2, #16
 8005afa:	619a      	str	r2, [r3, #24]
 8005afc:	699a      	ldr	r2, [r3, #24]
 8005afe:	f002 0210 	and.w	r2, r2, #16
 8005b02:	9201      	str	r2, [sp, #4]
 8005b04:	9a01      	ldr	r2, [sp, #4]
    __HAL_RCC_GPIOA_CLK_ENABLE();
 8005b06:	699a      	ldr	r2, [r3, #24]
 8005b08:	f042 0204 	orr.w	r2, r2, #4
 8005b0c:	619a      	str	r2, [r3, #24]
 8005b0e:	699a      	ldr	r2, [r3, #24]
 8005b10:	f002 0204 	and.w	r2, r2, #4
 8005b14:	9202      	str	r2, [sp, #8]
 8005b16:	9a02      	ldr	r2, [sp, #8]
    __HAL_RCC_GPIOB_CLK_ENABLE();
 8005b18:	699a      	ldr	r2, [r3, #24]
 8005b1a:	f042 0208 	orr.w	r2, r2, #8
 8005b1e:	619a      	str	r2, [r3, #24]
 8005b20:	699b      	ldr	r3, [r3, #24]
    GPIO_InitStruct.Mode = GPIO_MODE_ANALOG;
 8005b22:	e9cd 6404 	strd	r6, r4, [sp, #16]
    __HAL_RCC_GPIOB_CLK_ENABLE();
 8005b26:	f003 0308 	and.w	r3, r3, #8
 8005b2a:	9303      	str	r3, [sp, #12]
 8005b2c:	9b03      	ldr	r3, [sp, #12]
    HAL_GPIO_Init(EARTH_SENSE_GPIO_Port, &GPIO_InitStruct);
 8005b2e:	f003 fd33 	bl	8009598 <HAL_GPIO_Init>

    GPIO_InitStruct.Pin = BOARD_NTC_Pin|GPIO_PIN_5|GPIO_PIN_6;
 8005b32:	2370      	movs	r3, #112	@ 0x70
    GPIO_InitStruct.Mode = GPIO_MODE_ANALOG;
    HAL_GPIO_Init(GPIOA, &GPIO_InitStruct);
 8005b34:	481a      	ldr	r0, [pc, #104]	@ (8005ba0 <HAL_ADC_MspInit+0xe4>)
 8005b36:	a904      	add	r1, sp, #16
    GPIO_InitStruct.Mode = GPIO_MODE_ANALOG;
 8005b38:	e9cd 3404 	strd	r3, r4, [sp, #16]
    HAL_GPIO_Init(GPIOA, &GPIO_InitStruct);
 8005b3c:	f003 fd2c 	bl	8009598 <HAL_GPIO_Init>

    GPIO_InitStruct.Pin = CP_READ_Pin;
    GPIO_InitStruct.Mode = GPIO_MODE_ANALOG;
    HAL_GPIO_Init(CP_READ_GPIO_Port, &GPIO_InitStruct);
 8005b40:	4818      	ldr	r0, [pc, #96]	@ (8005ba4 <HAL_ADC_MspInit+0xe8>)
 8005b42:	a904      	add	r1, sp, #16
    GPIO_InitStruct.Mode = GPIO_MODE_ANALOG;
 8005b44:	e9cd 6404 	strd	r6, r4, [sp, #16]
    HAL_GPIO_Init(CP_READ_GPIO_Port, &GPIO_InitStruct);
 8005b48:	f003 fd26 	bl	8009598 <HAL_GPIO_Init>

    /* ADC1 DMA Init */
    /* ADC1 Init */
    hdma_adc1.Instance = DMA1_Channel1;
    hdma_adc1.Init.Direction = DMA_PERIPH_TO_MEMORY;
 8005b4c:	2300      	movs	r3, #0
    hdma_adc1.Instance = DMA1_Channel1;
 8005b4e:	4c16      	ldr	r4, [pc, #88]	@ (8005ba8 <HAL_ADC_MspInit+0xec>)
    hdma_adc1.Init.Direction = DMA_PERIPH_TO_MEMORY;
 8005b50:	4a16      	ldr	r2, [pc, #88]	@ (8005bac <HAL_ADC_MspInit+0xf0>)
    hdma_adc1.Init.PeriphInc = DMA_PINC_DISABLE;
    hdma_adc1.Init.MemInc = DMA_MINC_ENABLE;
    hdma_adc1.Init.PeriphDataAlignment = DMA_PDATAALIGN_HALFWORD;
 8005b52:	2180      	movs	r1, #128	@ 0x80
    hdma_adc1.Init.Direction = DMA_PERIPH_TO_MEMORY;
 8005b54:	e9c4 2300 	strd	r2, r3, [r4]
    hdma_adc1.Init.PeriphInc = DMA_PINC_DISABLE;
 8005b58:	60a3      	str	r3, [r4, #8]
    hdma_adc1.Init.PeriphDataAlignment = DMA_PDATAALIGN_HALFWORD;
 8005b5a:	f44f 7380 	mov.w	r3, #256	@ 0x100
    hdma_adc1.Init.MemDataAlignment = DMA_MDATAALIGN_HALFWORD;
    hdma_adc1.Init.Mode = DMA_CIRCULAR;
 8005b5e:	f44f 6080 	mov.w	r0, #1024	@ 0x400
    hdma_adc1.Init.PeriphDataAlignment = DMA_PDATAALIGN_HALFWORD;
 8005b62:	e9c4 1303 	strd	r1, r3, [r4, #12]
    hdma_adc1.Init.Mode = DMA_CIRCULAR;
 8005b66:	2320      	movs	r3, #32
 8005b68:	e9c4 0305 	strd	r0, r3, [r4, #20]
    hdma_adc1.Init.Priority = DMA_PRIORITY_VERY_HIGH;
 8005b6c:	f44f 5340 	mov.w	r3, #12288	@ 0x3000
    if (HAL_DMA_Init(&hdma_adc1) != HAL_OK)
 8005b70:	4620      	mov	r0, r4
    hdma_adc1.Init.Priority = DMA_PRIORITY_VERY_HIGH;
 8005b72:	61e3      	str	r3, [r4, #28]
    if (HAL_DMA_Init(&hdma_adc1) != HAL_OK)
 8005b74:	f003 fa7e 	bl	8009074 <HAL_DMA_Init>
 8005b78:	b108      	cbz	r0, 8005b7e <HAL_ADC_MspInit+0xc2>
    {
      Error_Handler();
 8005b7a:	f001 f909 	bl	8006d90 <Error_Handler>
    }

    __HAL_LINKDMA(adcHandle,DMA_Handle,hdma_adc1);

    /* ADC1 interrupt Init */
    HAL_NVIC_SetPriority(ADC1_2_IRQn, 0, 0);
 8005b7e:	2200      	movs	r2, #0
 8005b80:	2012      	movs	r0, #18
    __HAL_LINKDMA(adcHandle,DMA_Handle,hdma_adc1);
 8005b82:	622c      	str	r4, [r5, #32]
    HAL_NVIC_SetPriority(ADC1_2_IRQn, 0, 0);
 8005b84:	4611      	mov	r1, r2
    __HAL_LINKDMA(adcHandle,DMA_Handle,hdma_adc1);
 8005b86:	6265      	str	r5, [r4, #36]	@ 0x24
    HAL_NVIC_SetPriority(ADC1_2_IRQn, 0, 0);
 8005b88:	f003 fa10 	bl	8008fac <HAL_NVIC_SetPriority>
    HAL_NVIC_EnableIRQ(ADC1_2_IRQn);
 8005b8c:	2012      	movs	r0, #18
 8005b8e:	f003 fa3d 	bl	800900c <HAL_NVIC_EnableIRQ>
  /* USER CODE BEGIN ADC1_MspInit 1 */

  /* USER CODE END ADC1_MspInit 1 */
  }
}
 8005b92:	b008      	add	sp, #32
 8005b94:	bd70      	pop	{r4, r5, r6, pc}
 8005b96:	bf00      	nop
 8005b98:	40012400 	.word	0x40012400
 8005b9c:	40011000 	.word	0x40011000
 8005ba0:	40010800 	.word	0x40010800
 8005ba4:	40010c00 	.word	0x40010c00
 8005ba8:	200010f4 	.word	0x200010f4
 8005bac:	40020008 	.word	0x40020008

08005bb0 <HAL_ADC_ConvCpltCallback>:
//--------------------------------------------------------------------------------
//			ADC interrupt handler - used to run CP voltage function
//--------------------------------------------------------------------------------

void HAL_ADC_ConvCpltCallback(ADC_HandleTypeDef *hadc)
{
 8005bb0:	b570      	push	{r4, r5, r6, lr}
	getCP_voltage();
 8005bb2:	f000 f8f1 	bl	8005d98 <getCP_voltage>

	VREF = ((1.2 / adc_store[6]) * 4095.0);
 8005bb6:	4b1a      	ldr	r3, [pc, #104]	@ (8005c20 <HAL_ADC_ConvCpltCallback+0x70>)
	VREF_SUM = VREF_SUM + VREF;
 8005bb8:	4d1a      	ldr	r5, [pc, #104]	@ (8005c24 <HAL_ADC_ConvCpltCallback+0x74>)
	VREF = ((1.2 / adc_store[6]) * 4095.0);
 8005bba:	8998      	ldrh	r0, [r3, #12]
	vref_count++;
 8005bbc:	4c1a      	ldr	r4, [pc, #104]	@ (8005c28 <HAL_ADC_ConvCpltCallback+0x78>)
	VREF = ((1.2 / adc_store[6]) * 4095.0);
 8005bbe:	b280      	uxth	r0, r0
 8005bc0:	f7fe f818 	bl	8003bf4 <__aeabi_i2d>
 8005bc4:	4602      	mov	r2, r0
 8005bc6:	460b      	mov	r3, r1
 8005bc8:	f04f 3033 	mov.w	r0, #858993459	@ 0x33333333
 8005bcc:	4917      	ldr	r1, [pc, #92]	@ (8005c2c <HAL_ADC_ConvCpltCallback+0x7c>)
 8005bce:	f7fe f9a5 	bl	8003f1c <__aeabi_ddiv>
 8005bd2:	a311      	add	r3, pc, #68	@ (adr r3, 8005c18 <HAL_ADC_ConvCpltCallback+0x68>)
 8005bd4:	e9d3 2300 	ldrd	r2, r3, [r3]
 8005bd8:	f7fe f876 	bl	8003cc8 <__aeabi_dmul>
 8005bdc:	f7fe fb6c 	bl	80042b8 <__aeabi_d2f>
 8005be0:	4b13      	ldr	r3, [pc, #76]	@ (8005c30 <HAL_ADC_ConvCpltCallback+0x80>)
 8005be2:	6018      	str	r0, [r3, #0]
	VREF_SUM = VREF_SUM + VREF;
 8005be4:	6828      	ldr	r0, [r5, #0]
 8005be6:	6819      	ldr	r1, [r3, #0]
 8005be8:	f7fe fbbc 	bl	8004364 <__addsf3>
 8005bec:	6028      	str	r0, [r5, #0]
	vref_count++;
 8005bee:	6823      	ldr	r3, [r4, #0]
 8005bf0:	3301      	adds	r3, #1
 8005bf2:	6023      	str	r3, [r4, #0]

	if (vref_count >= 20)
 8005bf4:	6823      	ldr	r3, [r4, #0]
 8005bf6:	2b13      	cmp	r3, #19
 8005bf8:	d90d      	bls.n	8005c16 <HAL_ADC_ConvCpltCallback+0x66>
	{
		VREF_AVG = (VREF_SUM / vref_count);
 8005bfa:	682e      	ldr	r6, [r5, #0]
 8005bfc:	6820      	ldr	r0, [r4, #0]
 8005bfe:	f7fe fc61 	bl	80044c4 <__aeabi_ui2f>
 8005c02:	4601      	mov	r1, r0
 8005c04:	4630      	mov	r0, r6
 8005c06:	f7fe fd69 	bl	80046dc <__aeabi_fdiv>
 8005c0a:	4b0a      	ldr	r3, [pc, #40]	@ (8005c34 <HAL_ADC_ConvCpltCallback+0x84>)
 8005c0c:	6018      	str	r0, [r3, #0]
		VREF_SUM = 0.0;
 8005c0e:	2300      	movs	r3, #0
 8005c10:	602b      	str	r3, [r5, #0]
		vref_count = 0;
 8005c12:	2300      	movs	r3, #0
 8005c14:	6023      	str	r3, [r4, #0]
	}


}
 8005c16:	bd70      	pop	{r4, r5, r6, pc}
 8005c18:	00000000 	.word	0x00000000
 8005c1c:	40affe00 	.word	0x40affe00
 8005c20:	200013f8 	.word	0x200013f8
 8005c24:	200013ec 	.word	0x200013ec
 8005c28:	200013e4 	.word	0x200013e4
 8005c2c:	3ff33333 	.word	0x3ff33333
 8005c30:	200013f0 	.word	0x200013f0
 8005c34:	200013e8 	.word	0x200013e8

08005c38 <get_chargerConfig>:
 *
 * @details This function reads the charger configuration data from the EEPROM at a
 *          predefined location and populates the `charger_configGet` structure.
 */
void get_chargerConfig(void)
{
 8005c38:	b510      	push	{r4, lr}
    EEPROM_ReadData(CONFIG_LOCATION, (uint16_t *)config_get, sizeof(config_get) / sizeof(config_get[0]));
 8005c3a:	4c13      	ldr	r4, [pc, #76]	@ (8005c88 <get_chargerConfig+0x50>)
 8005c3c:	2209      	movs	r2, #9
 8005c3e:	4621      	mov	r1, r4
 8005c40:	4812      	ldr	r0, [pc, #72]	@ (8005c8c <get_chargerConfig+0x54>)
 8005c42:	f7ff febd 	bl	80059c0 <EEPROM_ReadData>
    HAL_Delay(100);
 8005c46:	2064      	movs	r0, #100	@ 0x64
 8005c48:	f002 fe80 	bl	800894c <HAL_Delay>

    charger_configGet.en_1.all = config_get[0];
 8005c4c:	8822      	ldrh	r2, [r4, #0]
 8005c4e:	4b10      	ldr	r3, [pc, #64]	@ (8005c90 <get_chargerConfig+0x58>)
 8005c50:	b292      	uxth	r2, r2
 8005c52:	801a      	strh	r2, [r3, #0]
    charger_configGet.en_2.all = config_get[1];
 8005c54:	8862      	ldrh	r2, [r4, #2]
 8005c56:	b292      	uxth	r2, r2
 8005c58:	805a      	strh	r2, [r3, #2]
    charger_configGet.uv_upper = config_get[2];
 8005c5a:	88a2      	ldrh	r2, [r4, #4]
 8005c5c:	b292      	uxth	r2, r2
 8005c5e:	80da      	strh	r2, [r3, #6]
    charger_configGet.uv_lower = config_get[3];
 8005c60:	88e2      	ldrh	r2, [r4, #6]
 8005c62:	b292      	uxth	r2, r2
 8005c64:	811a      	strh	r2, [r3, #8]
    charger_configGet.ov_upper = config_get[4];
 8005c66:	8922      	ldrh	r2, [r4, #8]
 8005c68:	b292      	uxth	r2, r2
 8005c6a:	815a      	strh	r2, [r3, #10]
    charger_configGet.ov_lower = config_get[5];
 8005c6c:	8962      	ldrh	r2, [r4, #10]
 8005c6e:	b292      	uxth	r2, r2
 8005c70:	819a      	strh	r2, [r3, #12]
    charger_configGet.freq_upper = config_get[6];
 8005c72:	89a2      	ldrh	r2, [r4, #12]
 8005c74:	b292      	uxth	r2, r2
 8005c76:	81da      	strh	r2, [r3, #14]
    charger_configGet.freq_lower = config_get[7];
 8005c78:	89e2      	ldrh	r2, [r4, #14]
 8005c7a:	b292      	uxth	r2, r2
 8005c7c:	821a      	strh	r2, [r3, #16]
    charger_configGet.max_current = (config_get[8] & 0xFF);
 8005c7e:	8a22      	ldrh	r2, [r4, #16]
 8005c80:	b2d2      	uxtb	r2, r2
 8005c82:	711a      	strb	r2, [r3, #4]
}
 8005c84:	bd10      	pop	{r4, pc}
 8005c86:	bf00      	nop
 8005c88:	20001182 	.word	0x20001182
 8005c8c:	08003000 	.word	0x08003000
 8005c90:	200011b0 	.word	0x200011b0

08005c94 <set_chargerConfig>:
 *
 * @details This function updates the charger configuration data in the EEPROM at a
 *          predefined location with values from the `charger_configSet` structure.
 */
void set_chargerConfig(void)
{
 8005c94:	b538      	push	{r3, r4, r5, lr}
    config_set[0] = charger_configSet.en_1.all;
 8005c96:	4b17      	ldr	r3, [pc, #92]	@ (8005cf4 <set_chargerConfig+0x60>)
 8005c98:	4c17      	ldr	r4, [pc, #92]	@ (8005cf8 <set_chargerConfig+0x64>)
 8005c9a:	881a      	ldrh	r2, [r3, #0]
    config_set[5] = charger_configSet.ov_lower;
    config_set[6] = charger_configSet.freq_upper;
    config_set[7] = charger_configSet.freq_lower;
    config_set[8] = (uint16_t)charger_configSet.max_current;

    EEPROM_Erase(CONFIG_LOCATION, EEPROM_SIZE);
 8005c9c:	4d17      	ldr	r5, [pc, #92]	@ (8005cfc <set_chargerConfig+0x68>)
    config_set[0] = charger_configSet.en_1.all;
 8005c9e:	b292      	uxth	r2, r2
 8005ca0:	8022      	strh	r2, [r4, #0]
    config_set[1] = charger_configSet.en_2.all;
 8005ca2:	885a      	ldrh	r2, [r3, #2]
    EEPROM_Erase(CONFIG_LOCATION, EEPROM_SIZE);
 8005ca4:	4628      	mov	r0, r5
    config_set[1] = charger_configSet.en_2.all;
 8005ca6:	b292      	uxth	r2, r2
 8005ca8:	8062      	strh	r2, [r4, #2]
    config_set[2] = charger_configSet.uv_upper;
 8005caa:	88da      	ldrh	r2, [r3, #6]
    EEPROM_Erase(CONFIG_LOCATION, EEPROM_SIZE);
 8005cac:	f44f 6180 	mov.w	r1, #1024	@ 0x400
    config_set[2] = charger_configSet.uv_upper;
 8005cb0:	b292      	uxth	r2, r2
 8005cb2:	80a2      	strh	r2, [r4, #4]
    config_set[3] = charger_configSet.uv_lower;
 8005cb4:	891a      	ldrh	r2, [r3, #8]
 8005cb6:	b292      	uxth	r2, r2
 8005cb8:	80e2      	strh	r2, [r4, #6]
    config_set[4] = charger_configSet.ov_upper;
 8005cba:	895a      	ldrh	r2, [r3, #10]
 8005cbc:	b292      	uxth	r2, r2
 8005cbe:	8122      	strh	r2, [r4, #8]
    config_set[5] = charger_configSet.ov_lower;
 8005cc0:	899a      	ldrh	r2, [r3, #12]
 8005cc2:	b292      	uxth	r2, r2
 8005cc4:	8162      	strh	r2, [r4, #10]
    config_set[6] = charger_configSet.freq_upper;
 8005cc6:	89da      	ldrh	r2, [r3, #14]
 8005cc8:	b292      	uxth	r2, r2
 8005cca:	81a2      	strh	r2, [r4, #12]
    config_set[7] = charger_configSet.freq_lower;
 8005ccc:	8a1a      	ldrh	r2, [r3, #16]
 8005cce:	b292      	uxth	r2, r2
 8005cd0:	81e2      	strh	r2, [r4, #14]
    config_set[8] = (uint16_t)charger_configSet.max_current;
 8005cd2:	791b      	ldrb	r3, [r3, #4]
 8005cd4:	b2db      	uxtb	r3, r3
 8005cd6:	8223      	strh	r3, [r4, #16]
    EEPROM_Erase(CONFIG_LOCATION, EEPROM_SIZE);
 8005cd8:	f7ff fe48 	bl	800596c <EEPROM_Erase>
    EEPROM_WriteData(CONFIG_LOCATION, (uint16_t *)config_set, sizeof(config_get) / sizeof(config_get[0]));
 8005cdc:	4621      	mov	r1, r4
 8005cde:	4628      	mov	r0, r5
 8005ce0:	2209      	movs	r2, #9
 8005ce2:	f7ff fe55 	bl	8005990 <EEPROM_WriteData>
	HAL_Delay(100);
 8005ce6:	2064      	movs	r0, #100	@ 0x64
 8005ce8:	f002 fe30 	bl	800894c <HAL_Delay>
	HAL_NVIC_SystemReset();
}
 8005cec:	e8bd 4038 	ldmia.w	sp!, {r3, r4, r5, lr}
	HAL_NVIC_SystemReset();
 8005cf0:	f003 b99a 	b.w	8009028 <HAL_NVIC_SystemReset>
 8005cf4:	20001194 	.word	0x20001194
 8005cf8:	20001170 	.word	0x20001170
 8005cfc:	08003000 	.word	0x08003000

08005d00 <get_HWVersion>:
 *
 * @details This function reads the hardware version data from the EEPROM at a
 *          predefined location and populates the `hw_version` structure.
 */
void get_HWVersion(void)
{
 8005d00:	b510      	push	{r4, lr}
    EEPROM_ReadData(HW_VERSION_LOCATION, (uint16_t *)hw_verion_get, sizeof(hw_verion_get) / sizeof(hw_verion_get[0]));
 8005d02:	4c0a      	ldr	r4, [pc, #40]	@ (8005d2c <get_HWVersion+0x2c>)
 8005d04:	2202      	movs	r2, #2
 8005d06:	4621      	mov	r1, r4
 8005d08:	4809      	ldr	r0, [pc, #36]	@ (8005d30 <get_HWVersion+0x30>)
 8005d0a:	f7ff fe59 	bl	80059c0 <EEPROM_ReadData>
    HAL_Delay(100);
 8005d0e:	2064      	movs	r0, #100	@ 0x64
 8005d10:	f002 fe1c 	bl	800894c <HAL_Delay>
    hw_version.v1 = (uint8_t)(hw_verion_get[0] & 0xFF);
 8005d14:	8822      	ldrh	r2, [r4, #0]
 8005d16:	4b07      	ldr	r3, [pc, #28]	@ (8005d34 <get_HWVersion+0x34>)
 8005d18:	b2d2      	uxtb	r2, r2
 8005d1a:	701a      	strb	r2, [r3, #0]
    hw_version.v2 = (uint8_t)(hw_verion_get[0] >> 8);
 8005d1c:	8822      	ldrh	r2, [r4, #0]
 8005d1e:	f3c2 2207 	ubfx	r2, r2, #8, #8
 8005d22:	705a      	strb	r2, [r3, #1]
    hw_version.v3 = (uint8_t)(hw_verion_get[1] & 0xFF);
 8005d24:	8862      	ldrh	r2, [r4, #2]
 8005d26:	b2d2      	uxtb	r2, r2
 8005d28:	709a      	strb	r2, [r3, #2]
}
 8005d2a:	bd10      	pop	{r4, pc}
 8005d2c:	20001168 	.word	0x20001168
 8005d30:	08002bf0 	.word	0x08002bf0
 8005d34:	2000116c 	.word	0x2000116c

08005d38 <cpCalibrate_load>:

// Flags and variables
bool cp_calibrate = false;

void cpCalibrate_load(void)
{
 8005d38:	b508      	push	{r3, lr}
	EEPROM_ReadData(CP_LOCATION, (uint16_t *)cpCalibrate_get, sizeof(cpCalibrate_get)/sizeof(cpCalibrate_get[0]));
 8005d3a:	4805      	ldr	r0, [pc, #20]	@ (8005d50 <cpCalibrate_load+0x18>)
 8005d3c:	2202      	movs	r2, #2
 8005d3e:	4905      	ldr	r1, [pc, #20]	@ (8005d54 <cpCalibrate_load+0x1c>)
 8005d40:	f7ff fe3e 	bl	80059c0 <EEPROM_ReadData>
	HAL_Delay(100);
}
 8005d44:	e8bd 4008 	ldmia.w	sp!, {r3, lr}
	HAL_Delay(100);
 8005d48:	2064      	movs	r0, #100	@ 0x64
 8005d4a:	f002 bdff 	b.w	800894c <HAL_Delay>
 8005d4e:	bf00      	nop
 8005d50:	08003430 	.word	0x08003430
 8005d54:	200011d8 	.word	0x200011d8

08005d58 <cpCalibrate_save>:

void cpCalibrate_save(void)
{
	cpCalibrate_set[0] = charger_configSet.cp_positive;
 8005d58:	4a0c      	ldr	r2, [pc, #48]	@ (8005d8c <cpCalibrate_save+0x34>)
{
 8005d5a:	b538      	push	{r3, r4, r5, lr}
	cpCalibrate_set[0] = charger_configSet.cp_positive;
 8005d5c:	8ad3      	ldrh	r3, [r2, #22]
 8005d5e:	4c0c      	ldr	r4, [pc, #48]	@ (8005d90 <cpCalibrate_save+0x38>)
 8005d60:	b29b      	uxth	r3, r3
 8005d62:	8023      	strh	r3, [r4, #0]
	cpCalibrate_set[1] = charger_configSet.cp_negative;
 8005d64:	8b13      	ldrh	r3, [r2, #24]

	EEPROM_Erase(CP_LOCATION, EEPROM_SIZE);
 8005d66:	4d0b      	ldr	r5, [pc, #44]	@ (8005d94 <cpCalibrate_save+0x3c>)
	cpCalibrate_set[1] = charger_configSet.cp_negative;
 8005d68:	b29b      	uxth	r3, r3
	EEPROM_Erase(CP_LOCATION, EEPROM_SIZE);
 8005d6a:	4628      	mov	r0, r5
 8005d6c:	f44f 6180 	mov.w	r1, #1024	@ 0x400
	cpCalibrate_set[1] = charger_configSet.cp_negative;
 8005d70:	8063      	strh	r3, [r4, #2]
	EEPROM_Erase(CP_LOCATION, EEPROM_SIZE);
 8005d72:	f7ff fdfb 	bl	800596c <EEPROM_Erase>
	EEPROM_WriteData(CP_LOCATION, (uint16_t *)cpCalibrate_set, (sizeof(cpCalibrate_set)/sizeof(cpCalibrate_set[0])));
 8005d76:	4628      	mov	r0, r5
 8005d78:	4621      	mov	r1, r4
 8005d7a:	2202      	movs	r2, #2
 8005d7c:	f7ff fe08 	bl	8005990 <EEPROM_WriteData>
	HAL_Delay(100);
}
 8005d80:	e8bd 4038 	ldmia.w	sp!, {r3, r4, r5, lr}
	HAL_Delay(100);
 8005d84:	2064      	movs	r0, #100	@ 0x64
 8005d86:	f002 bde1 	b.w	800894c <HAL_Delay>
 8005d8a:	bf00      	nop
 8005d8c:	20001194 	.word	0x20001194
 8005d90:	200011dc 	.word	0x200011dc
 8005d94:	08003430 	.word	0x08003430

08005d98 <getCP_voltage>:

void getCP_voltage(void)
{
 8005d98:	e92d 4ff0 	stmdb	sp!, {r4, r5, r6, r7, r8, r9, sl, fp, lr}
	static uint16_t temp_adc;

	temp_adc = adc_store[MCU_CP_READ_INDEX];
 8005d9c:	4b82      	ldr	r3, [pc, #520]	@ (8005fa8 <getCP_voltage+0x210>)

	//V3
	if (dataCollected1 == false)
 8005d9e:	4f83      	ldr	r7, [pc, #524]	@ (8005fac <getCP_voltage+0x214>)
	temp_adc = adc_store[MCU_CP_READ_INDEX];
 8005da0:	88d8      	ldrh	r0, [r3, #6]
	if (dataCollected1 == false)
 8005da2:	783a      	ldrb	r2, [r7, #0]
{
 8005da4:	b085      	sub	sp, #20
	temp_adc = adc_store[MCU_CP_READ_INDEX];
 8005da6:	b280      	uxth	r0, r0
	if (dataCollected1 == false)
 8005da8:	b9b2      	cbnz	r2, 8005dd8 <getCP_voltage+0x40>
	{
		adcSample_buf1[adcSample_buf1_count] = temp_adc;
 8005daa:	4981      	ldr	r1, [pc, #516]	@ (8005fb0 <getCP_voltage+0x218>)
 8005dac:	4c81      	ldr	r4, [pc, #516]	@ (8005fb4 <getCP_voltage+0x21c>)
 8005dae:	880b      	ldrh	r3, [r1, #0]
 8005db0:	f824 0013 	strh.w	r0, [r4, r3, lsl #1]
		adc_high[adcSample_buf1_count] = 0;
 8005db4:	4880      	ldr	r0, [pc, #512]	@ (8005fb8 <getCP_voltage+0x220>)
 8005db6:	f820 2013 	strh.w	r2, [r0, r3, lsl #1]
		adc_low[adcSample_buf1_count] = 0;
 8005dba:	4880      	ldr	r0, [pc, #512]	@ (8005fbc <getCP_voltage+0x224>)
 8005dbc:	f820 2013 	strh.w	r2, [r0, r3, lsl #1]

		adcSample_buf1_count++;
 8005dc0:	3301      	adds	r3, #1
 8005dc2:	b29b      	uxth	r3, r3

		if (adcSample_buf1_count >= samples)
 8005dc4:	2b4a      	cmp	r3, #74	@ 0x4a
 8005dc6:	d801      	bhi.n	8005dcc <getCP_voltage+0x34>
							adcSample_buf1[adcSample_buf1_count];
					cp_min_count++;
				}
			}

			adcSample_buf1_count++;
 8005dc8:	800b      	strh	r3, [r1, #0]
 8005dca:	e002      	b.n	8005dd2 <getCP_voltage+0x3a>
			dataCollected1 = true;
 8005dcc:	2301      	movs	r3, #1
			adcSample_buf1_count = 0;
 8005dce:	800a      	strh	r2, [r1, #0]
			dataCollected1 = true;
 8005dd0:	703b      	strb	r3, [r7, #0]
				dataCollected1 = false;
				dataCollected2 = false;
			}
		}
	}
}
 8005dd2:	b005      	add	sp, #20
 8005dd4:	e8bd 8ff0 	ldmia.w	sp!, {r4, r5, r6, r7, r8, r9, sl, fp, pc}
		if (dataCollected2 == false)
 8005dd8:	4e79      	ldr	r6, [pc, #484]	@ (8005fc0 <getCP_voltage+0x228>)
 8005dda:	7833      	ldrb	r3, [r6, #0]
 8005ddc:	b9fb      	cbnz	r3, 8005e1e <getCP_voltage+0x86>
			if (adcSample_buf1[adcSample_buf1_count] >= 1800)
 8005dde:	4974      	ldr	r1, [pc, #464]	@ (8005fb0 <getCP_voltage+0x218>)
 8005de0:	4a74      	ldr	r2, [pc, #464]	@ (8005fb4 <getCP_voltage+0x21c>)
 8005de2:	880b      	ldrh	r3, [r1, #0]
 8005de4:	f832 0013 	ldrh.w	r0, [r2, r3, lsl #1]
 8005de8:	f5b0 6fe1 	cmp.w	r0, #1800	@ 0x708
 8005dec:	d311      	bcc.n	8005e12 <getCP_voltage+0x7a>
				if (cp_max_count < samples)
 8005dee:	4c75      	ldr	r4, [pc, #468]	@ (8005fc4 <getCP_voltage+0x22c>)
 8005df0:	6822      	ldr	r2, [r4, #0]
 8005df2:	2a4a      	cmp	r2, #74	@ 0x4a
 8005df4:	d804      	bhi.n	8005e00 <getCP_voltage+0x68>
					adc_high[cp_max_count] =
 8005df6:	4d70      	ldr	r5, [pc, #448]	@ (8005fb8 <getCP_voltage+0x220>)
					adc_low[cp_min_count] =
 8005df8:	f825 0012 	strh.w	r0, [r5, r2, lsl #1]
					cp_min_count++;
 8005dfc:	3201      	adds	r2, #1
 8005dfe:	6022      	str	r2, [r4, #0]
			adcSample_buf1_count++;
 8005e00:	3301      	adds	r3, #1
 8005e02:	b29b      	uxth	r3, r3
			if (adcSample_buf1_count >= samples)
 8005e04:	2b4a      	cmp	r3, #74	@ 0x4a
 8005e06:	d9df      	bls.n	8005dc8 <getCP_voltage+0x30>
				adcSample_buf1_count = 0;
 8005e08:	2300      	movs	r3, #0
 8005e0a:	800b      	strh	r3, [r1, #0]
				dataCollected2 = true;
 8005e0c:	2301      	movs	r3, #1
				dataCollected2 = false;
 8005e0e:	7033      	strb	r3, [r6, #0]
}
 8005e10:	e7df      	b.n	8005dd2 <getCP_voltage+0x3a>
				if (cp_min_count < samples)
 8005e12:	4c6d      	ldr	r4, [pc, #436]	@ (8005fc8 <getCP_voltage+0x230>)
 8005e14:	6822      	ldr	r2, [r4, #0]
 8005e16:	2a4a      	cmp	r2, #74	@ 0x4a
 8005e18:	d8f2      	bhi.n	8005e00 <getCP_voltage+0x68>
					adc_low[cp_min_count] =
 8005e1a:	4d68      	ldr	r5, [pc, #416]	@ (8005fbc <getCP_voltage+0x224>)
 8005e1c:	e7ec      	b.n	8005df8 <getCP_voltage+0x60>
			if (cp_max_count > 0)
 8005e1e:	f8df a1a4 	ldr.w	sl, [pc, #420]	@ 8005fc4 <getCP_voltage+0x22c>
 8005e22:	4c6a      	ldr	r4, [pc, #424]	@ (8005fcc <getCP_voltage+0x234>)
 8005e24:	f8da 2000 	ldr.w	r2, [sl]
 8005e28:	2a00      	cmp	r2, #0
 8005e2a:	f000 80a7 	beq.w	8005f7c <getCP_voltage+0x1e4>
				if (cp_max_count2 < cp_max_count)
 8005e2e:	4968      	ldr	r1, [pc, #416]	@ (8005fd0 <getCP_voltage+0x238>)
					cp_max_sum = cp_max_sum + adc_high[cp_max_count2];
 8005e30:	4d68      	ldr	r5, [pc, #416]	@ (8005fd4 <getCP_voltage+0x23c>)
				if (cp_max_count2 < cp_max_count)
 8005e32:	680b      	ldr	r3, [r1, #0]
					cp_max_sum = cp_max_sum + adc_high[cp_max_count2];
 8005e34:	6828      	ldr	r0, [r5, #0]
				if (cp_max_count2 < cp_max_count)
 8005e36:	429a      	cmp	r2, r3
 8005e38:	d939      	bls.n	8005eae <getCP_voltage+0x116>
					cp_max_sum = cp_max_sum + adc_high[cp_max_count2];
 8005e3a:	4a5f      	ldr	r2, [pc, #380]	@ (8005fb8 <getCP_voltage+0x220>)
 8005e3c:	f832 2013 	ldrh.w	r2, [r2, r3, lsl #1]
					cp_max_count2++;
 8005e40:	3301      	adds	r3, #1
					cp_max_sum = cp_max_sum + adc_high[cp_max_count2];
 8005e42:	4402      	add	r2, r0
 8005e44:	602a      	str	r2, [r5, #0]
					cp_max_count2++;
 8005e46:	600b      	str	r3, [r1, #0]
			if (cp_min_count > 0)
 8005e48:	f8df 917c 	ldr.w	r9, [pc, #380]	@ 8005fc8 <getCP_voltage+0x230>
 8005e4c:	f8d9 2000 	ldr.w	r2, [r9]
 8005e50:	2a00      	cmp	r2, #0
 8005e52:	f000 813a 	beq.w	80060ca <getCP_voltage+0x332>
				if (cp_min_count2 < cp_min_count)
 8005e56:	4960      	ldr	r1, [pc, #384]	@ (8005fd8 <getCP_voltage+0x240>)
					cp_min_sum = cp_min_sum + adc_low[cp_min_count2];
 8005e58:	4d60      	ldr	r5, [pc, #384]	@ (8005fdc <getCP_voltage+0x244>)
				if (cp_min_count2 < cp_min_count)
 8005e5a:	680b      	ldr	r3, [r1, #0]
					cp_min_sum = cp_min_sum + adc_low[cp_min_count2];
 8005e5c:	6828      	ldr	r0, [r5, #0]
				if (cp_min_count2 < cp_min_count)
 8005e5e:	429a      	cmp	r2, r3
 8005e60:	f240 80cc 	bls.w	8005ffc <getCP_voltage+0x264>
					cp_min_sum = cp_min_sum + adc_low[cp_min_count2];
 8005e64:	4a55      	ldr	r2, [pc, #340]	@ (8005fbc <getCP_voltage+0x224>)
 8005e66:	f832 2013 	ldrh.w	r2, [r2, r3, lsl #1]
					cp_min_count2++;
 8005e6a:	3301      	adds	r3, #1
					cp_min_sum = cp_min_sum + adc_low[cp_min_count2];
 8005e6c:	4402      	add	r2, r0
 8005e6e:	602a      	str	r2, [r5, #0]
					cp_min_count2++;
 8005e70:	600b      	str	r3, [r1, #0]
			if ((max_done == true) && (min_done == true))
 8005e72:	7823      	ldrb	r3, [r4, #0]
 8005e74:	2b00      	cmp	r3, #0
 8005e76:	d0ac      	beq.n	8005dd2 <getCP_voltage+0x3a>
 8005e78:	4a59      	ldr	r2, [pc, #356]	@ (8005fe0 <getCP_voltage+0x248>)
 8005e7a:	7813      	ldrb	r3, [r2, #0]
 8005e7c:	2b00      	cmp	r3, #0
 8005e7e:	d0a8      	beq.n	8005dd2 <getCP_voltage+0x3a>
				adcSample_buf1_count = 0;
 8005e80:	2300      	movs	r3, #0
				min_done = false;
 8005e82:	7013      	strb	r3, [r2, #0]
				cp_min_sum = 0;
 8005e84:	4a55      	ldr	r2, [pc, #340]	@ (8005fdc <getCP_voltage+0x244>)
				adcSample_buf1_count = 0;
 8005e86:	494a      	ldr	r1, [pc, #296]	@ (8005fb0 <getCP_voltage+0x218>)
				cp_min_sum = 0;
 8005e88:	6013      	str	r3, [r2, #0]
				cp_min_avg = 0;
 8005e8a:	4a56      	ldr	r2, [pc, #344]	@ (8005fe4 <getCP_voltage+0x24c>)
				adcSample_buf1_count = 0;
 8005e8c:	800b      	strh	r3, [r1, #0]
				cp_min_avg = 0;
 8005e8e:	8013      	strh	r3, [r2, #0]
				cp_max_count2 = 0;
 8005e90:	494f      	ldr	r1, [pc, #316]	@ (8005fd0 <getCP_voltage+0x238>)
				cp_max_sum = 0;
 8005e92:	4a50      	ldr	r2, [pc, #320]	@ (8005fd4 <getCP_voltage+0x23c>)
				cp_max_count2 = 0;
 8005e94:	600b      	str	r3, [r1, #0]
				cp_max_sum = 0;
 8005e96:	6013      	str	r3, [r2, #0]
				cp_min_count2 = 0;
 8005e98:	494f      	ldr	r1, [pc, #316]	@ (8005fd8 <getCP_voltage+0x240>)
				cp_max_avg = 0;
 8005e9a:	4a53      	ldr	r2, [pc, #332]	@ (8005fe8 <getCP_voltage+0x250>)
				cp_max_count = 0;
 8005e9c:	f8ca 3000 	str.w	r3, [sl]
				cp_min_count = 0;
 8005ea0:	f8c9 3000 	str.w	r3, [r9]
				cp_min_count2 = 0;
 8005ea4:	600b      	str	r3, [r1, #0]
				max_done = false;
 8005ea6:	7023      	strb	r3, [r4, #0]
				cp_max_avg = 0;
 8005ea8:	8013      	strh	r3, [r2, #0]
				dataCollected1 = false;
 8005eaa:	703b      	strb	r3, [r7, #0]
 8005eac:	e7af      	b.n	8005e0e <getCP_voltage+0x76>
					cp_max_avg = (uint16_t) (cp_max_sum / cp_max_count);
 8005eae:	fbb0 f0f2 	udiv	r0, r0, r2
 8005eb2:	4b4d      	ldr	r3, [pc, #308]	@ (8005fe8 <getCP_voltage+0x250>)
					controlSide_data.controlPilot.cp_max = (0.2 * cp_max_avg)+((1 - 0.2) * controlSide_data.controlPilot.cp_max);
 8005eb4:	4d4d      	ldr	r5, [pc, #308]	@ (8005fec <getCP_voltage+0x254>)
					cp_max_avg = (uint16_t) (cp_max_sum / cp_max_count);
 8005eb6:	8018      	strh	r0, [r3, #0]
					controlSide_data.controlPilot.cp_max = (0.2 * cp_max_avg)+((1 - 0.2) * controlSide_data.controlPilot.cp_max);
 8005eb8:	b280      	uxth	r0, r0
 8005eba:	f7fd fe9b 	bl	8003bf4 <__aeabi_i2d>
 8005ebe:	a332      	add	r3, pc, #200	@ (adr r3, 8005f88 <getCP_voltage+0x1f0>)
 8005ec0:	e9d3 2300 	ldrd	r2, r3, [r3]
 8005ec4:	f7fd ff00 	bl	8003cc8 <__aeabi_dmul>
 8005ec8:	f8b5 b010 	ldrh.w	fp, [r5, #16]
 8005ecc:	4680      	mov	r8, r0
 8005ece:	fa1f fb8b 	uxth.w	fp, fp
 8005ed2:	4658      	mov	r0, fp
 8005ed4:	4689      	mov	r9, r1
 8005ed6:	f7fd fe8d 	bl	8003bf4 <__aeabi_i2d>
 8005eda:	a32d      	add	r3, pc, #180	@ (adr r3, 8005f90 <getCP_voltage+0x1f8>)
 8005edc:	e9d3 2300 	ldrd	r2, r3, [r3]
 8005ee0:	f7fd fef2 	bl	8003cc8 <__aeabi_dmul>
 8005ee4:	4602      	mov	r2, r0
 8005ee6:	460b      	mov	r3, r1
 8005ee8:	4640      	mov	r0, r8
 8005eea:	4649      	mov	r1, r9
 8005eec:	f7fd fd36 	bl	800395c <__adddf3>
 8005ef0:	f7fe f9c2 	bl	8004278 <__aeabi_d2uiz>
									* ((float) (VREF / 4096.0)
 8005ef4:	4b3e      	ldr	r3, [pc, #248]	@ (8005ff0 <getCP_voltage+0x258>)
					controlSide_data.controlPilot.cp_max = (0.2 * cp_max_avg)+((1 - 0.2) * controlSide_data.controlPilot.cp_max);
 8005ef6:	b280      	uxth	r0, r0
 8005ef8:	8228      	strh	r0, [r5, #16]
									* ((float) (VREF / 4096.0)
 8005efa:	6818      	ldr	r0, [r3, #0]
											* (float) controlSide_data.controlPilot.cp_max))
 8005efc:	f04f 5166 	mov.w	r1, #964689920	@ 0x39800000
 8005f00:	f8b5 9010 	ldrh.w	r9, [r5, #16]
									+ CP_POS_PARAM - (3.6707 * VREF));
 8005f04:	f8d3 b000 	ldr.w	fp, [r3]
											* (float) controlSide_data.controlPilot.cp_max))
 8005f08:	f7fe fb34 	bl	8004574 <__aeabi_fmul>
 8005f0c:	fa1f f989 	uxth.w	r9, r9
 8005f10:	4680      	mov	r8, r0
 8005f12:	4648      	mov	r0, r9
 8005f14:	f7fe fad6 	bl	80044c4 <__aeabi_ui2f>
 8005f18:	4601      	mov	r1, r0
 8005f1a:	4640      	mov	r0, r8
 8005f1c:	f7fe fb2a 	bl	8004574 <__aeabi_fmul>
 8005f20:	f7fd fe7a 	bl	8003c18 <__aeabi_f2d>
									* ((float) (VREF / 4096.0)
 8005f24:	a31c      	add	r3, pc, #112	@ (adr r3, 8005f98 <getCP_voltage+0x200>)
 8005f26:	e9d3 2300 	ldrd	r2, r3, [r3]
 8005f2a:	f7fd fecd 	bl	8003cc8 <__aeabi_dmul>
									+ CP_POS_PARAM - (3.6707 * VREF));
 8005f2e:	4b31      	ldr	r3, [pc, #196]	@ (8005ff4 <getCP_voltage+0x25c>)
									* ((float) (VREF / 4096.0)
 8005f30:	4680      	mov	r8, r0
									+ CP_POS_PARAM - (3.6707 * VREF));
 8005f32:	6818      	ldr	r0, [r3, #0]
									* ((float) (VREF / 4096.0)
 8005f34:	4689      	mov	r9, r1
									+ CP_POS_PARAM - (3.6707 * VREF));
 8005f36:	f7fd fe6f 	bl	8003c18 <__aeabi_f2d>
 8005f3a:	4602      	mov	r2, r0
 8005f3c:	460b      	mov	r3, r1
 8005f3e:	4640      	mov	r0, r8
 8005f40:	4649      	mov	r1, r9
 8005f42:	f7fd fd0b 	bl	800395c <__adddf3>
 8005f46:	4680      	mov	r8, r0
 8005f48:	4658      	mov	r0, fp
 8005f4a:	4689      	mov	r9, r1
 8005f4c:	f7fd fe64 	bl	8003c18 <__aeabi_f2d>
 8005f50:	a313      	add	r3, pc, #76	@ (adr r3, 8005fa0 <getCP_voltage+0x208>)
 8005f52:	e9d3 2300 	ldrd	r2, r3, [r3]
 8005f56:	f7fd feb7 	bl	8003cc8 <__aeabi_dmul>
 8005f5a:	4602      	mov	r2, r0
 8005f5c:	460b      	mov	r3, r1
 8005f5e:	4640      	mov	r0, r8
 8005f60:	4649      	mov	r1, r9
 8005f62:	f7fd fcf9 	bl	8003958 <__aeabi_dsub>
					float temp2 =
 8005f66:	f7fe f9a7 	bl	80042b8 <__aeabi_d2f>
					controlSide_data.controlPilot.cp_Vmax =(int) (temp2 * 10.0);
 8005f6a:	f7fd fe55 	bl	8003c18 <__aeabi_f2d>
 8005f6e:	2200      	movs	r2, #0
 8005f70:	4b21      	ldr	r3, [pc, #132]	@ (8005ff8 <getCP_voltage+0x260>)
 8005f72:	f7fd fea9 	bl	8003cc8 <__aeabi_dmul>
 8005f76:	f7fe f957 	bl	8004228 <__aeabi_d2iz>
 8005f7a:	61a8      	str	r0, [r5, #24]
				max_done = true;
 8005f7c:	2301      	movs	r3, #1
 8005f7e:	7023      	strb	r3, [r4, #0]
 8005f80:	e762      	b.n	8005e48 <getCP_voltage+0xb0>
 8005f82:	bf00      	nop
 8005f84:	f3af 8000 	nop.w
 8005f88:	9999999a 	.word	0x9999999a
 8005f8c:	3fc99999 	.word	0x3fc99999
 8005f90:	9999999a 	.word	0x9999999a
 8005f94:	3fe99999 	.word	0x3fe99999
 8005f98:	6bb98c7e 	.word	0x6bb98c7e
 8005f9c:	401eb909 	.word	0x401eb909
 8005fa0:	f62b6ae8 	.word	0xf62b6ae8
 8005fa4:	400d5d97 	.word	0x400d5d97
 8005fa8:	200013f8 	.word	0x200013f8
 8005fac:	200011fa 	.word	0x200011fa
 8005fb0:	20001328 	.word	0x20001328
 8005fb4:	2000132a 	.word	0x2000132a
 8005fb8:	20001292 	.word	0x20001292
 8005fbc:	200011fc 	.word	0x200011fc
 8005fc0:	200011f9 	.word	0x200011f9
 8005fc4:	200013c8 	.word	0x200013c8
 8005fc8:	200013cc 	.word	0x200013cc
 8005fcc:	200011f8 	.word	0x200011f8
 8005fd0:	200013c0 	.word	0x200013c0
 8005fd4:	200013d4 	.word	0x200013d4
 8005fd8:	200013c4 	.word	0x200013c4
 8005fdc:	200013dc 	.word	0x200013dc
 8005fe0:	200011f7 	.word	0x200011f7
 8005fe4:	200013d8 	.word	0x200013d8
 8005fe8:	200013d0 	.word	0x200013d0
 8005fec:	20001458 	.word	0x20001458
 8005ff0:	200013f0 	.word	0x200013f0
 8005ff4:	200011d4 	.word	0x200011d4
 8005ff8:	40240000 	.word	0x40240000
					cp_min_avg = (uint16_t) (cp_min_sum / cp_min_count);
 8005ffc:	fbb0 f0f2 	udiv	r0, r0, r2
 8006000:	4b3d      	ldr	r3, [pc, #244]	@ (80060f8 <getCP_voltage+0x360>)
					controlSide_data.controlPilot.cp_min = (0.2 * cp_min_avg)+((1 - 0.2) * controlSide_data.controlPilot.cp_min);
 8006002:	4d3e      	ldr	r5, [pc, #248]	@ (80060fc <getCP_voltage+0x364>)
					cp_min_avg = (uint16_t) (cp_min_sum / cp_min_count);
 8006004:	8018      	strh	r0, [r3, #0]
					controlSide_data.controlPilot.cp_min = (0.2 * cp_min_avg)+((1 - 0.2) * controlSide_data.controlPilot.cp_min);
 8006006:	b280      	uxth	r0, r0
 8006008:	f7fd fdf4 	bl	8003bf4 <__aeabi_i2d>
 800600c:	a332      	add	r3, pc, #200	@ (adr r3, 80060d8 <getCP_voltage+0x340>)
 800600e:	e9d3 2300 	ldrd	r2, r3, [r3]
 8006012:	f7fd fe59 	bl	8003cc8 <__aeabi_dmul>
 8006016:	f8b5 800e 	ldrh.w	r8, [r5, #14]
 800601a:	e9cd 0100 	strd	r0, r1, [sp]
 800601e:	fa1f f888 	uxth.w	r8, r8
 8006022:	4640      	mov	r0, r8
 8006024:	f7fd fde6 	bl	8003bf4 <__aeabi_i2d>
 8006028:	a32d      	add	r3, pc, #180	@ (adr r3, 80060e0 <getCP_voltage+0x348>)
 800602a:	e9d3 2300 	ldrd	r2, r3, [r3]
 800602e:	f7fd fe4b 	bl	8003cc8 <__aeabi_dmul>
 8006032:	4602      	mov	r2, r0
 8006034:	460b      	mov	r3, r1
 8006036:	e9dd 0100 	ldrd	r0, r1, [sp]
 800603a:	f7fd fc8f 	bl	800395c <__adddf3>
 800603e:	f7fe f91b 	bl	8004278 <__aeabi_d2uiz>
									* ((float) (VREF / 4096.0)
 8006042:	4b2f      	ldr	r3, [pc, #188]	@ (8006100 <getCP_voltage+0x368>)
					controlSide_data.controlPilot.cp_min = (0.2 * cp_min_avg)+((1 - 0.2) * controlSide_data.controlPilot.cp_min);
 8006044:	b280      	uxth	r0, r0
 8006046:	81e8      	strh	r0, [r5, #14]
									* ((float) (VREF / 4096.0)
 8006048:	6818      	ldr	r0, [r3, #0]
											* (float) controlSide_data.controlPilot.cp_min))
 800604a:	f8b5 b00e 	ldrh.w	fp, [r5, #14]
									- CP_NEG_PARAM - (3.6707 * VREF));
 800604e:	681b      	ldr	r3, [r3, #0]
											* (float) controlSide_data.controlPilot.cp_min))
 8006050:	f04f 5166 	mov.w	r1, #964689920	@ 0x39800000
									- CP_NEG_PARAM - (3.6707 * VREF));
 8006054:	9300      	str	r3, [sp, #0]
											* (float) controlSide_data.controlPilot.cp_min))
 8006056:	f7fe fa8d 	bl	8004574 <__aeabi_fmul>
 800605a:	fa1f fb8b 	uxth.w	fp, fp
 800605e:	4680      	mov	r8, r0
 8006060:	4658      	mov	r0, fp
 8006062:	f7fe fa2f 	bl	80044c4 <__aeabi_ui2f>
 8006066:	4601      	mov	r1, r0
 8006068:	4640      	mov	r0, r8
 800606a:	f7fe fa83 	bl	8004574 <__aeabi_fmul>
 800606e:	f7fd fdd3 	bl	8003c18 <__aeabi_f2d>
									* ((float) (VREF / 4096.0)
 8006072:	a31d      	add	r3, pc, #116	@ (adr r3, 80060e8 <getCP_voltage+0x350>)
 8006074:	e9d3 2300 	ldrd	r2, r3, [r3]
 8006078:	f7fd fe26 	bl	8003cc8 <__aeabi_dmul>
									- CP_NEG_PARAM - (3.6707 * VREF));
 800607c:	4b21      	ldr	r3, [pc, #132]	@ (8006104 <getCP_voltage+0x36c>)
									* ((float) (VREF / 4096.0)
 800607e:	e9cd 0102 	strd	r0, r1, [sp, #8]
									- CP_NEG_PARAM - (3.6707 * VREF));
 8006082:	6818      	ldr	r0, [r3, #0]
 8006084:	f7fd fdc8 	bl	8003c18 <__aeabi_f2d>
 8006088:	4602      	mov	r2, r0
 800608a:	460b      	mov	r3, r1
 800608c:	e9dd 0102 	ldrd	r0, r1, [sp, #8]
 8006090:	f7fd fc62 	bl	8003958 <__aeabi_dsub>
 8006094:	e9cd 0102 	strd	r0, r1, [sp, #8]
 8006098:	9800      	ldr	r0, [sp, #0]
 800609a:	f7fd fdbd 	bl	8003c18 <__aeabi_f2d>
 800609e:	a314      	add	r3, pc, #80	@ (adr r3, 80060f0 <getCP_voltage+0x358>)
 80060a0:	e9d3 2300 	ldrd	r2, r3, [r3]
 80060a4:	f7fd fe10 	bl	8003cc8 <__aeabi_dmul>
 80060a8:	4602      	mov	r2, r0
 80060aa:	460b      	mov	r3, r1
 80060ac:	e9dd 0102 	ldrd	r0, r1, [sp, #8]
 80060b0:	f7fd fc52 	bl	8003958 <__aeabi_dsub>
					float temp1 =
 80060b4:	f7fe f900 	bl	80042b8 <__aeabi_d2f>
							(int) (temp1 * 10.0);
 80060b8:	f7fd fdae 	bl	8003c18 <__aeabi_f2d>
 80060bc:	2200      	movs	r2, #0
 80060be:	4b12      	ldr	r3, [pc, #72]	@ (8006108 <getCP_voltage+0x370>)
 80060c0:	f7fd fe02 	bl	8003cc8 <__aeabi_dmul>
 80060c4:	f7fe f8b0 	bl	8004228 <__aeabi_d2iz>
					controlSide_data.controlPilot.cp_Vmin =
 80060c8:	6168      	str	r0, [r5, #20]
				min_done = true;
 80060ca:	2201      	movs	r2, #1
 80060cc:	4b0f      	ldr	r3, [pc, #60]	@ (800610c <getCP_voltage+0x374>)
 80060ce:	701a      	strb	r2, [r3, #0]
 80060d0:	e6cf      	b.n	8005e72 <getCP_voltage+0xda>
 80060d2:	bf00      	nop
 80060d4:	f3af 8000 	nop.w
 80060d8:	9999999a 	.word	0x9999999a
 80060dc:	3fc99999 	.word	0x3fc99999
 80060e0:	9999999a 	.word	0x9999999a
 80060e4:	3fe99999 	.word	0x3fe99999
 80060e8:	6bb98c7e 	.word	0x6bb98c7e
 80060ec:	401eb909 	.word	0x401eb909
 80060f0:	f62b6ae8 	.word	0xf62b6ae8
 80060f4:	400d5d97 	.word	0x400d5d97
 80060f8:	200013d8 	.word	0x200013d8
 80060fc:	20001458 	.word	0x20001458
 8006100:	200013f0 	.word	0x200013f0
 8006104:	200011d0 	.word	0x200011d0
 8006108:	40240000 	.word	0x40240000
 800610c:	200011f7 	.word	0x200011f7

08006110 <cpCalibrate>:

void cpCalibrate()
{
 8006110:	e92d 47f3 	stmdb	sp!, {r0, r1, r4, r5, r6, r7, r8, r9, sl, lr}
	cpCalibrate_load();
 8006114:	f7ff fe10 	bl	8005d38 <cpCalibrate_load>

	cal_pos = 12.0;//(cpCalibrate_get[0]/100.0);
	cal_neg = 12.0;//(-(cpCalibrate_get[1]/100.0));

	//-------------------------------------------(+12V) Generation
	TIM3->CCR1 = (uint32_t) (PWMFULLON * 10);
 8006118:	f44f 707a 	mov.w	r0, #1000	@ 0x3e8
 800611c:	4d70      	ldr	r5, [pc, #448]	@ (80062e0 <cpCalibrate+0x1d0>)
	TIM3->CCR4 = (uint32_t) (PWMFULLON * 10);
	HAL_Delay(1000); //Give some time to settle

	vehicle_pluged  = ( controlSide_data.controlPilot.cp_max <= cp_upper_when_pluged);
 800611e:	4e71      	ldr	r6, [pc, #452]	@ (80062e4 <cpCalibrate+0x1d4>)
	TIM3->CCR1 = (uint32_t) (PWMFULLON * 10);
 8006120:	6368      	str	r0, [r5, #52]	@ 0x34
	TIM3->CCR4 = (uint32_t) (PWMFULLON * 10);
 8006122:	6428      	str	r0, [r5, #64]	@ 0x40
	HAL_Delay(1000); //Give some time to settle
 8006124:	f002 fc12 	bl	800894c <HAL_Delay>
	vehicle_pluged  = ( controlSide_data.controlPilot.cp_max <= cp_upper_when_pluged);
 8006128:	4a6f      	ldr	r2, [pc, #444]	@ (80062e8 <cpCalibrate+0x1d8>)
 800612a:	8a33      	ldrh	r3, [r6, #16]
 800612c:	8812      	ldrh	r2, [r2, #0]
 800612e:	b29b      	uxth	r3, r3
 8006130:	4293      	cmp	r3, r2
 8006132:	bf94      	ite	ls
 8006134:	2201      	movls	r2, #1
 8006136:	2200      	movhi	r2, #0
 8006138:	4c6c      	ldr	r4, [pc, #432]	@ (80062ec <cpCalibrate+0x1dc>)
 800613a:	4b6d      	ldr	r3, [pc, #436]	@ (80062f0 <cpCalibrate+0x1e0>)

	if(vehicle_pluged)
		{

			//CP_POS_PARAM = (cal_pos + (3.6707 * VREF) - (7.6807 * (VREF/4096.0)* cpCalibrate_get[0]));
			 CP_POS_PARAM = (cal_pos + (3.6707 * VREF) - (7.6807 * (VREF/4096.0)* 3940));
 800613c:	6820      	ldr	r0, [r4, #0]
 800613e:	f8df a1b4 	ldr.w	sl, [pc, #436]	@ 80062f4 <cpCalibrate+0x1e4>
 8006142:	f8d4 8000 	ldr.w	r8, [r4]
	vehicle_pluged  = ( controlSide_data.controlPilot.cp_max <= cp_upper_when_pluged);
 8006146:	701a      	strb	r2, [r3, #0]
	if(vehicle_pluged)
 8006148:	d868      	bhi.n	800621c <cpCalibrate+0x10c>
			 CP_POS_PARAM = (cal_pos + (3.6707 * VREF) - (7.6807 * (VREF/4096.0)* 3940));
 800614a:	f7fd fd65 	bl	8003c18 <__aeabi_f2d>
 800614e:	a35e      	add	r3, pc, #376	@ (adr r3, 80062c8 <cpCalibrate+0x1b8>)
 8006150:	e9d3 2300 	ldrd	r2, r3, [r3]
 8006154:	f7fd fdb8 	bl	8003cc8 <__aeabi_dmul>
 8006158:	2200      	movs	r2, #0
 800615a:	4b67      	ldr	r3, [pc, #412]	@ (80062f8 <cpCalibrate+0x1e8>)
 800615c:	f7fd fbfe 	bl	800395c <__adddf3>
 8006160:	4606      	mov	r6, r0
 8006162:	4640      	mov	r0, r8
 8006164:	460f      	mov	r7, r1
 8006166:	f7fd fd57 	bl	8003c18 <__aeabi_f2d>
 800616a:	2200      	movs	r2, #0
 800616c:	4b63      	ldr	r3, [pc, #396]	@ (80062fc <cpCalibrate+0x1ec>)
 800616e:	f7fd fdab 	bl	8003cc8 <__aeabi_dmul>
 8006172:	a357      	add	r3, pc, #348	@ (adr r3, 80062d0 <cpCalibrate+0x1c0>)
 8006174:	e9d3 2300 	ldrd	r2, r3, [r3]
 8006178:	f7fd fda6 	bl	8003cc8 <__aeabi_dmul>
 800617c:	a356      	add	r3, pc, #344	@ (adr r3, 80062d8 <cpCalibrate+0x1c8>)
 800617e:	e9d3 2300 	ldrd	r2, r3, [r3]
 8006182:	f7fd fda1 	bl	8003cc8 <__aeabi_dmul>
 8006186:	4602      	mov	r2, r0
 8006188:	460b      	mov	r3, r1
 800618a:	4630      	mov	r0, r6
 800618c:	4639      	mov	r1, r7
 800618e:	f7fd fbe3 	bl	8003958 <__aeabi_dsub>
 8006192:	f7fe f891 	bl	80042b8 <__aeabi_d2f>

			//-------------------------------------------(-12V) Generation
			TIM3->CCR1 = (uint32_t) (PWMFULLOFF * 10);
 8006196:	2300      	movs	r3, #0
			 CP_POS_PARAM = (cal_pos + (3.6707 * VREF) - (7.6807 * (VREF/4096.0)* 3940));
 8006198:	f8ca 0000 	str.w	r0, [sl]
			TIM3->CCR1 = (uint32_t) (PWMFULLOFF * 10);
 800619c:	636b      	str	r3, [r5, #52]	@ 0x34
			TIM3->CCR4 = (uint32_t) (PWMFULLOFF * 10);
			HAL_Delay(500);  // reduced time delay from 1000 to 500
 800619e:	f44f 70fa 	mov.w	r0, #500	@ 0x1f4
			TIM3->CCR4 = (uint32_t) (PWMFULLOFF * 10);
 80061a2:	642b      	str	r3, [r5, #64]	@ 0x40
			HAL_Delay(500);  // reduced time delay from 1000 to 500
 80061a4:	f002 fbd2 	bl	800894c <HAL_Delay>

			//CP_NEG_PARAM = (cal_neg - (3.6707 * VREF) + (7.6807 * (VREF/4096.0)* cpCalibrate_get[1]));
			CP_NEG_PARAM = (cal_neg - (3.6707 * VREF) + (7.6807 * (VREF/4096.0)*100));
 80061a8:	6826      	ldr	r6, [r4, #0]
 80061aa:	6820      	ldr	r0, [r4, #0]
 80061ac:	f7fd fd34 	bl	8003c18 <__aeabi_f2d>
 80061b0:	2200      	movs	r2, #0
 80061b2:	4b52      	ldr	r3, [pc, #328]	@ (80062fc <cpCalibrate+0x1ec>)
 80061b4:	f7fd fd88 	bl	8003cc8 <__aeabi_dmul>
 80061b8:	a345      	add	r3, pc, #276	@ (adr r3, 80062d0 <cpCalibrate+0x1c0>)
 80061ba:	e9d3 2300 	ldrd	r2, r3, [r3]
 80061be:	f7fd fd83 	bl	8003cc8 <__aeabi_dmul>
 80061c2:	2200      	movs	r2, #0
 80061c4:	4b4e      	ldr	r3, [pc, #312]	@ (8006300 <cpCalibrate+0x1f0>)
 80061c6:	f7fd fd7f 	bl	8003cc8 <__aeabi_dmul>
 80061ca:	4604      	mov	r4, r0
 80061cc:	460d      	mov	r5, r1
 80061ce:	4630      	mov	r0, r6
			//-------------------------------------------(-12V) Generation
			TIM3->CCR1 = (uint32_t) (PWMFULLOFF * 10);
			TIM3->CCR4 = (uint32_t) (PWMFULLOFF * 10);
			HAL_Delay(500); // reduced time delay from 1000 to 500

			CP_NEG_PARAM = (cal_neg - (3.6707 * VREF) + (7.6807 * (VREF/4096.0)* controlSide_data.controlPilot.cp_min));
 80061d0:	f7fd fd22 	bl	8003c18 <__aeabi_f2d>
 80061d4:	a33c      	add	r3, pc, #240	@ (adr r3, 80062c8 <cpCalibrate+0x1b8>)
 80061d6:	e9d3 2300 	ldrd	r2, r3, [r3]
 80061da:	f7fd fd75 	bl	8003cc8 <__aeabi_dmul>
 80061de:	4602      	mov	r2, r0
 80061e0:	460b      	mov	r3, r1
 80061e2:	2000      	movs	r0, #0
 80061e4:	4944      	ldr	r1, [pc, #272]	@ (80062f8 <cpCalibrate+0x1e8>)
 80061e6:	f7fd fbb7 	bl	8003958 <__aeabi_dsub>
 80061ea:	4602      	mov	r2, r0
 80061ec:	460b      	mov	r3, r1
 80061ee:	4620      	mov	r0, r4
 80061f0:	4629      	mov	r1, r5
 80061f2:	f7fd fbb3 	bl	800395c <__adddf3>
 80061f6:	f7fe f85f 	bl	80042b8 <__aeabi_d2f>


		}

		//-------------------------------------------(+12V) Generation
		TIM3->CCR1 = (uint32_t) (PWMFULLON * 10);
 80061fa:	f44f 727a 	mov.w	r2, #1000	@ 0x3e8
			CP_NEG_PARAM = (cal_neg - (3.6707 * VREF) + (7.6807 * (VREF/4096.0)*100));
 80061fe:	4b41      	ldr	r3, [pc, #260]	@ (8006304 <cpCalibrate+0x1f4>)
 8006200:	6018      	str	r0, [r3, #0]
		TIM3->CCR1 = (uint32_t) (PWMFULLON * 10);
 8006202:	4b37      	ldr	r3, [pc, #220]	@ (80062e0 <cpCalibrate+0x1d0>)
		TIM3->CCR4 = (uint32_t) (PWMFULLON * 10);
		HAL_Delay(500); //Give some time to settle // reduced time delay from 1000 to 500
 8006204:	f44f 70fa 	mov.w	r0, #500	@ 0x1f4
		TIM3->CCR1 = (uint32_t) (PWMFULLON * 10);
 8006208:	635a      	str	r2, [r3, #52]	@ 0x34
		TIM3->CCR4 = (uint32_t) (PWMFULLON * 10);
 800620a:	641a      	str	r2, [r3, #64]	@ 0x40
		HAL_Delay(500); //Give some time to settle // reduced time delay from 1000 to 500
 800620c:	f002 fb9e 	bl	800894c <HAL_Delay>

		cp_calibrate = true;
 8006210:	2201      	movs	r2, #1
 8006212:	4b3d      	ldr	r3, [pc, #244]	@ (8006308 <cpCalibrate+0x1f8>)
 8006214:	701a      	strb	r2, [r3, #0]


}
 8006216:	b002      	add	sp, #8
 8006218:	e8bd 87f0 	ldmia.w	sp!, {r4, r5, r6, r7, r8, r9, sl, pc}
			CP_POS_PARAM = (cal_pos + (3.6707 * VREF) - (7.6807 * (VREF/4096.0)* controlSide_data.controlPilot.cp_max));
 800621c:	f7fd fcfc 	bl	8003c18 <__aeabi_f2d>
 8006220:	a329      	add	r3, pc, #164	@ (adr r3, 80062c8 <cpCalibrate+0x1b8>)
 8006222:	e9d3 2300 	ldrd	r2, r3, [r3]
 8006226:	f7fd fd4f 	bl	8003cc8 <__aeabi_dmul>
 800622a:	2200      	movs	r2, #0
 800622c:	4b32      	ldr	r3, [pc, #200]	@ (80062f8 <cpCalibrate+0x1e8>)
 800622e:	f7fd fb95 	bl	800395c <__adddf3>
 8006232:	e9cd 0100 	strd	r0, r1, [sp]
 8006236:	4640      	mov	r0, r8
 8006238:	f7fd fcee 	bl	8003c18 <__aeabi_f2d>
 800623c:	2200      	movs	r2, #0
 800623e:	4b2f      	ldr	r3, [pc, #188]	@ (80062fc <cpCalibrate+0x1ec>)
 8006240:	f7fd fd42 	bl	8003cc8 <__aeabi_dmul>
 8006244:	a322      	add	r3, pc, #136	@ (adr r3, 80062d0 <cpCalibrate+0x1c0>)
 8006246:	e9d3 2300 	ldrd	r2, r3, [r3]
 800624a:	f7fd fd3d 	bl	8003cc8 <__aeabi_dmul>
 800624e:	8a37      	ldrh	r7, [r6, #16]
 8006250:	4680      	mov	r8, r0
 8006252:	b2bf      	uxth	r7, r7
 8006254:	4638      	mov	r0, r7
 8006256:	4689      	mov	r9, r1
 8006258:	f7fd fccc 	bl	8003bf4 <__aeabi_i2d>
 800625c:	4602      	mov	r2, r0
 800625e:	460b      	mov	r3, r1
 8006260:	4640      	mov	r0, r8
 8006262:	4649      	mov	r1, r9
 8006264:	f7fd fd30 	bl	8003cc8 <__aeabi_dmul>
 8006268:	4602      	mov	r2, r0
 800626a:	460b      	mov	r3, r1
 800626c:	e9dd 0100 	ldrd	r0, r1, [sp]
 8006270:	f7fd fb72 	bl	8003958 <__aeabi_dsub>
 8006274:	f7fe f820 	bl	80042b8 <__aeabi_d2f>
			TIM3->CCR1 = (uint32_t) (PWMFULLOFF * 10);
 8006278:	2300      	movs	r3, #0
			CP_POS_PARAM = (cal_pos + (3.6707 * VREF) - (7.6807 * (VREF/4096.0)* controlSide_data.controlPilot.cp_max));
 800627a:	f8ca 0000 	str.w	r0, [sl]
			TIM3->CCR1 = (uint32_t) (PWMFULLOFF * 10);
 800627e:	636b      	str	r3, [r5, #52]	@ 0x34
			HAL_Delay(500); // reduced time delay from 1000 to 500
 8006280:	f44f 70fa 	mov.w	r0, #500	@ 0x1f4
			TIM3->CCR4 = (uint32_t) (PWMFULLOFF * 10);
 8006284:	642b      	str	r3, [r5, #64]	@ 0x40
			HAL_Delay(500); // reduced time delay from 1000 to 500
 8006286:	f002 fb61 	bl	800894c <HAL_Delay>
			CP_NEG_PARAM = (cal_neg - (3.6707 * VREF) + (7.6807 * (VREF/4096.0)* controlSide_data.controlPilot.cp_min));
 800628a:	6827      	ldr	r7, [r4, #0]
 800628c:	6820      	ldr	r0, [r4, #0]
 800628e:	f7fd fcc3 	bl	8003c18 <__aeabi_f2d>
 8006292:	2200      	movs	r2, #0
 8006294:	4b19      	ldr	r3, [pc, #100]	@ (80062fc <cpCalibrate+0x1ec>)
 8006296:	f7fd fd17 	bl	8003cc8 <__aeabi_dmul>
 800629a:	a30d      	add	r3, pc, #52	@ (adr r3, 80062d0 <cpCalibrate+0x1c0>)
 800629c:	e9d3 2300 	ldrd	r2, r3, [r3]
 80062a0:	f7fd fd12 	bl	8003cc8 <__aeabi_dmul>
 80062a4:	89f6      	ldrh	r6, [r6, #14]
 80062a6:	4604      	mov	r4, r0
 80062a8:	b2b6      	uxth	r6, r6
 80062aa:	4630      	mov	r0, r6
 80062ac:	460d      	mov	r5, r1
 80062ae:	f7fd fca1 	bl	8003bf4 <__aeabi_i2d>
 80062b2:	4602      	mov	r2, r0
 80062b4:	460b      	mov	r3, r1
 80062b6:	4620      	mov	r0, r4
 80062b8:	4629      	mov	r1, r5
 80062ba:	f7fd fd05 	bl	8003cc8 <__aeabi_dmul>
 80062be:	4604      	mov	r4, r0
 80062c0:	460d      	mov	r5, r1
 80062c2:	4638      	mov	r0, r7
 80062c4:	e784      	b.n	80061d0 <cpCalibrate+0xc0>
 80062c6:	bf00      	nop
 80062c8:	f62b6ae8 	.word	0xf62b6ae8
 80062cc:	400d5d97 	.word	0x400d5d97
 80062d0:	6bb98c7e 	.word	0x6bb98c7e
 80062d4:	401eb909 	.word	0x401eb909
 80062d8:	00000000 	.word	0x00000000
 80062dc:	40aec800 	.word	0x40aec800
 80062e0:	40000400 	.word	0x40000400
 80062e4:	20001458 	.word	0x20001458
 80062e8:	20000002 	.word	0x20000002
 80062ec:	200013f0 	.word	0x200013f0
 80062f0:	200011f6 	.word	0x200011f6
 80062f4:	200011d4 	.word	0x200011d4
 80062f8:	40280000 	.word	0x40280000
 80062fc:	3f300000 	.word	0x3f300000
 8006300:	40590000 	.word	0x40590000
 8006304:	200011d0 	.word	0x200011d0
 8006308:	200011cc 	.word	0x200011cc
 800630c:	00000000 	.word	0x00000000

08006310 <load_balance>:
	return lowest;
}

void load_balance(bool uv_en)
{
	if (load_balance6s.timeout_6s == false)
 8006310:	480f      	ldr	r0, [pc, #60]	@ (8006350 <load_balance+0x40>)
{
 8006312:	b510      	push	{r4, lr}
	if (load_balance6s.timeout_6s == false)
 8006314:	7ac3      	ldrb	r3, [r0, #11]
 8006316:	b1a3      	cbz	r3, 8006342 <load_balance+0x32>
#endif
//	else
//	{
//		controlSide_data.controlPilot.PWMSET = CPDUTY_DEFAULT;

		if (controlSide_data.errorStatus.bit.serialAError == 1)
 8006318:	4c0e      	ldr	r4, [pc, #56]	@ (8006354 <load_balance+0x44>)
	tick_clear(&load_balance6s);
 800631a:	f002 f8bd 	bl	8008498 <tick_clear>
		if (controlSide_data.errorStatus.bit.serialAError == 1)
 800631e:	7863      	ldrb	r3, [r4, #1]
 8006320:	07db      	lsls	r3, r3, #31
 8006322:	d40e      	bmi.n	8006342 <load_balance+0x32>
		{
			return;
		}

		uint16_t temp = (uint16_t) (networkSide_data.maxCurrent_req / 0.6);
 8006324:	4b0c      	ldr	r3, [pc, #48]	@ (8006358 <load_balance+0x48>)
 8006326:	7918      	ldrb	r0, [r3, #4]
 8006328:	f7fd fc64 	bl	8003bf4 <__aeabi_i2d>
 800632c:	a306      	add	r3, pc, #24	@ (adr r3, 8006348 <load_balance+0x38>)
 800632e:	e9d3 2300 	ldrd	r2, r3, [r3]
 8006332:	f7fd fdf3 	bl	8003f1c <__aeabi_ddiv>
 8006336:	f7fd ff9f 	bl	8004278 <__aeabi_d2uiz>
 800633a:	b280      	uxth	r0, r0

		if (temp >= CPMIN)
 800633c:	2809      	cmp	r0, #9
		{
			controlSide_data.controlPilot.PWMSET = temp;
 800633e:	bf88      	it	hi
 8006340:	8120      	strhhi	r0, [r4, #8]
		}

//	}
}
 8006342:	bd10      	pop	{r4, pc}
 8006344:	f3af 8000 	nop.w
 8006348:	33333333 	.word	0x33333333
 800634c:	3fe33333 	.word	0x3fe33333
 8006350:	200015fc 	.word	0x200015fc
 8006354:	20001458 	.word	0x20001458
 8006358:	20001406 	.word	0x20001406

0800635c <monitor_cp>:
	}
}

void monitor_cp(void)
{
	if (charger_configGet.en_1.bit.cpf_en == 1)
 800635c:	4b1f      	ldr	r3, [pc, #124]	@ (80063dc <monitor_cp+0x80>)
 800635e:	781b      	ldrb	r3, [r3, #0]
 8006360:	099b      	lsrs	r3, r3, #6
 8006362:	2b01      	cmp	r3, #1
 8006364:	4b1e      	ldr	r3, [pc, #120]	@ (80063e0 <monitor_cp+0x84>)
 8006366:	d114      	bne.n	8006392 <monitor_cp+0x36>
	if ((controlSide_data.controlPilot.cp_Vmax > STATEF_MIN)
 8006368:	699a      	ldr	r2, [r3, #24]
 800636a:	3268      	adds	r2, #104	@ 0x68
 800636c:	db19      	blt.n	80063a2 <monitor_cp+0x46>
			&& (controlSide_data.controlPilot.cp_Vmax < STATEC_MIN))
 800636e:	699a      	ldr	r2, [r3, #24]
 8006370:	2a2d      	cmp	r2, #45	@ 0x2d
 8006372:	dc16      	bgt.n	80063a2 <monitor_cp+0x46>
		CPFault_errorOutCounter = 0;
 8006374:	2100      	movs	r1, #0
 8006376:	4a1b      	ldr	r2, [pc, #108]	@ (80063e4 <monitor_cp+0x88>)
 8006378:	8011      	strh	r1, [r2, #0]
		CPFault_errorInCounter++;
 800637a:	491b      	ldr	r1, [pc, #108]	@ (80063e8 <monitor_cp+0x8c>)
 800637c:	880a      	ldrh	r2, [r1, #0]
 800637e:	3201      	adds	r2, #1
 8006380:	b292      	uxth	r2, r2
		if (CPFault_errorInCounter >= CPFault_errorCount)
 8006382:	f5b2 6ffa 	cmp.w	r2, #2000	@ 0x7d0
		CPFault_errorInCounter++;
 8006386:	800a      	strh	r2, [r1, #0]
		if (CPFault_errorInCounter >= CPFault_errorCount)
 8006388:	d303      	bcc.n	8006392 <monitor_cp+0x36>
			controlSide_data.errorStatus.bit.CPFault = 1;
 800638a:	785a      	ldrb	r2, [r3, #1]
 800638c:	f042 0210 	orr.w	r2, r2, #16
 8006390:	705a      	strb	r2, [r3, #1]
	{
		check_CPF();
	}

	if (controlSide_data.controlPilot.PWMSET < CPMIN)
 8006392:	891a      	ldrh	r2, [r3, #8]
 8006394:	b292      	uxth	r2, r2
 8006396:	2a09      	cmp	r2, #9
 8006398:	4a14      	ldr	r2, [pc, #80]	@ (80063ec <monitor_cp+0x90>)
 800639a:	d816      	bhi.n	80063ca <monitor_cp+0x6e>
	{
		cpMin_reached = true;
 800639c:	2301      	movs	r3, #1
 800639e:	7013      	strb	r3, [r2, #0]
		return;
 80063a0:	4770      	bx	lr
		if (controlSide_data.status.bit.connector_state == 0)
 80063a2:	781a      	ldrb	r2, [r3, #0]
 80063a4:	09d2      	lsrs	r2, r2, #7
 80063a6:	d1f4      	bne.n	8006392 <monitor_cp+0x36>
			CPFault_errorOutCounter++;
 80063a8:	480e      	ldr	r0, [pc, #56]	@ (80063e4 <monitor_cp+0x88>)
			CPFault_errorInCounter = 0;
 80063aa:	490f      	ldr	r1, [pc, #60]	@ (80063e8 <monitor_cp+0x8c>)
 80063ac:	800a      	strh	r2, [r1, #0]
			CPFault_errorOutCounter++;
 80063ae:	8801      	ldrh	r1, [r0, #0]
 80063b0:	3101      	adds	r1, #1
 80063b2:	b289      	uxth	r1, r1
			if (CPFault_errorOutCounter >= CPFault_errorCount)
 80063b4:	f5b1 6ffa 	cmp.w	r1, #2000	@ 0x7d0
				controlSide_data.errorStatus.bit.CPFault = 0;
 80063b8:	bf29      	itett	cs
 80063ba:	7859      	ldrbcs	r1, [r3, #1]
			CPFault_errorOutCounter++;
 80063bc:	8001      	strhcc	r1, [r0, #0]
				controlSide_data.errorStatus.bit.CPFault = 0;
 80063be:	f362 1104 	bfics	r1, r2, #4, #1
				CPFault_errorOutCounter = 0;
 80063c2:	8002      	strhcs	r2, [r0, #0]
				controlSide_data.errorStatus.bit.CPFault = 0;
 80063c4:	bf28      	it	cs
 80063c6:	7059      	strbcs	r1, [r3, #1]
 80063c8:	e7e3      	b.n	8006392 <monitor_cp+0x36>
	}

	cpMin_reached = false;
 80063ca:	2100      	movs	r1, #0
 80063cc:	7011      	strb	r1, [r2, #0]

	if (controlSide_data.controlPilot.PWMSET >= CPMAX)
 80063ce:	891a      	ldrh	r2, [r3, #8]
 80063d0:	b292      	uxth	r2, r2
 80063d2:	2a34      	cmp	r2, #52	@ 0x34
	{
		controlSide_data.controlPilot.PWMSET = CPMAX;
 80063d4:	bf84      	itt	hi
 80063d6:	2235      	movhi	r2, #53	@ 0x35
 80063d8:	811a      	strhhi	r2, [r3, #8]
	}
}
 80063da:	4770      	bx	lr
 80063dc:	200011b0 	.word	0x200011b0
 80063e0:	20001458 	.word	0x20001458
 80063e4:	200011ec 	.word	0x200011ec
 80063e8:	200011ee 	.word	0x200011ee
 80063ec:	200013f6 	.word	0x200013f6

080063f0 <setCP_duty>:

void setCP_duty(void)
{
	if (sm.currentState == STATE_F)
 80063f0:	4b1f      	ldr	r3, [pc, #124]	@ (8006470 <setCP_duty+0x80>)
 80063f2:	781b      	ldrb	r3, [r3, #0]
 80063f4:	2b08      	cmp	r3, #8
 80063f6:	4b1f      	ldr	r3, [pc, #124]	@ (8006474 <setCP_duty+0x84>)
	{
		if (controlSide_data.controlPilot.cp_enable == 1)
 80063f8:	7ada      	ldrb	r2, [r3, #11]
	if (sm.currentState == STATE_F)
 80063fa:	d103      	bne.n	8006404 <setCP_duty+0x14>
		if (controlSide_data.controlPilot.cp_enable == 1)
 80063fc:	2a01      	cmp	r2, #1
 80063fe:	d135      	bne.n	800646c <setCP_duty+0x7c>
				controlSide_data.controlPilot.cpDuty =
						controlSide_data.controlPilot.PWMSET;
			}
			else
			{
				controlSide_data.controlPilot.cpDuty = PWMFULLON;
 8006400:	2264      	movs	r2, #100	@ 0x64
 8006402:	e006      	b.n	8006412 <setCP_duty+0x22>
		if (controlSide_data.controlPilot.cp_enable == 1)
 8006404:	2a01      	cmp	r2, #1
 8006406:	d131      	bne.n	800646c <setCP_duty+0x7c>
			if (controlSide_data.controlPilot.cp_duty_enable == 1)
 8006408:	7a9a      	ldrb	r2, [r3, #10]
 800640a:	2a01      	cmp	r2, #1
 800640c:	d1f8      	bne.n	8006400 <setCP_duty+0x10>
						controlSide_data.controlPilot.PWMSET;
 800640e:	891a      	ldrh	r2, [r3, #8]
 8006410:	b292      	uxth	r2, r2
			}

		}
		else
		{
			controlSide_data.controlPilot.cpDuty = PWMFULLOFF;
 8006412:	819a      	strh	r2, [r3, #12]
		}
	}

	if (cp_calibrate)
 8006414:	4a18      	ldr	r2, [pc, #96]	@ (8006478 <setCP_duty+0x88>)
 8006416:	7812      	ldrb	r2, [r2, #0]
 8006418:	b14a      	cbz	r2, 800642e <setCP_duty+0x3e>
	{
		TIM3->CCR1 = (uint32_t) (controlSide_data.controlPilot.cpDuty * 10);
 800641a:	200a      	movs	r0, #10
 800641c:	899a      	ldrh	r2, [r3, #12]
 800641e:	4917      	ldr	r1, [pc, #92]	@ (800647c <setCP_duty+0x8c>)
 8006420:	b292      	uxth	r2, r2
 8006422:	4342      	muls	r2, r0
 8006424:	634a      	str	r2, [r1, #52]	@ 0x34
		TIM3->CCR4 = (uint32_t) (controlSide_data.controlPilot.cpDuty * 10);
 8006426:	899b      	ldrh	r3, [r3, #12]
 8006428:	b29b      	uxth	r3, r3
 800642a:	4343      	muls	r3, r0
 800642c:	640b      	str	r3, [r1, #64]	@ 0x40
	}

	if (cpCalibrate_en)
 800642e:	4b14      	ldr	r3, [pc, #80]	@ (8006480 <setCP_duty+0x90>)
 8006430:	781b      	ldrb	r3, [r3, #0]
 8006432:	b1d3      	cbz	r3, 800646a <setCP_duty+0x7a>
	{
		if (cpPositve_en)
 8006434:	4b13      	ldr	r3, [pc, #76]	@ (8006484 <setCP_duty+0x94>)
 8006436:	781b      	ldrb	r3, [r3, #0]
 8006438:	b123      	cbz	r3, 8006444 <setCP_duty+0x54>
		{
			TIM3->CCR1 = (uint32_t) (PWMFULLON * 10);
 800643a:	f44f 727a 	mov.w	r2, #1000	@ 0x3e8
 800643e:	4b0f      	ldr	r3, [pc, #60]	@ (800647c <setCP_duty+0x8c>)
 8006440:	635a      	str	r2, [r3, #52]	@ 0x34
			TIM3->CCR4 = (uint32_t) (PWMFULLON * 10);
 8006442:	641a      	str	r2, [r3, #64]	@ 0x40
		}

		if (cpNegative_en)
 8006444:	4b10      	ldr	r3, [pc, #64]	@ (8006488 <setCP_duty+0x98>)
 8006446:	781b      	ldrb	r3, [r3, #0]
 8006448:	b11b      	cbz	r3, 8006452 <setCP_duty+0x62>
		{
			TIM3->CCR1 = (uint32_t) (PWMFULLOFF * 10);
 800644a:	2200      	movs	r2, #0
 800644c:	4b0b      	ldr	r3, [pc, #44]	@ (800647c <setCP_duty+0x8c>)
 800644e:	635a      	str	r2, [r3, #52]	@ 0x34
			TIM3->CCR4 = (uint32_t) (PWMFULLOFF * 10);
 8006450:	641a      	str	r2, [r3, #64]	@ 0x40
		}

		if (cpDuty_en)
 8006452:	4b0e      	ldr	r3, [pc, #56]	@ (800648c <setCP_duty+0x9c>)
 8006454:	781b      	ldrb	r3, [r3, #0]
 8006456:	b143      	cbz	r3, 800646a <setCP_duty+0x7a>
		{
			TIM3->CCR1 = (uint32_t) (charger_configSet.cp_set * 10);
 8006458:	210a      	movs	r1, #10
 800645a:	480d      	ldr	r0, [pc, #52]	@ (8006490 <setCP_duty+0xa0>)
 800645c:	4a07      	ldr	r2, [pc, #28]	@ (800647c <setCP_duty+0x8c>)
 800645e:	7e83      	ldrb	r3, [r0, #26]
 8006460:	434b      	muls	r3, r1
 8006462:	6353      	str	r3, [r2, #52]	@ 0x34
			TIM3->CCR4 = (uint32_t) (charger_configSet.cp_set * 10);
 8006464:	7e83      	ldrb	r3, [r0, #26]
 8006466:	434b      	muls	r3, r1
 8006468:	6413      	str	r3, [r2, #64]	@ 0x40
		}
	}
}
 800646a:	4770      	bx	lr
			controlSide_data.controlPilot.cpDuty = PWMFULLOFF;
 800646c:	2200      	movs	r2, #0
 800646e:	e7d0      	b.n	8006412 <setCP_duty+0x22>
 8006470:	200014d8 	.word	0x200014d8
 8006474:	20001458 	.word	0x20001458
 8006478:	200011cc 	.word	0x200011cc
 800647c:	40000400 	.word	0x40000400
 8006480:	200011e4 	.word	0x200011e4
 8006484:	200011e3 	.word	0x200011e3
 8006488:	200011e2 	.word	0x200011e2
 800648c:	200011e1 	.word	0x200011e1
 8006490:	20001194 	.word	0x20001194

08006494 <check_diode>:

void check_diode(void)
{
	if ((controlSide_data.controlPilot.cp_Vmin > STATEF_MIN)
 8006494:	4b19      	ldr	r3, [pc, #100]	@ (80064fc <check_diode+0x68>)
{
 8006496:	b510      	push	{r4, lr}
	if ((controlSide_data.controlPilot.cp_Vmin > STATEF_MIN)
 8006498:	695a      	ldr	r2, [r3, #20]
 800649a:	4919      	ldr	r1, [pc, #100]	@ (8006500 <check_diode+0x6c>)
 800649c:	3268      	adds	r2, #104	@ 0x68
 800649e:	4819      	ldr	r0, [pc, #100]	@ (8006504 <check_diode+0x70>)
 80064a0:	db18      	blt.n	80064d4 <check_diode+0x40>
			&& (sm.currentState == STATE_B2)
 80064a2:	4a19      	ldr	r2, [pc, #100]	@ (8006508 <check_diode+0x74>)
 80064a4:	7812      	ldrb	r2, [r2, #0]
 80064a6:	2a04      	cmp	r2, #4
 80064a8:	d114      	bne.n	80064d4 <check_diode+0x40>
			&& (controlSide_data.status.bit.cpPWM_active == 1))
 80064aa:	781a      	ldrb	r2, [r3, #0]
 80064ac:	0652      	lsls	r2, r2, #25
 80064ae:	d511      	bpl.n	80064d4 <check_diode+0x40>
	{
		DC_errorOutCounter = 0;
 80064b0:	2400      	movs	r4, #0
		DC_errorInCounter++;
 80064b2:	8802      	ldrh	r2, [r0, #0]
		DC_errorOutCounter = 0;
 80064b4:	800c      	strh	r4, [r1, #0]
		DC_errorInCounter++;
 80064b6:	3201      	adds	r2, #1
 80064b8:	b292      	uxth	r2, r2
		if (DC_errorInCounter >= DC_errorCount)
 80064ba:	f5b2 7ffa 	cmp.w	r2, #500	@ 0x1f4
		{
			DC_errorInCounter = 0;
			controlSide_data.errorStatus.bit.diodeCheck_failed = 1;
 80064be:	bf29      	itett	cs
 80064c0:	785a      	ldrbcs	r2, [r3, #1]
		DC_errorInCounter++;
 80064c2:	8002      	strhcc	r2, [r0, #0]
			controlSide_data.errorStatus.bit.diodeCheck_failed = 1;
 80064c4:	f042 0202 	orrcs.w	r2, r2, #2
 80064c8:	705a      	strbcs	r2, [r3, #1]
			diodeCheck_passed = false;
 80064ca:	bf22      	ittt	cs
 80064cc:	4b0f      	ldrcs	r3, [pc, #60]	@ (800650c <check_diode+0x78>)
			DC_errorInCounter = 0;
 80064ce:	8004      	strhcs	r4, [r0, #0]
			diodeCheck_passed = false;
 80064d0:	701c      	strbcs	r4, [r3, #0]
			DC_errorOutCounter = 0;
			controlSide_data.errorStatus.bit.diodeCheck_failed = 0;
			diodeCheck_passed = true;
		}
	}
}
 80064d2:	bd10      	pop	{r4, pc}
		DC_errorInCounter = 0;
 80064d4:	2400      	movs	r4, #0
		DC_errorOutCounter++;
 80064d6:	880a      	ldrh	r2, [r1, #0]
		DC_errorInCounter = 0;
 80064d8:	8004      	strh	r4, [r0, #0]
		DC_errorOutCounter++;
 80064da:	3201      	adds	r2, #1
 80064dc:	b292      	uxth	r2, r2
		if (DC_errorOutCounter >= DC_errorCount)
 80064de:	f5b2 7ffa 	cmp.w	r2, #500	@ 0x1f4
			controlSide_data.errorStatus.bit.diodeCheck_failed = 0;
 80064e2:	bf29      	itett	cs
 80064e4:	785a      	ldrbcs	r2, [r3, #1]
		DC_errorOutCounter++;
 80064e6:	800a      	strhcc	r2, [r1, #0]
			controlSide_data.errorStatus.bit.diodeCheck_failed = 0;
 80064e8:	f364 0241 	bfics	r2, r4, #1, #1
 80064ec:	705a      	strbcs	r2, [r3, #1]
			diodeCheck_passed = true;
 80064ee:	bf21      	itttt	cs
 80064f0:	2201      	movcs	r2, #1
 80064f2:	4b06      	ldrcs	r3, [pc, #24]	@ (800650c <check_diode+0x78>)
			DC_errorOutCounter = 0;
 80064f4:	800c      	strhcs	r4, [r1, #0]
			diodeCheck_passed = true;
 80064f6:	701a      	strbcs	r2, [r3, #0]
}
 80064f8:	e7eb      	b.n	80064d2 <check_diode+0x3e>
 80064fa:	bf00      	nop
 80064fc:	20001458 	.word	0x20001458
 8006500:	200011e8 	.word	0x200011e8
 8006504:	200011ea 	.word	0x200011ea
 8006508:	200014d8 	.word	0x200014d8
 800650c:	200011f4 	.word	0x200011f4

08006510 <bootup_vehicleCheck>:

void bootup_vehicleCheck(void)
{
 8006510:	b510      	push	{r4, lr}
	if (controlSide_data.controlPilot.cp_Vmax > STATEA_MIN)
 8006512:	4c17      	ldr	r4, [pc, #92]	@ (8006570 <bootup_vehicleCheck+0x60>)
 8006514:	69a3      	ldr	r3, [r4, #24]
 8006516:	2b6a      	cmp	r3, #106	@ 0x6a
	{
		controlSide_data.networkSide_request.bit.vehicle_Check = 0;
 8006518:	7f63      	ldrb	r3, [r4, #29]
	if (controlSide_data.controlPilot.cp_Vmax > STATEA_MIN)
 800651a:	dd0b      	ble.n	8006534 <bootup_vehicleCheck+0x24>
		stateEntry_flag = true;
 800651c:	2101      	movs	r1, #1
		changeState((StateMachine *)&sm, STATE_A1, 0);
 800651e:	2200      	movs	r2, #0
		controlSide_data.networkSide_request.bit.vehicle_Check = 0;
 8006520:	f023 0308 	bic.w	r3, r3, #8
 8006524:	7763      	strb	r3, [r4, #29]
		stateEntry_flag = true;
 8006526:	4b13      	ldr	r3, [pc, #76]	@ (8006574 <bootup_vehicleCheck+0x64>)
 8006528:	7019      	strb	r1, [r3, #0]

		if ((controlSide_data.controlPilot.cp_Vmax > STATEC_MIN) //Jump to STATE C1
		&& (controlSide_data.controlPilot.cp_Vmax < STATEC_MAX))
		{
			stateEntry_flag = true;
			changeState((StateMachine *)&sm, STATE_C1, 0);
 800652a:	4813      	ldr	r0, [pc, #76]	@ (8006578 <bootup_vehicleCheck+0x68>)
		}
	}
}
 800652c:	e8bd 4010 	ldmia.w	sp!, {r4, lr}
			changeState((StateMachine *)&sm, STATE_C1, 0);
 8006530:	f001 b9d6 	b.w	80078e0 <changeState>
		controlSide_data.networkSide_request.bit.vehicle_Check = 1;
 8006534:	f043 0308 	orr.w	r3, r3, #8
 8006538:	7763      	strb	r3, [r4, #29]
		if ((controlSide_data.controlPilot.cp_Vmax > STATEB_MIN) //Jump to STATE B1
 800653a:	69a3      	ldr	r3, [r4, #24]
 800653c:	2b4c      	cmp	r3, #76	@ 0x4c
 800653e:	dd0a      	ble.n	8006556 <bootup_vehicleCheck+0x46>
		&& (controlSide_data.controlPilot.cp_Vmax < STATEB_MAX))
 8006540:	69a3      	ldr	r3, [r4, #24]
 8006542:	2b67      	cmp	r3, #103	@ 0x67
 8006544:	dc07      	bgt.n	8006556 <bootup_vehicleCheck+0x46>
			stateEntry_flag = true;
 8006546:	2201      	movs	r2, #1
 8006548:	4b0a      	ldr	r3, [pc, #40]	@ (8006574 <bootup_vehicleCheck+0x64>)
			changeState((StateMachine *)&sm, STATE_B1, 0);
 800654a:	2103      	movs	r1, #3
			stateEntry_flag = true;
 800654c:	701a      	strb	r2, [r3, #0]
			changeState((StateMachine *)&sm, STATE_B1, 0);
 800654e:	480a      	ldr	r0, [pc, #40]	@ (8006578 <bootup_vehicleCheck+0x68>)
 8006550:	2200      	movs	r2, #0
 8006552:	f001 f9c5 	bl	80078e0 <changeState>
		if ((controlSide_data.controlPilot.cp_Vmax > STATEC_MIN) //Jump to STATE C1
 8006556:	69a3      	ldr	r3, [r4, #24]
 8006558:	2b2e      	cmp	r3, #46	@ 0x2e
 800655a:	dd08      	ble.n	800656e <bootup_vehicleCheck+0x5e>
		&& (controlSide_data.controlPilot.cp_Vmax < STATEC_MAX))
 800655c:	69a3      	ldr	r3, [r4, #24]
 800655e:	2b49      	cmp	r3, #73	@ 0x49
 8006560:	dc05      	bgt.n	800656e <bootup_vehicleCheck+0x5e>
			stateEntry_flag = true;
 8006562:	2201      	movs	r2, #1
 8006564:	4b03      	ldr	r3, [pc, #12]	@ (8006574 <bootup_vehicleCheck+0x64>)
			changeState((StateMachine *)&sm, STATE_C1, 0);
 8006566:	2105      	movs	r1, #5
			stateEntry_flag = true;
 8006568:	701a      	strb	r2, [r3, #0]
			changeState((StateMachine *)&sm, STATE_C1, 0);
 800656a:	2200      	movs	r2, #0
 800656c:	e7dd      	b.n	800652a <bootup_vehicleCheck+0x1a>
}
 800656e:	bd10      	pop	{r4, pc}
 8006570:	20001458 	.word	0x20001458
 8006574:	20000005 	.word	0x20000005
 8006578:	200014d8 	.word	0x200014d8

0800657c <check_vehicleConnector>:

void check_vehicleConnector(void)
{
 800657c:	b510      	push	{r4, lr}
	if (controlSide_data.controlPilot.cp_enable)
 800657e:	4b12      	ldr	r3, [pc, #72]	@ (80065c8 <check_vehicleConnector+0x4c>)
 8006580:	7ada      	ldrb	r2, [r3, #11]
 8006582:	b19a      	cbz	r2, 80065ac <check_vehicleConnector+0x30>
	{
		if ((controlSide_data.controlPilot.cp_Vmax > 0)
 8006584:	699a      	ldr	r2, [r3, #24]
 8006586:	4911      	ldr	r1, [pc, #68]	@ (80065cc <check_vehicleConnector+0x50>)
 8006588:	2a00      	cmp	r2, #0
 800658a:	4811      	ldr	r0, [pc, #68]	@ (80065d0 <check_vehicleConnector+0x54>)
 800658c:	dd0f      	ble.n	80065ae <check_vehicleConnector+0x32>
				&& (controlSide_data.controlPilot.cp_Vmax < STATEA_MIN))
 800658e:	699a      	ldr	r2, [r3, #24]
 8006590:	2a69      	cmp	r2, #105	@ 0x69
 8006592:	dc0c      	bgt.n	80065ae <check_vehicleConnector+0x32>
		{
			vehicle_checkOutCounter = 0;
 8006594:	2200      	movs	r2, #0
 8006596:	700a      	strb	r2, [r1, #0]
			vehicle_checkInCounter++;
 8006598:	7802      	ldrb	r2, [r0, #0]
 800659a:	3201      	adds	r2, #1
 800659c:	b2d2      	uxtb	r2, r2
			if (vehicle_checkInCounter >= vehicle_checkCount)
 800659e:	2a18      	cmp	r2, #24
			vehicle_checkInCounter++;
 80065a0:	7002      	strb	r2, [r0, #0]
			if (vehicle_checkInCounter >= vehicle_checkCount)
 80065a2:	d903      	bls.n	80065ac <check_vehicleConnector+0x30>
			{
				controlSide_data.status.bit.connector_state = 1;
 80065a4:	781a      	ldrb	r2, [r3, #0]
 80065a6:	f042 0280 	orr.w	r2, r2, #128	@ 0x80
		{
			vehicle_checkInCounter = 0;
			vehicle_checkOutCounter++;
			if (vehicle_checkOutCounter >= vehicle_checkCount)
			{
				controlSide_data.status.bit.connector_state = 0;
 80065aa:	701a      	strb	r2, [r3, #0]
			}
		}
	}
}
 80065ac:	bd10      	pop	{r4, pc}
			vehicle_checkInCounter = 0;
 80065ae:	2400      	movs	r4, #0
			vehicle_checkOutCounter++;
 80065b0:	780a      	ldrb	r2, [r1, #0]
			vehicle_checkInCounter = 0;
 80065b2:	7004      	strb	r4, [r0, #0]
			vehicle_checkOutCounter++;
 80065b4:	3201      	adds	r2, #1
 80065b6:	b2d2      	uxtb	r2, r2
			if (vehicle_checkOutCounter >= vehicle_checkCount)
 80065b8:	2a18      	cmp	r2, #24
			vehicle_checkOutCounter++;
 80065ba:	700a      	strb	r2, [r1, #0]
			if (vehicle_checkOutCounter >= vehicle_checkCount)
 80065bc:	d9f6      	bls.n	80065ac <check_vehicleConnector+0x30>
				controlSide_data.status.bit.connector_state = 0;
 80065be:	781a      	ldrb	r2, [r3, #0]
 80065c0:	f364 12c7 	bfi	r2, r4, #7, #1
 80065c4:	e7f1      	b.n	80065aa <check_vehicleConnector+0x2e>
 80065c6:	bf00      	nop
 80065c8:	20001458 	.word	0x20001458
 80065cc:	200011e5 	.word	0x200011e5
 80065d0:	200011e6 	.word	0x200011e6

080065d4 <check_PWMActive>:

void check_PWMActive(void)
{
	if (charger_init_flag == true)
 80065d4:	4b18      	ldr	r3, [pc, #96]	@ (8006638 <check_PWMActive+0x64>)
{
 80065d6:	b510      	push	{r4, lr}
	if (charger_init_flag == true)
 80065d8:	781b      	ldrb	r3, [r3, #0]
 80065da:	b1ab      	cbz	r3, 8006608 <check_PWMActive+0x34>
	{

		static uint16_t diff;

		if (controlSide_data.controlPilot.cp_duty_enable == 1)
 80065dc:	4b17      	ldr	r3, [pc, #92]	@ (800663c <check_PWMActive+0x68>)
 80065de:	7a9a      	ldrb	r2, [r3, #10]
 80065e0:	2a01      	cmp	r2, #1
 80065e2:	d125      	bne.n	8006630 <check_PWMActive+0x5c>
		{
			diff = (controlSide_data.controlPilot.cp_max
 80065e4:	8a1a      	ldrh	r2, [r3, #16]
					- controlSide_data.controlPilot.cp_min);
 80065e6:	89d9      	ldrh	r1, [r3, #14]
 80065e8:	4815      	ldr	r0, [pc, #84]	@ (8006640 <check_PWMActive+0x6c>)
 80065ea:	1a52      	subs	r2, r2, r1

			if (diff > 1000)
 80065ec:	b292      	uxth	r2, r2
 80065ee:	f5b2 7f7a 	cmp.w	r2, #1000	@ 0x3e8
 80065f2:	f04f 0100 	mov.w	r1, #0
 80065f6:	4c13      	ldr	r4, [pc, #76]	@ (8006644 <check_PWMActive+0x70>)
 80065f8:	d90d      	bls.n	8006616 <check_PWMActive+0x42>
			{
				PWMActive_OutCounter = 0;
				PWMActive_InCounter++;
 80065fa:	8822      	ldrh	r2, [r4, #0]
				PWMActive_OutCounter = 0;
 80065fc:	8001      	strh	r1, [r0, #0]
				PWMActive_InCounter++;
 80065fe:	3201      	adds	r2, #1
 8006600:	b292      	uxth	r2, r2
				if (PWMActive_InCounter >= PWMActive_count)
 8006602:	2ac7      	cmp	r2, #199	@ 0xc7
 8006604:	d801      	bhi.n	800660a <check_PWMActive+0x36>
				PWMActive_InCounter++;
 8006606:	8022      	strh	r2, [r4, #0]
		else
		{
			controlSide_data.status.bit.cpPWM_active = 0;
		}
	}
}
 8006608:	bd10      	pop	{r4, pc}
					controlSide_data.status.bit.cpPWM_active = 1;
 800660a:	781a      	ldrb	r2, [r3, #0]
					PWMActive_InCounter = 0;
 800660c:	8021      	strh	r1, [r4, #0]
					controlSide_data.status.bit.cpPWM_active = 1;
 800660e:	f042 0240 	orr.w	r2, r2, #64	@ 0x40
			controlSide_data.status.bit.cpPWM_active = 0;
 8006612:	701a      	strb	r2, [r3, #0]
}
 8006614:	e7f8      	b.n	8006608 <check_PWMActive+0x34>
				PWMActive_OutCounter++;
 8006616:	8802      	ldrh	r2, [r0, #0]
				PWMActive_InCounter = 0;
 8006618:	8021      	strh	r1, [r4, #0]
				PWMActive_OutCounter++;
 800661a:	3201      	adds	r2, #1
 800661c:	b292      	uxth	r2, r2
				if (PWMActive_OutCounter >= PWMActive_count)
 800661e:	2ac7      	cmp	r2, #199	@ 0xc7
 8006620:	d801      	bhi.n	8006626 <check_PWMActive+0x52>
				PWMActive_OutCounter++;
 8006622:	8002      	strh	r2, [r0, #0]
 8006624:	e7f0      	b.n	8006608 <check_PWMActive+0x34>
					controlSide_data.status.bit.cpPWM_active = 0;
 8006626:	781a      	ldrb	r2, [r3, #0]
					PWMActive_OutCounter = 0;
 8006628:	8001      	strh	r1, [r0, #0]
					controlSide_data.status.bit.cpPWM_active = 0;
 800662a:	f361 1286 	bfi	r2, r1, #6, #1
 800662e:	e7f0      	b.n	8006612 <check_PWMActive+0x3e>
			controlSide_data.status.bit.cpPWM_active = 0;
 8006630:	781a      	ldrb	r2, [r3, #0]
 8006632:	f022 0240 	bic.w	r2, r2, #64	@ 0x40
 8006636:	e7ec      	b.n	8006612 <check_PWMActive+0x3e>
 8006638:	200013f5 	.word	0x200013f5
 800663c:	20001458 	.word	0x20001458
 8006640:	200011f0 	.word	0x200011f0
 8006644:	200011f2 	.word	0x200011f2

08006648 <init_dataStructures>:
volatile uint32_t vref_count = 0;
volatile float Temperature = 0.0;

void init_dataStructures(void)
{
	controlSide_data.controlPilot.cpDuty = PWMFULLON;
 8006648:	2364      	movs	r3, #100	@ 0x64
 800664a:	4a2c      	ldr	r2, [pc, #176]	@ (80066fc <init_dataStructures+0xb4>)
	controlSide_data.controlPilot.cp_Vmax = 0;
	controlSide_data.controlPilot.cp_Vmin = 3800;
 800664c:	f640 61d8 	movw	r1, #3800	@ 0xed8
	controlSide_data.controlPilot.cpDuty = PWMFULLON;
 8006650:	8193      	strh	r3, [r2, #12]
	controlSide_data.controlPilot.cp_Vmax = 0;
 8006652:	2300      	movs	r3, #0
 8006654:	6193      	str	r3, [r2, #24]
	controlSide_data.controlPilot.cp_Vmin = 3800;
 8006656:	6151      	str	r1, [r2, #20]
	controlSide_data.controlPilot.cp_max = 0;
	controlSide_data.controlPilot.cp_min = 0;
	controlSide_data.controlPilot.cp_enable = 1;
 8006658:	2101      	movs	r1, #1
	controlSide_data.controlPilot.cp_max = 0;
 800665a:	8213      	strh	r3, [r2, #16]
	controlSide_data.controlPilot.cp_min = 0;
 800665c:	81d3      	strh	r3, [r2, #14]
	controlSide_data.controlPilot.cp_enable = 1;
 800665e:	72d1      	strb	r1, [r2, #11]
	controlSide_data.networkSide_request.all = 0;
	controlSide_data.outputs.all = 0;
	controlSide_data.powerSide_request.all = 0;
	controlSide_data.status.all = 0;
	controlSide_data.warnings.all = 0;
	controlSide_data.mcuTemp = 0.0;
 8006660:	2100      	movs	r1, #0
	controlSide_data.controlPilot.cp_duty_enable = 0;
 8006662:	7293      	strb	r3, [r2, #10]
	controlSide_data.errorStatus.all = 0;
 8006664:	7053      	strb	r3, [r2, #1]
	controlSide_data.errorStatus.all = 0;
 8006666:	7053      	strb	r3, [r2, #1]
	controlSide_data.errorStatus.all = 0;
 8006668:	7053      	strb	r3, [r2, #1]
	controlSide_data.inputs.all = 0;
 800666a:	8093      	strh	r3, [r2, #4]
	controlSide_data.networkSide_request.all = 0;
 800666c:	7753      	strb	r3, [r2, #29]
	controlSide_data.outputs.all = 0;
 800666e:	8053      	strh	r3, [r2, #2]
	controlSide_data.powerSide_request.all = 0;
 8006670:	7713      	strb	r3, [r2, #28]
	controlSide_data.status.all = 0;
 8006672:	7013      	strb	r3, [r2, #0]
	controlSide_data.warnings.all = 0;
 8006674:	7793      	strb	r3, [r2, #30]
	controlSide_data.mcuTemp = 0.0;
 8006676:	6211      	str	r1, [r2, #32]

	powerSide_data.voltage.VA = 0;
 8006678:	4a21      	ldr	r2, [pc, #132]	@ (8006700 <init_dataStructures+0xb8>)
 800667a:	8293      	strh	r3, [r2, #20]
	powerSide_data.voltage.VB = 0;
 800667c:	82d3      	strh	r3, [r2, #22]
	powerSide_data.voltage.VC = 0;
 800667e:	8313      	strh	r3, [r2, #24]
	powerSide_data.current.IA = 0;
 8006680:	8353      	strh	r3, [r2, #26]
	powerSide_data.current.IB = 0;
 8006682:	8393      	strh	r3, [r2, #28]
	powerSide_data.current.IC = 0;
 8006684:	83d3      	strh	r3, [r2, #30]
	powerSide_data.powerEnergy.power = 0;
 8006686:	f882 3020 	strb.w	r3, [r2, #32]
	powerSide_data.powerEnergy.kWh = 0;
 800668a:	6253      	str	r3, [r2, #36]	@ 0x24
	powerSide_data.frequency = 0;
 800668c:	8593      	strh	r3, [r2, #44]	@ 0x2c
	powerSide_data.errorStatus.all = 0;
 800668e:	7053      	strb	r3, [r2, #1]
	powerSide_data.status.all = 0;
 8006690:	7013      	strb	r3, [r2, #0]
	powerSide_data.tripStatus.all = 0;
 8006692:	7093      	strb	r3, [r2, #2]
	powerSide_data.tempSensors.T1 = 0.0;
 8006694:	6051      	str	r1, [r2, #4]
	powerSide_data.tempSensors.T2 = 0.0;
 8006696:	6091      	str	r1, [r2, #8]
	powerSide_data.tempSensors.T3 = 0.0;
 8006698:	60d1      	str	r1, [r2, #12]
	powerSide_data.tempSensors.T4 = 0.0;
 800669a:	6111      	str	r1, [r2, #16]

	networkSide_data.status = 0;
	networkSide_data.maxCurrent_req = 53;
 800669c:	2135      	movs	r1, #53	@ 0x35
	networkSide_data.status = 0;
 800669e:	4a19      	ldr	r2, [pc, #100]	@ (8006704 <init_dataStructures+0xbc>)
 80066a0:	8013      	strh	r3, [r2, #0]
	networkSide_data.maxCurrent_req = 53;
 80066a2:	7111      	strb	r1, [r2, #4]
	networkSide_data.errors = 0;
 80066a4:	8053      	strh	r3, [r2, #2]
	networkSide_data.ledCommnad = 0;
 80066a6:	7193      	strb	r3, [r2, #6]
	networkSide_data.scheduleCharge = 0;
 80066a8:	7293      	strb	r3, [r2, #10]
	networkSide_data.timeReady = 0;
 80066aa:	7253      	strb	r3, [r2, #9]
	networkSide_data.chargerLock = 0;
 80066ac:	71d3      	strb	r3, [r2, #7]
	networkSide_data.isInternet_available = 0;
 80066ae:	7353      	strb	r3, [r2, #13]
	networkSide_data.loadBalancing_en = 0;
 80066b0:	7313      	strb	r3, [r2, #12]
	networkSide_data.ledOnOff_command = 0;
 80066b2:	7393      	strb	r3, [r2, #14]
	networkSide_data.setTime.Hours = 0;
 80066b4:	73d3      	strb	r3, [r2, #15]
	networkSide_data.setTime.Minutes = 0;
 80066b6:	7413      	strb	r3, [r2, #16]
	networkSide_data.weekdayOn.Hours = 0;
 80066b8:	7493      	strb	r3, [r2, #18]
	networkSide_data.weekdayOff.Minutes = 0;
 80066ba:	7593      	strb	r3, [r2, #22]
	networkSide_data.weekendOn.Hours = 0;
 80066bc:	7613      	strb	r3, [r2, #24]
	networkSide_data.weekendOff.Minutes = 0;
 80066be:	7713      	strb	r3, [r2, #28]

	charger_configGet.en_1.all = 0;
 80066c0:	4a11      	ldr	r2, [pc, #68]	@ (8006708 <init_dataStructures+0xc0>)
 80066c2:	8013      	strh	r3, [r2, #0]
	charger_configGet.en_2.all = 0;
 80066c4:	8053      	strh	r3, [r2, #2]
	charger_configGet.uv_upper = 0;
 80066c6:	80d3      	strh	r3, [r2, #6]
	charger_configGet.uv_upper = 0;
 80066c8:	80d3      	strh	r3, [r2, #6]
	charger_configGet.ov_upper = 0;
 80066ca:	8153      	strh	r3, [r2, #10]
	charger_configGet.ov_lower = 0;
 80066cc:	8193      	strh	r3, [r2, #12]
	charger_configGet.freq_upper = 0;
 80066ce:	81d3      	strh	r3, [r2, #14]
	charger_configGet.freq_lower = 0;
 80066d0:	8213      	strh	r3, [r2, #16]
	charger_configGet.max_current = 0;
 80066d2:	7113      	strb	r3, [r2, #4]
	charger_configGet.config_counter = 0;
 80066d4:	7493      	strb	r3, [r2, #18]
	charger_configGet.config_enable = false;
 80066d6:	74d3      	strb	r3, [r2, #19]

	charger_configSet.en_1.all = 0;
 80066d8:	4a0c      	ldr	r2, [pc, #48]	@ (800670c <init_dataStructures+0xc4>)
 80066da:	8013      	strh	r3, [r2, #0]
	charger_configSet.en_2.all = 0;
 80066dc:	8053      	strh	r3, [r2, #2]
	charger_configSet.uv_upper = 0;
 80066de:	80d3      	strh	r3, [r2, #6]
	charger_configSet.uv_upper = 0;
 80066e0:	80d3      	strh	r3, [r2, #6]
	charger_configSet.ov_upper = 0;
 80066e2:	8153      	strh	r3, [r2, #10]
	charger_configSet.ov_lower = 0;
 80066e4:	8193      	strh	r3, [r2, #12]
	charger_configSet.freq_upper = 0;
 80066e6:	81d3      	strh	r3, [r2, #14]
	charger_configSet.freq_lower = 0;
 80066e8:	8213      	strh	r3, [r2, #16]
	charger_configSet.max_current = 0;
 80066ea:	7113      	strb	r3, [r2, #4]
	charger_configSet.config_counter = 0;
 80066ec:	7493      	strb	r3, [r2, #18]
	charger_configSet.config_enable = false;
 80066ee:	74d3      	strb	r3, [r2, #19]

	hw_version.v1 = 0;
 80066f0:	4a07      	ldr	r2, [pc, #28]	@ (8006710 <init_dataStructures+0xc8>)
 80066f2:	7013      	strb	r3, [r2, #0]
	hw_version.v2 = 0;
 80066f4:	7053      	strb	r3, [r2, #1]
	hw_version.v3 = 0;
 80066f6:	7093      	strb	r3, [r2, #2]
}
 80066f8:	4770      	bx	lr
 80066fa:	bf00      	nop
 80066fc:	20001458 	.word	0x20001458
 8006700:	20001428 	.word	0x20001428
 8006704:	20001406 	.word	0x20001406
 8006708:	200011b0 	.word	0x200011b0
 800670c:	20001194 	.word	0x20001194
 8006710:	2000116c 	.word	0x2000116c

08006714 <buzzer_on>:

volatile bool buzzer_en = false;

void buzzer_on(void)
{
 8006714:	b510      	push	{r4, lr}
	BUZZER_ON();
 8006716:	4c13      	ldr	r4, [pc, #76]	@ (8006764 <buzzer_on+0x50>)
 8006718:	2201      	movs	r2, #1
 800671a:	f44f 7180 	mov.w	r1, #256	@ 0x100
 800671e:	4620      	mov	r0, r4
 8006720:	f003 f814 	bl	800974c <HAL_GPIO_WritePin>
	HAL_Delay(60);
 8006724:	203c      	movs	r0, #60	@ 0x3c
 8006726:	f002 f911 	bl	800894c <HAL_Delay>
	BUZZER_OFF();
 800672a:	2200      	movs	r2, #0
 800672c:	f44f 7180 	mov.w	r1, #256	@ 0x100
 8006730:	4620      	mov	r0, r4
 8006732:	f003 f80b 	bl	800974c <HAL_GPIO_WritePin>
	HAL_Delay(60);
 8006736:	203c      	movs	r0, #60	@ 0x3c
 8006738:	f002 f908 	bl	800894c <HAL_Delay>
	BUZZER_ON();
 800673c:	2201      	movs	r2, #1
 800673e:	f44f 7180 	mov.w	r1, #256	@ 0x100
 8006742:	4620      	mov	r0, r4
 8006744:	f003 f802 	bl	800974c <HAL_GPIO_WritePin>
	HAL_Delay(60);
 8006748:	203c      	movs	r0, #60	@ 0x3c
 800674a:	f002 f8ff 	bl	800894c <HAL_Delay>
	BUZZER_OFF();
 800674e:	4620      	mov	r0, r4
 8006750:	2200      	movs	r2, #0
 8006752:	f44f 7180 	mov.w	r1, #256	@ 0x100
 8006756:	f002 fff9 	bl	800974c <HAL_GPIO_WritePin>
	HAL_Delay(60);
}
 800675a:	e8bd 4010 	ldmia.w	sp!, {r4, lr}
	HAL_Delay(60);
 800675e:	203c      	movs	r0, #60	@ 0x3c
 8006760:	f002 b8f4 	b.w	800894c <HAL_Delay>
 8006764:	40010c00 	.word	0x40010c00

08006768 <buzzer_poweron>:

void buzzer_poweron(void)
{
 8006768:	b510      	push	{r4, lr}
	BUZZER_ON();
 800676a:	4c2e      	ldr	r4, [pc, #184]	@ (8006824 <buzzer_poweron+0xbc>)
 800676c:	2201      	movs	r2, #1
 800676e:	f44f 7180 	mov.w	r1, #256	@ 0x100
 8006772:	4620      	mov	r0, r4
 8006774:	f002 ffea 	bl	800974c <HAL_GPIO_WritePin>
	HAL_Delay(60);
 8006778:	203c      	movs	r0, #60	@ 0x3c
 800677a:	f002 f8e7 	bl	800894c <HAL_Delay>
	BUZZER_OFF();
 800677e:	2200      	movs	r2, #0
 8006780:	f44f 7180 	mov.w	r1, #256	@ 0x100
 8006784:	4620      	mov	r0, r4
 8006786:	f002 ffe1 	bl	800974c <HAL_GPIO_WritePin>
	HAL_Delay(60);
 800678a:	203c      	movs	r0, #60	@ 0x3c
 800678c:	f002 f8de 	bl	800894c <HAL_Delay>
	BUZZER_ON();
 8006790:	2201      	movs	r2, #1
 8006792:	f44f 7180 	mov.w	r1, #256	@ 0x100
 8006796:	4620      	mov	r0, r4
 8006798:	f002 ffd8 	bl	800974c <HAL_GPIO_WritePin>
	HAL_Delay(60);
 800679c:	203c      	movs	r0, #60	@ 0x3c
 800679e:	f002 f8d5 	bl	800894c <HAL_Delay>
	BUZZER_OFF();
 80067a2:	2200      	movs	r2, #0
 80067a4:	f44f 7180 	mov.w	r1, #256	@ 0x100
 80067a8:	4620      	mov	r0, r4
 80067aa:	f002 ffcf 	bl	800974c <HAL_GPIO_WritePin>
	HAL_Delay(60);
 80067ae:	203c      	movs	r0, #60	@ 0x3c
 80067b0:	f002 f8cc 	bl	800894c <HAL_Delay>
	BUZZER_ON();
 80067b4:	2201      	movs	r2, #1
 80067b6:	f44f 7180 	mov.w	r1, #256	@ 0x100
 80067ba:	4620      	mov	r0, r4
 80067bc:	f002 ffc6 	bl	800974c <HAL_GPIO_WritePin>
	HAL_Delay(60);
 80067c0:	203c      	movs	r0, #60	@ 0x3c
 80067c2:	f002 f8c3 	bl	800894c <HAL_Delay>
	BUZZER_OFF();
 80067c6:	2200      	movs	r2, #0
 80067c8:	f44f 7180 	mov.w	r1, #256	@ 0x100
 80067cc:	4620      	mov	r0, r4
 80067ce:	f002 ffbd 	bl	800974c <HAL_GPIO_WritePin>
	HAL_Delay(60);
 80067d2:	203c      	movs	r0, #60	@ 0x3c
 80067d4:	f002 f8ba 	bl	800894c <HAL_Delay>
	BUZZER_ON();
 80067d8:	2201      	movs	r2, #1
 80067da:	f44f 7180 	mov.w	r1, #256	@ 0x100
 80067de:	4620      	mov	r0, r4
 80067e0:	f002 ffb4 	bl	800974c <HAL_GPIO_WritePin>
	HAL_Delay(60);
 80067e4:	203c      	movs	r0, #60	@ 0x3c
 80067e6:	f002 f8b1 	bl	800894c <HAL_Delay>
	BUZZER_OFF();
 80067ea:	2200      	movs	r2, #0
 80067ec:	f44f 7180 	mov.w	r1, #256	@ 0x100
 80067f0:	4620      	mov	r0, r4
 80067f2:	f002 ffab 	bl	800974c <HAL_GPIO_WritePin>
	HAL_Delay(60);
 80067f6:	203c      	movs	r0, #60	@ 0x3c
 80067f8:	f002 f8a8 	bl	800894c <HAL_Delay>
	BUZZER_ON();
 80067fc:	2201      	movs	r2, #1
 80067fe:	f44f 7180 	mov.w	r1, #256	@ 0x100
 8006802:	4620      	mov	r0, r4
 8006804:	f002 ffa2 	bl	800974c <HAL_GPIO_WritePin>
	HAL_Delay(60);
 8006808:	203c      	movs	r0, #60	@ 0x3c
 800680a:	f002 f89f 	bl	800894c <HAL_Delay>
	BUZZER_OFF();
 800680e:	4620      	mov	r0, r4
 8006810:	2200      	movs	r2, #0
 8006812:	f44f 7180 	mov.w	r1, #256	@ 0x100
 8006816:	f002 ff99 	bl	800974c <HAL_GPIO_WritePin>
	HAL_Delay(60);
}
 800681a:	e8bd 4010 	ldmia.w	sp!, {r4, lr}
	HAL_Delay(60);
 800681e:	203c      	movs	r0, #60	@ 0x3c
 8006820:	f002 b894 	b.w	800894c <HAL_Delay>
 8006824:	40010c00 	.word	0x40010c00

08006828 <MX_DMA_Init>:
  */
void MX_DMA_Init(void)
{

  /* DMA controller clock enable */
  __HAL_RCC_DMA1_CLK_ENABLE();
 8006828:	4b0a      	ldr	r3, [pc, #40]	@ (8006854 <MX_DMA_Init+0x2c>)
{
 800682a:	b507      	push	{r0, r1, r2, lr}
  __HAL_RCC_DMA1_CLK_ENABLE();
 800682c:	695a      	ldr	r2, [r3, #20]

  /* DMA interrupt init */
  /* DMA1_Channel1_IRQn interrupt configuration */
  HAL_NVIC_SetPriority(DMA1_Channel1_IRQn, 0, 0);
 800682e:	200b      	movs	r0, #11
  __HAL_RCC_DMA1_CLK_ENABLE();
 8006830:	f042 0201 	orr.w	r2, r2, #1
 8006834:	615a      	str	r2, [r3, #20]
  HAL_NVIC_SetPriority(DMA1_Channel1_IRQn, 0, 0);
 8006836:	2200      	movs	r2, #0
  __HAL_RCC_DMA1_CLK_ENABLE();
 8006838:	695b      	ldr	r3, [r3, #20]
  HAL_NVIC_SetPriority(DMA1_Channel1_IRQn, 0, 0);
 800683a:	4611      	mov	r1, r2
  __HAL_RCC_DMA1_CLK_ENABLE();
 800683c:	f003 0301 	and.w	r3, r3, #1
 8006840:	9301      	str	r3, [sp, #4]
 8006842:	9b01      	ldr	r3, [sp, #4]
  HAL_NVIC_SetPriority(DMA1_Channel1_IRQn, 0, 0);
 8006844:	f002 fbb2 	bl	8008fac <HAL_NVIC_SetPriority>
  HAL_NVIC_EnableIRQ(DMA1_Channel1_IRQn);
 8006848:	200b      	movs	r0, #11

}
 800684a:	b003      	add	sp, #12
 800684c:	f85d eb04 	ldr.w	lr, [sp], #4
  HAL_NVIC_EnableIRQ(DMA1_Channel1_IRQn);
 8006850:	f002 bbdc 	b.w	800900c <HAL_NVIC_EnableIRQ>
 8006854:	40021000 	.word	0x40021000

08006858 <MX_GPIO_Init>:
        * EXTI
*/
void MX_GPIO_Init(void)
{

  GPIO_InitTypeDef GPIO_InitStruct = {0};
 8006858:	2210      	movs	r2, #16
{
 800685a:	e92d 43f0 	stmdb	sp!, {r4, r5, r6, r7, r8, r9, lr}
 800685e:	b089      	sub	sp, #36	@ 0x24
  GPIO_InitTypeDef GPIO_InitStruct = {0};
 8006860:	eb0d 0002 	add.w	r0, sp, r2
 8006864:	2100      	movs	r1, #0
 8006866:	f004 fceb 	bl	800b240 <memset>

  /* GPIO Ports Clock Enable */
  __HAL_RCC_GPIOC_CLK_ENABLE();
 800686a:	4b3a      	ldr	r3, [pc, #232]	@ (8006954 <MX_GPIO_Init+0xfc>)
  /*Configure GPIO pin Output Level */
  HAL_GPIO_WritePin(PEN_RESET_GPIO_Port, PEN_RESET_Pin, GPIO_PIN_RESET);

  /*Configure GPIO pins : DP_SW_4_Pin DP_SW_3_Pin DP_SW_2_Pin */
  GPIO_InitStruct.Pin = DP_SW_4_Pin|DP_SW_3_Pin|DP_SW_2_Pin;
  GPIO_InitStruct.Mode = GPIO_MODE_INPUT;
 800686c:	2400      	movs	r4, #0
  __HAL_RCC_GPIOC_CLK_ENABLE();
 800686e:	699a      	ldr	r2, [r3, #24]
  GPIO_InitStruct.Mode = GPIO_MODE_INPUT;
 8006870:	250e      	movs	r5, #14
  __HAL_RCC_GPIOC_CLK_ENABLE();
 8006872:	f042 0210 	orr.w	r2, r2, #16
 8006876:	619a      	str	r2, [r3, #24]
 8006878:	699a      	ldr	r2, [r3, #24]
  HAL_GPIO_WritePin(GPIOA, BOARD_LED_Pin|LED_2_Pin|LED_3_Pin, GPIO_PIN_RESET);
 800687a:	f8df 80dc 	ldr.w	r8, [pc, #220]	@ 8006958 <MX_GPIO_Init+0x100>
  __HAL_RCC_GPIOC_CLK_ENABLE();
 800687e:	f002 0210 	and.w	r2, r2, #16
 8006882:	9200      	str	r2, [sp, #0]
 8006884:	9a00      	ldr	r2, [sp, #0]
  __HAL_RCC_GPIOD_CLK_ENABLE();
 8006886:	699a      	ldr	r2, [r3, #24]
  HAL_GPIO_WritePin(GPIOB, GFIC_TEST_Pin|GFIC_RESET_Pin|PEN_RELAY_DRIVE_Pin|L_RELAY_Pin
 8006888:	4f34      	ldr	r7, [pc, #208]	@ (800695c <MX_GPIO_Init+0x104>)
  __HAL_RCC_GPIOD_CLK_ENABLE();
 800688a:	f042 0220 	orr.w	r2, r2, #32
 800688e:	619a      	str	r2, [r3, #24]
 8006890:	699a      	ldr	r2, [r3, #24]
  HAL_GPIO_WritePin(GPIOA, BOARD_LED_Pin|LED_2_Pin|LED_3_Pin, GPIO_PIN_RESET);
 8006892:	4640      	mov	r0, r8
  __HAL_RCC_GPIOD_CLK_ENABLE();
 8006894:	f002 0220 	and.w	r2, r2, #32
 8006898:	9201      	str	r2, [sp, #4]
 800689a:	9a01      	ldr	r2, [sp, #4]
  __HAL_RCC_GPIOA_CLK_ENABLE();
 800689c:	699a      	ldr	r2, [r3, #24]
  HAL_GPIO_WritePin(PEN_RESET_GPIO_Port, PEN_RESET_Pin, GPIO_PIN_RESET);
 800689e:	f8df 90c0 	ldr.w	r9, [pc, #192]	@ 8006960 <MX_GPIO_Init+0x108>
  __HAL_RCC_GPIOA_CLK_ENABLE();
 80068a2:	f042 0204 	orr.w	r2, r2, #4
 80068a6:	619a      	str	r2, [r3, #24]
 80068a8:	699a      	ldr	r2, [r3, #24]
  HAL_GPIO_WritePin(GPIOA, BOARD_LED_Pin|LED_2_Pin|LED_3_Pin, GPIO_PIN_RESET);
 80068aa:	210e      	movs	r1, #14
  __HAL_RCC_GPIOA_CLK_ENABLE();
 80068ac:	f002 0204 	and.w	r2, r2, #4
 80068b0:	9202      	str	r2, [sp, #8]
 80068b2:	9a02      	ldr	r2, [sp, #8]
  __HAL_RCC_GPIOB_CLK_ENABLE();
 80068b4:	699a      	ldr	r2, [r3, #24]
  GPIO_InitStruct.Pull = GPIO_NOPULL;
  HAL_GPIO_Init(GPIOC, &GPIO_InitStruct);

  /*Configure GPIO pins : BOARD_LED_Pin LED_2_Pin LED_3_Pin */
  GPIO_InitStruct.Pin = BOARD_LED_Pin|LED_2_Pin|LED_3_Pin;
  GPIO_InitStruct.Mode = GPIO_MODE_OUTPUT_PP;
 80068b6:	2601      	movs	r6, #1
  __HAL_RCC_GPIOB_CLK_ENABLE();
 80068b8:	f042 0208 	orr.w	r2, r2, #8
 80068bc:	619a      	str	r2, [r3, #24]
 80068be:	699b      	ldr	r3, [r3, #24]
  HAL_GPIO_WritePin(GPIOA, BOARD_LED_Pin|LED_2_Pin|LED_3_Pin, GPIO_PIN_RESET);
 80068c0:	2200      	movs	r2, #0
  __HAL_RCC_GPIOB_CLK_ENABLE();
 80068c2:	f003 0308 	and.w	r3, r3, #8
 80068c6:	9303      	str	r3, [sp, #12]
 80068c8:	9b03      	ldr	r3, [sp, #12]
  HAL_GPIO_WritePin(GPIOA, BOARD_LED_Pin|LED_2_Pin|LED_3_Pin, GPIO_PIN_RESET);
 80068ca:	f002 ff3f 	bl	800974c <HAL_GPIO_WritePin>
  HAL_GPIO_WritePin(GPIOB, GFIC_TEST_Pin|GFIC_RESET_Pin|PEN_RELAY_DRIVE_Pin|L_RELAY_Pin
 80068ce:	4638      	mov	r0, r7
 80068d0:	2200      	movs	r2, #0
 80068d2:	f243 1118 	movw	r1, #12568	@ 0x3118
 80068d6:	f002 ff39 	bl	800974c <HAL_GPIO_WritePin>
  HAL_GPIO_WritePin(PEN_RESET_GPIO_Port, PEN_RESET_Pin, GPIO_PIN_RESET);
 80068da:	2200      	movs	r2, #0
 80068dc:	4648      	mov	r0, r9
 80068de:	2104      	movs	r1, #4
 80068e0:	f002 ff34 	bl	800974c <HAL_GPIO_WritePin>
  HAL_GPIO_Init(GPIOC, &GPIO_InitStruct);
 80068e4:	a904      	add	r1, sp, #16
 80068e6:	481f      	ldr	r0, [pc, #124]	@ (8006964 <MX_GPIO_Init+0x10c>)
  GPIO_InitStruct.Mode = GPIO_MODE_INPUT;
 80068e8:	e9cd 5404 	strd	r5, r4, [sp, #16]
  GPIO_InitStruct.Pull = GPIO_NOPULL;
 80068ec:	9406      	str	r4, [sp, #24]
  HAL_GPIO_Init(GPIOC, &GPIO_InitStruct);
 80068ee:	f002 fe53 	bl	8009598 <HAL_GPIO_Init>
  GPIO_InitStruct.Pin = BOARD_LED_Pin|LED_2_Pin|LED_3_Pin;
 80068f2:	9504      	str	r5, [sp, #16]
  GPIO_InitStruct.Pull = GPIO_NOPULL;
  GPIO_InitStruct.Speed = GPIO_SPEED_FREQ_LOW;
 80068f4:	2502      	movs	r5, #2
  HAL_GPIO_Init(GPIOA, &GPIO_InitStruct);
 80068f6:	4640      	mov	r0, r8
 80068f8:	a904      	add	r1, sp, #16
  GPIO_InitStruct.Pull = GPIO_NOPULL;
 80068fa:	e9cd 6405 	strd	r6, r4, [sp, #20]
  GPIO_InitStruct.Speed = GPIO_SPEED_FREQ_LOW;
 80068fe:	9507      	str	r5, [sp, #28]
  HAL_GPIO_Init(GPIOA, &GPIO_InitStruct);
 8006900:	f002 fe4a 	bl	8009598 <HAL_GPIO_Init>

  /*Configure GPIO pins : DP_SW_1_Pin PEN_SENSE_Pin */
  GPIO_InitStruct.Pin = DP_SW_1_Pin|PEN_SENSE_Pin;
 8006904:	f44f 5384 	mov.w	r3, #4224	@ 0x1080
  GPIO_InitStruct.Mode = GPIO_MODE_INPUT;
  GPIO_InitStruct.Pull = GPIO_NOPULL;
  HAL_GPIO_Init(GPIOA, &GPIO_InitStruct);
 8006908:	4640      	mov	r0, r8
 800690a:	a904      	add	r1, sp, #16
  GPIO_InitStruct.Mode = GPIO_MODE_INPUT;
 800690c:	e9cd 3404 	strd	r3, r4, [sp, #16]
  GPIO_InitStruct.Pull = GPIO_NOPULL;
 8006910:	9406      	str	r4, [sp, #24]
  HAL_GPIO_Init(GPIOA, &GPIO_InitStruct);
 8006912:	f002 fe41 	bl	8009598 <HAL_GPIO_Init>

  /*Configure GPIO pins : GFIC_TEST_Pin GFIC_RESET_Pin PEN_RELAY_DRIVE_Pin L_RELAY_Pin
                           BUZZER_Pin */
  GPIO_InitStruct.Pin = GFIC_TEST_Pin|GFIC_RESET_Pin|PEN_RELAY_DRIVE_Pin|L_RELAY_Pin
 8006916:	f243 1318 	movw	r3, #12568	@ 0x3118
                          |BUZZER_Pin;
  GPIO_InitStruct.Mode = GPIO_MODE_OUTPUT_PP;
  GPIO_InitStruct.Pull = GPIO_NOPULL;
  GPIO_InitStruct.Speed = GPIO_SPEED_FREQ_LOW;
  HAL_GPIO_Init(GPIOB, &GPIO_InitStruct);
 800691a:	4638      	mov	r0, r7
 800691c:	a904      	add	r1, sp, #16
  GPIO_InitStruct.Mode = GPIO_MODE_OUTPUT_PP;
 800691e:	e9cd 3604 	strd	r3, r6, [sp, #16]
  GPIO_InitStruct.Speed = GPIO_SPEED_FREQ_LOW;
 8006922:	e9cd 4506 	strd	r4, r5, [sp, #24]
  HAL_GPIO_Init(GPIOB, &GPIO_InitStruct);
 8006926:	f002 fe37 	bl	8009598 <HAL_GPIO_Init>

  /*Configure GPIO pins : GFIC_SENSE_Pin C_FB_Pin */
  GPIO_InitStruct.Pin = GFIC_SENSE_Pin|C_FB_Pin;
 800692a:	f244 0320 	movw	r3, #16416	@ 0x4020
  GPIO_InitStruct.Mode = GPIO_MODE_INPUT;
  GPIO_InitStruct.Pull = GPIO_NOPULL;
  HAL_GPIO_Init(GPIOB, &GPIO_InitStruct);
 800692e:	4638      	mov	r0, r7
 8006930:	a904      	add	r1, sp, #16
  GPIO_InitStruct.Mode = GPIO_MODE_INPUT;
 8006932:	e9cd 3404 	strd	r3, r4, [sp, #16]
  GPIO_InitStruct.Pull = GPIO_NOPULL;
 8006936:	9406      	str	r4, [sp, #24]
  HAL_GPIO_Init(GPIOB, &GPIO_InitStruct);
 8006938:	f002 fe2e 	bl	8009598 <HAL_GPIO_Init>

  /*Configure GPIO pin : PEN_RESET_Pin */
  GPIO_InitStruct.Pin = PEN_RESET_Pin;
 800693c:	2304      	movs	r3, #4
  GPIO_InitStruct.Mode = GPIO_MODE_OUTPUT_PP;
  GPIO_InitStruct.Pull = GPIO_NOPULL;
  GPIO_InitStruct.Speed = GPIO_SPEED_FREQ_LOW;
  HAL_GPIO_Init(PEN_RESET_GPIO_Port, &GPIO_InitStruct);
 800693e:	4648      	mov	r0, r9
 8006940:	a904      	add	r1, sp, #16
  GPIO_InitStruct.Mode = GPIO_MODE_OUTPUT_PP;
 8006942:	e9cd 3604 	strd	r3, r6, [sp, #16]
  GPIO_InitStruct.Speed = GPIO_SPEED_FREQ_LOW;
 8006946:	e9cd 4506 	strd	r4, r5, [sp, #24]
  HAL_GPIO_Init(PEN_RESET_GPIO_Port, &GPIO_InitStruct);
 800694a:	f002 fe25 	bl	8009598 <HAL_GPIO_Init>

}
 800694e:	b009      	add	sp, #36	@ 0x24
 8006950:	e8bd 83f0 	ldmia.w	sp!, {r4, r5, r6, r7, r8, r9, pc}
 8006954:	40021000 	.word	0x40021000
 8006958:	40010800 	.word	0x40010800
 800695c:	40010c00 	.word	0x40010c00
 8006960:	40011400 	.word	0x40011400
 8006964:	40011000 	.word	0x40011000

08006968 <get_GPIOFeedback>:
 *          counter reaches `checkCounter`, the contactor state is updated in
 *          the `powerSide_data` structure.
 */
static void get_ContactorFB(void)
{
    if (C_FB() == 1)
 8006968:	2120      	movs	r1, #32
 *
 * @details This function is the main entry point for updating the contactor
 *          state based on GPIO feedback. It internally calls `get_ContactorFB()`.
 */
void get_GPIOFeedback(void)
{
 800696a:	b508      	push	{r3, lr}
    if (C_FB() == 1)
 800696c:	4811      	ldr	r0, [pc, #68]	@ (80069b4 <get_GPIOFeedback+0x4c>)
 800696e:	f002 fee7 	bl	8009740 <HAL_GPIO_ReadPin>
 8006972:	4a11      	ldr	r2, [pc, #68]	@ (80069b8 <get_GPIOFeedback+0x50>)
 8006974:	4911      	ldr	r1, [pc, #68]	@ (80069bc <get_GPIOFeedback+0x54>)
 8006976:	b978      	cbnz	r0, 8006998 <get_GPIOFeedback+0x30>
        CFB_inCounter++;
 8006978:	780b      	ldrb	r3, [r1, #0]
        CFB_outCounter = 0;
 800697a:	7010      	strb	r0, [r2, #0]
        CFB_inCounter++;
 800697c:	3301      	adds	r3, #1
 800697e:	b2db      	uxtb	r3, r3
        if (CFB_inCounter >= checkCounter)
 8006980:	2b04      	cmp	r3, #4
 8006982:	d801      	bhi.n	8006988 <get_GPIOFeedback+0x20>
        CFB_inCounter++;
 8006984:	700b      	strb	r3, [r1, #0]
    get_ContactorFB();
}
 8006986:	bd08      	pop	{r3, pc}
            CFB_inCounter = 0;
 8006988:	7008      	strb	r0, [r1, #0]
            powerSide_data.status.bit.contactor_state = ON;
 800698a:	2101      	movs	r1, #1
 800698c:	4a0c      	ldr	r2, [pc, #48]	@ (80069c0 <get_GPIOFeedback+0x58>)
 800698e:	7813      	ldrb	r3, [r2, #0]
 8006990:	f361 1387 	bfi	r3, r1, #6, #2
            powerSide_data.status.bit.contactor_state = OFF;
 8006994:	7013      	strb	r3, [r2, #0]
}
 8006996:	e7f6      	b.n	8006986 <get_GPIOFeedback+0x1e>
        CFB_inCounter = 0;
 8006998:	2000      	movs	r0, #0
        CFB_outCounter++;
 800699a:	7813      	ldrb	r3, [r2, #0]
        CFB_inCounter = 0;
 800699c:	7008      	strb	r0, [r1, #0]
        CFB_outCounter++;
 800699e:	3301      	adds	r3, #1
 80069a0:	b2db      	uxtb	r3, r3
        if (CFB_outCounter >= checkCounter)
 80069a2:	2b04      	cmp	r3, #4
            CFB_outCounter = 0;
 80069a4:	bf81      	itttt	hi
 80069a6:	7010      	strbhi	r0, [r2, #0]
            powerSide_data.status.bit.contactor_state = OFF;
 80069a8:	4a05      	ldrhi	r2, [pc, #20]	@ (80069c0 <get_GPIOFeedback+0x58>)
 80069aa:	7813      	ldrbhi	r3, [r2, #0]
 80069ac:	f360 1387 	bfihi	r3, r0, #6, #2
 80069b0:	e7f0      	b.n	8006994 <get_GPIOFeedback+0x2c>
 80069b2:	bf00      	nop
 80069b4:	40010c00 	.word	0x40010c00
 80069b8:	2000147c 	.word	0x2000147c
 80069bc:	2000147d 	.word	0x2000147d
 80069c0:	20001428 	.word	0x20001428

080069c4 <SystemClock_Config>:
/**
  * @brief System Clock Configuration
  * @retval None
  */
void SystemClock_Config(void)
{
 80069c4:	b510      	push	{r4, lr}
 80069c6:	b094      	sub	sp, #80	@ 0x50
  RCC_OscInitTypeDef RCC_OscInitStruct = {0};
 80069c8:	2210      	movs	r2, #16
 80069ca:	2100      	movs	r1, #0
 80069cc:	a80c      	add	r0, sp, #48	@ 0x30
 80069ce:	f004 fc37 	bl	800b240 <memset>
  RCC_ClkInitTypeDef RCC_ClkInitStruct = {0};
 80069d2:	2214      	movs	r2, #20
 80069d4:	2100      	movs	r1, #0
 80069d6:	eb0d 0002 	add.w	r0, sp, r2
 80069da:	f004 fc31 	bl	800b240 <memset>
  RCC_PeriphCLKInitTypeDef PeriphClkInit = {0};
 80069de:	2210      	movs	r2, #16
 80069e0:	2100      	movs	r1, #0
 80069e2:	a801      	add	r0, sp, #4
 80069e4:	f004 fc2c 	bl	800b240 <memset>
  RCC_OscInitStruct.OscillatorType = RCC_OSCILLATORTYPE_LSI|RCC_OSCILLATORTYPE_HSE;
  RCC_OscInitStruct.HSEState = RCC_HSE_ON;
  RCC_OscInitStruct.HSEPredivValue = RCC_HSE_PREDIV_DIV1;
  RCC_OscInitStruct.HSIState = RCC_HSI_ON;
  RCC_OscInitStruct.LSIState = RCC_LSI_ON;
  RCC_OscInitStruct.PLL.PLLState = RCC_PLL_ON;
 80069e8:	2402      	movs	r4, #2
  RCC_OscInitStruct.HSEState = RCC_HSE_ON;
 80069ea:	f44f 3380 	mov.w	r3, #65536	@ 0x10000
 80069ee:	2109      	movs	r1, #9
  RCC_OscInitStruct.HSIState = RCC_HSI_ON;
 80069f0:	2201      	movs	r2, #1
  RCC_OscInitStruct.HSEState = RCC_HSE_ON;
 80069f2:	e9cd 130a 	strd	r1, r3, [sp, #40]	@ 0x28
  RCC_OscInitStruct.PLL.PLLSource = RCC_PLLSOURCE_HSE;
 80069f6:	e9cd 4311 	strd	r4, r3, [sp, #68]	@ 0x44
  RCC_OscInitStruct.PLL.PLLMUL = RCC_PLL_MUL9;
 80069fa:	f44f 13e0 	mov.w	r3, #1835008	@ 0x1c0000
  if (HAL_RCC_OscConfig(&RCC_OscInitStruct) != HAL_OK)
 80069fe:	a80a      	add	r0, sp, #40	@ 0x28
  RCC_OscInitStruct.HSIState = RCC_HSI_ON;
 8006a00:	920e      	str	r2, [sp, #56]	@ 0x38
  RCC_OscInitStruct.LSIState = RCC_LSI_ON;
 8006a02:	9210      	str	r2, [sp, #64]	@ 0x40
  RCC_OscInitStruct.PLL.PLLMUL = RCC_PLL_MUL9;
 8006a04:	9313      	str	r3, [sp, #76]	@ 0x4c
  if (HAL_RCC_OscConfig(&RCC_OscInitStruct) != HAL_OK)
 8006a06:	f002 feb5 	bl	8009774 <HAL_RCC_OscConfig>
 8006a0a:	b108      	cbz	r0, 8006a10 <SystemClock_Config+0x4c>
  \details Disables IRQ interrupts by setting the I-bit in the CPSR.
           Can only be executed in Privileged modes.
 */
__STATIC_FORCEINLINE void __disable_irq(void)
{
  __ASM volatile ("cpsid i" : : : "memory");
 8006a0c:	b672      	cpsid	i
void Error_Handler(void)
{
  /* USER CODE BEGIN Error_Handler_Debug */
  /* User can add his own implementation to report the HAL error return state */
  __disable_irq();
  while (1)
 8006a0e:	e7fe      	b.n	8006a0e <SystemClock_Config+0x4a>
  RCC_ClkInitStruct.ClockType = RCC_CLOCKTYPE_HCLK|RCC_CLOCKTYPE_SYSCLK
 8006a10:	230f      	movs	r3, #15
  RCC_ClkInitStruct.SYSCLKSource = RCC_SYSCLKSOURCE_PLLCLK;
 8006a12:	e9cd 3405 	strd	r3, r4, [sp, #20]
  RCC_ClkInitStruct.APB1CLKDivider = RCC_HCLK_DIV2;
 8006a16:	f44f 6380 	mov.w	r3, #1024	@ 0x400
  RCC_ClkInitStruct.AHBCLKDivider = RCC_SYSCLK_DIV1;
 8006a1a:	9007      	str	r0, [sp, #28]
  RCC_ClkInitStruct.APB2CLKDivider = RCC_HCLK_DIV1;
 8006a1c:	e9cd 3008 	strd	r3, r0, [sp, #32]
  if (HAL_RCC_ClockConfig(&RCC_ClkInitStruct, FLASH_LATENCY_2) != HAL_OK)
 8006a20:	4621      	mov	r1, r4
 8006a22:	a805      	add	r0, sp, #20
 8006a24:	f003 f868 	bl	8009af8 <HAL_RCC_ClockConfig>
 8006a28:	b108      	cbz	r0, 8006a2e <SystemClock_Config+0x6a>
 8006a2a:	b672      	cpsid	i
  while (1)
 8006a2c:	e7fe      	b.n	8006a2c <SystemClock_Config+0x68>
  PeriphClkInit.RTCClockSelection = RCC_RTCCLKSOURCE_LSI;
 8006a2e:	f44f 7300 	mov.w	r3, #512	@ 0x200
 8006a32:	2203      	movs	r2, #3
 8006a34:	e9cd 2301 	strd	r2, r3, [sp, #4]
  PeriphClkInit.AdcClockSelection = RCC_ADCPCLK2_DIV6;
 8006a38:	f44f 4300 	mov.w	r3, #32768	@ 0x8000
  if (HAL_RCCEx_PeriphCLKConfig(&PeriphClkInit) != HAL_OK)
 8006a3c:	a801      	add	r0, sp, #4
  PeriphClkInit.AdcClockSelection = RCC_ADCPCLK2_DIV6;
 8006a3e:	9303      	str	r3, [sp, #12]
  if (HAL_RCCEx_PeriphCLKConfig(&PeriphClkInit) != HAL_OK)
 8006a40:	f003 f916 	bl	8009c70 <HAL_RCCEx_PeriphCLKConfig>
 8006a44:	b108      	cbz	r0, 8006a4a <SystemClock_Config+0x86>
 8006a46:	b672      	cpsid	i
  while (1)
 8006a48:	e7fe      	b.n	8006a48 <SystemClock_Config+0x84>
}
 8006a4a:	b014      	add	sp, #80	@ 0x50
 8006a4c:	bd10      	pop	{r4, pc}
	...

08006a50 <main>:
{
 8006a50:	e92d 4888 	stmdb	sp!, {r3, r7, fp, lr}
	  					- ((adc_store[5] / 4095.0) * VREF)) / 0.0043) + 25.0);
 8006a54:	f20f 2910 	addw	r9, pc, #528	@ 0x210
 8006a58:	e9d9 8900 	ldrd	r8, r9, [r9]
 8006a5c:	a784      	add	r7, pc, #528	@ (adr r7, 8006c70 <main+0x220>)
 8006a5e:	e9d7 6700 	ldrd	r6, r7, [r7]
  HAL_Init();
 8006a62:	f001 ff4f 	bl	8008904 <HAL_Init>
  SystemClock_Config();
 8006a66:	f7ff ffad 	bl	80069c4 <SystemClock_Config>
  MX_GPIO_Init();
 8006a6a:	f7ff fef5 	bl	8006858 <MX_GPIO_Init>
  MX_DMA_Init();
 8006a6e:	f7ff fedb 	bl	8006828 <MX_DMA_Init>
  MX_ADC1_Init();
 8006a72:	f7fe ffaf 	bl	80059d4 <MX_ADC1_Init>
  MX_TIM3_Init();
 8006a76:	f001 fcbf 	bl	80083f8 <MX_TIM3_Init>
  MX_USART1_UART_Init();
 8006a7a:	f001 fdb3 	bl	80085e4 <MX_USART1_UART_Init>
  MX_USART3_UART_Init();
 8006a7e:	f001 fdd3 	bl	8008628 <MX_USART3_UART_Init>
  MX_RTC_Init();
 8006a82:	f000 fe35 	bl	80076f0 <MX_RTC_Init>
  MX_TIM2_Init();
 8006a86:	f001 fc2d 	bl	80082e4 <MX_TIM2_Init>
  	HAL_TIM_Base_Start_IT(&htim2);
 8006a8a:	487d      	ldr	r0, [pc, #500]	@ (8006c80 <main+0x230>)
 8006a8c:	f003 fbee 	bl	800a26c <HAL_TIM_Base_Start_IT>
  	HAL_TIM_PWM_Start(&htim3, TIM_CHANNEL_1);
 8006a90:	2100      	movs	r1, #0
 8006a92:	487c      	ldr	r0, [pc, #496]	@ (8006c84 <main+0x234>)
 8006a94:	f003 febc 	bl	800a810 <HAL_TIM_PWM_Start>
  	HAL_TIM_PWM_Start(&htim3, TIM_CHANNEL_4);
 8006a98:	210c      	movs	r1, #12
 8006a9a:	487a      	ldr	r0, [pc, #488]	@ (8006c84 <main+0x234>)
 8006a9c:	f003 feb8 	bl	800a810 <HAL_TIM_PWM_Start>
  	HAL_ADCEx_Calibration_Start(&hadc1);
 8006aa0:	4879      	ldr	r0, [pc, #484]	@ (8006c88 <main+0x238>)
 8006aa2:	f002 f9ff 	bl	8008ea4 <HAL_ADCEx_Calibration_Start>
  	HAL_ADC_Start_DMA(&hadc1, (uint32_t*) adc_store, 7);
 8006aa6:	2207      	movs	r2, #7
 8006aa8:	4978      	ldr	r1, [pc, #480]	@ (8006c8c <main+0x23c>)
 8006aaa:	4877      	ldr	r0, [pc, #476]	@ (8006c88 <main+0x238>)
 8006aac:	f002 f8c8 	bl	8008c40 <HAL_ADC_Start_DMA>
	init_dataStructures();
 8006ab0:	f7ff fdca 	bl	8006648 <init_dataStructures>
	initializeStateMachine((StateMachine*) &sm);
 8006ab4:	4876      	ldr	r0, [pc, #472]	@ (8006c90 <main+0x240>)
 8006ab6:	f000 fe6d 	bl	8007794 <initializeStateMachine>
	get_HWVersion();
 8006aba:	f7ff f921 	bl	8005d00 <get_HWVersion>
	cpCalibrate();
 8006abe:	f7ff fb27 	bl	8006110 <cpCalibrate>
	GFIC_RESET_ON();
 8006ac2:	2201      	movs	r2, #1
 8006ac4:	f44f 5100 	mov.w	r1, #8192	@ 0x2000
 8006ac8:	4872      	ldr	r0, [pc, #456]	@ (8006c94 <main+0x244>)
 8006aca:	f002 fe3f 	bl	800974c <HAL_GPIO_WritePin>
	PEN_RESET_ON();
 8006ace:	2201      	movs	r2, #1
 8006ad0:	2104      	movs	r1, #4
 8006ad2:	4871      	ldr	r0, [pc, #452]	@ (8006c98 <main+0x248>)
 8006ad4:	f002 fe3a 	bl	800974c <HAL_GPIO_WritePin>
	HAL_Delay(100);
 8006ad8:	2064      	movs	r0, #100	@ 0x64
 8006ada:	f001 ff37 	bl	800894c <HAL_Delay>
	GFIC_RESET_OFF();
 8006ade:	2200      	movs	r2, #0
 8006ae0:	f44f 5100 	mov.w	r1, #8192	@ 0x2000
 8006ae4:	486b      	ldr	r0, [pc, #428]	@ (8006c94 <main+0x244>)
 8006ae6:	f002 fe31 	bl	800974c <HAL_GPIO_WritePin>
	PEN_RESET_OFF();
 8006aea:	2104      	movs	r1, #4
 8006aec:	486a      	ldr	r0, [pc, #424]	@ (8006c98 <main+0x248>)
 8006aee:	2200      	movs	r2, #0
 8006af0:	f002 fe2c 	bl	800974c <HAL_GPIO_WritePin>
	run_GFITest = true;
 8006af4:	2201      	movs	r2, #1
 8006af6:	4b69      	ldr	r3, [pc, #420]	@ (8006c9c <main+0x24c>)
 8006af8:	701a      	strb	r2, [r3, #0]
	buzzer_poweron();
 8006afa:	f7ff fe35 	bl	8006768 <buzzer_poweron>
	CSMS_Init();
 8006afe:	f7fe fc39 	bl	8005374 <CSMS_Init>
	ModbusRTU_Init();
 8006b02:	f7fe fa93 	bl	800502c <ModbusRTU_Init>
	tick_clear(&timeout);
 8006b06:	4866      	ldr	r0, [pc, #408]	@ (8006ca0 <main+0x250>)
 8006b08:	f001 fcc6 	bl	8008498 <tick_clear>
	tick_clear(&gfi_test);
 8006b0c:	4865      	ldr	r0, [pc, #404]	@ (8006ca4 <main+0x254>)
 8006b0e:	f001 fcc3 	bl	8008498 <tick_clear>
	tick_clear(&rtc_checkCounter);
 8006b12:	4865      	ldr	r0, [pc, #404]	@ (8006ca8 <main+0x258>)
 8006b14:	f001 fcc0 	bl	8008498 <tick_clear>
	tick_clear(&rtc_updateCounter);
 8006b18:	4864      	ldr	r0, [pc, #400]	@ (8006cac <main+0x25c>)
 8006b1a:	f001 fcbd 	bl	8008498 <tick_clear>
	tick_clear(&serial_error);
 8006b1e:	4864      	ldr	r0, [pc, #400]	@ (8006cb0 <main+0x260>)
 8006b20:	f001 fcba 	bl	8008498 <tick_clear>
	tick_clear(&load_balance6s);
 8006b24:	4863      	ldr	r0, [pc, #396]	@ (8006cb4 <main+0x264>)
 8006b26:	f001 fcb7 	bl	8008498 <tick_clear>
	tick_clear(&error_handler);
 8006b2a:	4863      	ldr	r0, [pc, #396]	@ (8006cb8 <main+0x268>)
 8006b2c:	f001 fcb4 	bl	8008498 <tick_clear>
	  		if (charger_init_flag == false)
 8006b30:	4c62      	ldr	r4, [pc, #392]	@ (8006cbc <main+0x26c>)
 8006b32:	4d63      	ldr	r5, [pc, #396]	@ (8006cc0 <main+0x270>)
 8006b34:	7823      	ldrb	r3, [r4, #0]
 8006b36:	f8df a168 	ldr.w	sl, [pc, #360]	@ 8006ca0 <main+0x250>
 8006b3a:	b963      	cbnz	r3, 8006b56 <main+0x106>
	  			if ((networkSide_bootup == true)			//Serial check
 8006b3c:	4b61      	ldr	r3, [pc, #388]	@ (8006cc4 <main+0x274>)
 8006b3e:	781b      	ldrb	r3, [r3, #0]
 8006b40:	b14b      	cbz	r3, 8006b56 <main+0x106>
	  					&& (bootup_timeUpdate == true)		//RTC check
 8006b42:	782b      	ldrb	r3, [r5, #0]
 8006b44:	b13b      	cbz	r3, 8006b56 <main+0x106>
	  					&& ((timeout.timeout_30s == true) || (emeter_bootup == true)))//Modbus check or 30sec Timeout
 8006b46:	f89a 300f 	ldrb.w	r3, [sl, #15]
 8006b4a:	b913      	cbnz	r3, 8006b52 <main+0x102>
 8006b4c:	4b5e      	ldr	r3, [pc, #376]	@ (8006cc8 <main+0x278>)
 8006b4e:	781b      	ldrb	r3, [r3, #0]
 8006b50:	b10b      	cbz	r3, 8006b56 <main+0x106>
	  				charger_init_flag = true;
 8006b52:	2301      	movs	r3, #1
 8006b54:	7023      	strb	r3, [r4, #0]
	  		if (charger_setup_flag == false)
 8006b56:	f8df b174 	ldr.w	fp, [pc, #372]	@ 8006ccc <main+0x27c>
 8006b5a:	f89b 3000 	ldrb.w	r3, [fp]
 8006b5e:	b923      	cbnz	r3, 8006b6a <main+0x11a>
	  			get_chargerConfig();
 8006b60:	f7ff f86a 	bl	8005c38 <get_chargerConfig>
	  			charger_setup_flag = true;
 8006b64:	2301      	movs	r3, #1
 8006b66:	f88b 3000 	strb.w	r3, [fp]
	  		if (charger_configSet.config_enable == true)
 8006b6a:	f8df b164 	ldr.w	fp, [pc, #356]	@ 8006cd0 <main+0x280>
 8006b6e:	f89b 3013 	ldrb.w	r3, [fp, #19]
 8006b72:	b123      	cbz	r3, 8006b7e <main+0x12e>
	  			set_chargerConfig();
 8006b74:	f7ff f88e 	bl	8005c94 <set_chargerConfig>
	  			charger_configSet.config_enable = false;
 8006b78:	2300      	movs	r3, #0
 8006b7a:	f88b 3013 	strb.w	r3, [fp, #19]
	  		if (cpCalibrate_cmplt == true)
 8006b7e:	f8df b154 	ldr.w	fp, [pc, #340]	@ 8006cd4 <main+0x284>
 8006b82:	f89b 3000 	ldrb.w	r3, [fp]
 8006b86:	b123      	cbz	r3, 8006b92 <main+0x142>
	  			cpCalibrate_save();
 8006b88:	f7ff f8e6 	bl	8005d58 <cpCalibrate_save>
	  			cpCalibrate_cmplt = false;
 8006b8c:	2300      	movs	r3, #0
 8006b8e:	f88b 3000 	strb.w	r3, [fp]
	  		check_vehicleConnector();
 8006b92:	f7ff fcf3 	bl	800657c <check_vehicleConnector>
	  		check_PWMActive();
 8006b96:	f7ff fd1d 	bl	80065d4 <check_PWMActive>
	  		if (timeout.timeout_0_5s == true)
 8006b9a:	f89a 3006 	ldrb.w	r3, [sl, #6]
 8006b9e:	b10b      	cbz	r3, 8006ba4 <main+0x154>
	  			check_diode();
 8006ba0:	f7ff fc78 	bl	8006494 <check_diode>
	  		ModbusRTU_functions();
 8006ba4:	f7fe fa48 	bl	8005038 <ModbusRTU_functions>
	  		get_EnergyMeterData();
 8006ba8:	f000 f930 	bl	8006e0c <get_EnergyMeterData>
	  		if (charger_init_flag == true)
 8006bac:	7823      	ldrb	r3, [r4, #0]
 8006bae:	b10b      	cbz	r3, 8006bb4 <main+0x164>
	  			CSMS_functions();
 8006bb0:	f7fe fbe2 	bl	8005378 <CSMS_functions>
	  		transmitSerial();
 8006bb4:	f001 fde6 	bl	8008784 <transmitSerial>
	  		bootup_timeUpdate = true;
 8006bb8:	2301      	movs	r3, #1
	  		if (debug_count >= 6000)
 8006bba:	f241 716f 	movw	r1, #5999	@ 0x176f
	  		debug_count++;
 8006bbe:	4a46      	ldr	r2, [pc, #280]	@ (8006cd8 <main+0x288>)
	  		bootup_timeUpdate = true;
 8006bc0:	702b      	strb	r3, [r5, #0]
	  		debug_count++;
 8006bc2:	8813      	ldrh	r3, [r2, #0]
 8006bc4:	3301      	adds	r3, #1
 8006bc6:	b29b      	uxth	r3, r3
	  		if (debug_count >= 6000)
 8006bc8:	428b      	cmp	r3, r1
 8006bca:	d818      	bhi.n	8006bfe <main+0x1ae>
	  		debug_count++;
 8006bcc:	8013      	strh	r3, [r2, #0]
	  		get_EnergyMeterData();
 8006bce:	f000 f91d 	bl	8006e0c <get_EnergyMeterData>
	  		calculate_Energy();
 8006bd2:	f000 f8df 	bl	8006d94 <calculate_Energy>
	  		if (buzzer_en == true)
 8006bd6:	4b41      	ldr	r3, [pc, #260]	@ (8006cdc <main+0x28c>)
 8006bd8:	781a      	ldrb	r2, [r3, #0]
 8006bda:	b11a      	cbz	r2, 8006be4 <main+0x194>
	  			buzzer_en = false;
 8006bdc:	2200      	movs	r2, #0
 8006bde:	701a      	strb	r2, [r3, #0]
	  			buzzer_on();
 8006be0:	f7ff fd98 	bl	8006714 <buzzer_on>
	  		errorBuffer_log();
 8006be4:	f000 fd32 	bl	800764c <errorBuffer_log>
	  		errorBuffer_report();
 8006be8:	f000 fd4c 	bl	8007684 <errorBuffer_report>
	  		if (OTA_flag == true)
 8006bec:	4b3c      	ldr	r3, [pc, #240]	@ (8006ce0 <main+0x290>)
 8006bee:	781a      	ldrb	r2, [r3, #0]
 8006bf0:	2a00      	cmp	r2, #0
 8006bf2:	d09d      	beq.n	8006b30 <main+0xe0>
	  			OTA_flag = false;
 8006bf4:	2200      	movs	r2, #0
 8006bf6:	701a      	strb	r2, [r3, #0]
	  			Flag_up();
 8006bf8:	f7fe fea8 	bl	800594c <Flag_up>
 8006bfc:	e798      	b.n	8006b30 <main+0xe0>
	  			debug_count = 0;
 8006bfe:	2300      	movs	r3, #0
	  			HAL_GPIO_TogglePin(BOARD_LED_GPIO_Port, BOARD_LED_Pin);
 8006c00:	2102      	movs	r1, #2
 8006c02:	4838      	ldr	r0, [pc, #224]	@ (8006ce4 <main+0x294>)
	  			debug_count = 0;
 8006c04:	8013      	strh	r3, [r2, #0]
	  			HAL_GPIO_TogglePin(BOARD_LED_GPIO_Port, BOARD_LED_Pin);
 8006c06:	f002 fda6 	bl	8009756 <HAL_GPIO_TogglePin>
	  			temperature_NTC();
 8006c0a:	f001 fad9 	bl	80081c0 <temperature_NTC>
	  					- ((adc_store[5] / 4095.0) * VREF)) / 0.0043) + 25.0);
 8006c0e:	4b1f      	ldr	r3, [pc, #124]	@ (8006c8c <main+0x23c>)
 8006c10:	8958      	ldrh	r0, [r3, #10]
 8006c12:	4b35      	ldr	r3, [pc, #212]	@ (8006ce8 <main+0x298>)
 8006c14:	b280      	uxth	r0, r0
 8006c16:	f8d3 a000 	ldr.w	sl, [r3]
 8006c1a:	f7fc ffeb 	bl	8003bf4 <__aeabi_i2d>
 8006c1e:	a316      	add	r3, pc, #88	@ (adr r3, 8006c78 <main+0x228>)
 8006c20:	e9d3 2300 	ldrd	r2, r3, [r3]
 8006c24:	f7fd f97a 	bl	8003f1c <__aeabi_ddiv>
 8006c28:	4604      	mov	r4, r0
 8006c2a:	4650      	mov	r0, sl
 8006c2c:	460d      	mov	r5, r1
 8006c2e:	f7fc fff3 	bl	8003c18 <__aeabi_f2d>
 8006c32:	4602      	mov	r2, r0
 8006c34:	460b      	mov	r3, r1
 8006c36:	4620      	mov	r0, r4
 8006c38:	4629      	mov	r1, r5
 8006c3a:	f7fd f845 	bl	8003cc8 <__aeabi_dmul>
 8006c3e:	4602      	mov	r2, r0
 8006c40:	460b      	mov	r3, r1
 8006c42:	4630      	mov	r0, r6
 8006c44:	4639      	mov	r1, r7
 8006c46:	f7fc fe87 	bl	8003958 <__aeabi_dsub>
 8006c4a:	4642      	mov	r2, r8
 8006c4c:	464b      	mov	r3, r9
 8006c4e:	f7fd f965 	bl	8003f1c <__aeabi_ddiv>
 8006c52:	4b26      	ldr	r3, [pc, #152]	@ (8006cec <main+0x29c>)
 8006c54:	2200      	movs	r2, #0
 8006c56:	f7fc fe81 	bl	800395c <__adddf3>
 8006c5a:	f7fd fb2d 	bl	80042b8 <__aeabi_d2f>
	  			controlSide_data.mcuTemp = (((1.43
 8006c5e:	4b24      	ldr	r3, [pc, #144]	@ (8006cf0 <main+0x2a0>)
 8006c60:	6218      	str	r0, [r3, #32]
 8006c62:	e7b4      	b.n	8006bce <main+0x17e>
 8006c64:	f3af 8000 	nop.w
 8006c68:	75f6fd22 	.word	0x75f6fd22
 8006c6c:	3f719ce0 	.word	0x3f719ce0
 8006c70:	ae147ae1 	.word	0xae147ae1
 8006c74:	3ff6e147 	.word	0x3ff6e147
 8006c78:	00000000 	.word	0x00000000
 8006c7c:	40affe00 	.word	0x40affe00
 8006c80:	200015a0 	.word	0x200015a0
 8006c84:	20001558 	.word	0x20001558
 8006c88:	20001138 	.word	0x20001138
 8006c8c:	200013f8 	.word	0x200013f8
 8006c90:	200014d8 	.word	0x200014d8
 8006c94:	40010c00 	.word	0x40010c00
 8006c98:	40011400 	.word	0x40011400
 8006c9c:	200014b4 	.word	0x200014b4
 8006ca0:	20001660 	.word	0x20001660
 8006ca4:	2000164c 	.word	0x2000164c
 8006ca8:	20001638 	.word	0x20001638
 8006cac:	20001624 	.word	0x20001624
 8006cb0:	20001610 	.word	0x20001610
 8006cb4:	200015fc 	.word	0x200015fc
 8006cb8:	200015e8 	.word	0x200015e8
 8006cbc:	200013f5 	.word	0x200013f5
 8006cc0:	200014b6 	.word	0x200014b6
 8006cc4:	20000004 	.word	0x20000004
 8006cc8:	2000008f 	.word	0x2000008f
 8006ccc:	200013f4 	.word	0x200013f4
 8006cd0:	20001194 	.word	0x20001194
 8006cd4:	200011e0 	.word	0x200011e0
 8006cd8:	20001480 	.word	0x20001480
 8006cdc:	200013e0 	.word	0x200013e0
 8006ce0:	200010f0 	.word	0x200010f0
 8006ce4:	40010800 	.word	0x40010800
 8006ce8:	200013f0 	.word	0x200013f0
 8006cec:	40390000 	.word	0x40390000
 8006cf0:	20001458 	.word	0x20001458

08006cf4 <HAL_TIM_PeriodElapsedCallback>:
{
 8006cf4:	b508      	push	{r3, lr}
	if (htim->Instance == TIM2)
 8006cf6:	6803      	ldr	r3, [r0, #0]
 8006cf8:	f1b3 4f80 	cmp.w	r3, #1073741824	@ 0x40000000
 8006cfc:	d12d      	bne.n	8006d5a <HAL_TIM_PeriodElapsedCallback+0x66>
		tick_count(&timeout);
 8006cfe:	481b      	ldr	r0, [pc, #108]	@ (8006d6c <HAL_TIM_PeriodElapsedCallback+0x78>)
 8006d00:	f001 fbdc 	bl	80084bc <tick_count>
		tick_count(&gfi_test);
 8006d04:	481a      	ldr	r0, [pc, #104]	@ (8006d70 <HAL_TIM_PeriodElapsedCallback+0x7c>)
 8006d06:	f001 fbd9 	bl	80084bc <tick_count>
		tick_count(&serial_error);
 8006d0a:	481a      	ldr	r0, [pc, #104]	@ (8006d74 <HAL_TIM_PeriodElapsedCallback+0x80>)
 8006d0c:	f001 fbd6 	bl	80084bc <tick_count>
		tick_count(&load_balance6s);
 8006d10:	4819      	ldr	r0, [pc, #100]	@ (8006d78 <HAL_TIM_PeriodElapsedCallback+0x84>)
 8006d12:	f001 fbd3 	bl	80084bc <tick_count>
		tick_count(&error_handler);
 8006d16:	4819      	ldr	r0, [pc, #100]	@ (8006d7c <HAL_TIM_PeriodElapsedCallback+0x88>)
 8006d18:	f001 fbd0 	bl	80084bc <tick_count>
		check_vehicleConnector();
 8006d1c:	f7ff fc2e 	bl	800657c <check_vehicleConnector>
		get_GPIOFeedback();
 8006d20:	f7ff fe22 	bl	8006968 <get_GPIOFeedback>
		if ((charger_init_flag == true) && (charger_setup_flag == true))
 8006d24:	4b16      	ldr	r3, [pc, #88]	@ (8006d80 <HAL_TIM_PeriodElapsedCallback+0x8c>)
 8006d26:	781b      	ldrb	r3, [r3, #0]
 8006d28:	b173      	cbz	r3, 8006d48 <HAL_TIM_PeriodElapsedCallback+0x54>
 8006d2a:	4b16      	ldr	r3, [pc, #88]	@ (8006d84 <HAL_TIM_PeriodElapsedCallback+0x90>)
 8006d2c:	781b      	ldrb	r3, [r3, #0]
 8006d2e:	b15b      	cbz	r3, 8006d48 <HAL_TIM_PeriodElapsedCallback+0x54>
			load_balance(0);
 8006d30:	2000      	movs	r0, #0
 8006d32:	f7ff faed 	bl	8006310 <load_balance>
			monitor_cp();
 8006d36:	f7ff fb11 	bl	800635c <monitor_cp>
			errorDetector();
 8006d3a:	f000 f88d 	bl	8006e58 <errorDetector>
			errorHandler();
 8006d3e:	f000 fb99 	bl	8007474 <errorHandler>
			runStateMachine((StateMachine*) &sm);
 8006d42:	4811      	ldr	r0, [pc, #68]	@ (8006d88 <HAL_TIM_PeriodElapsedCallback+0x94>)
 8006d44:	f000 fddc 	bl	8007900 <runStateMachine>
		setCP_duty();
 8006d48:	f7ff fb52 	bl	80063f0 <setCP_duty>
		CSMS_trigCount++;
 8006d4c:	4a0f      	ldr	r2, [pc, #60]	@ (8006d8c <HAL_TIM_PeriodElapsedCallback+0x98>)
 8006d4e:	7813      	ldrb	r3, [r2, #0]
 8006d50:	3301      	adds	r3, #1
 8006d52:	b2db      	uxtb	r3, r3
		if (CSMS_trigCount > 1) // 500 us adapter
 8006d54:	2b01      	cmp	r3, #1
 8006d56:	d801      	bhi.n	8006d5c <HAL_TIM_PeriodElapsedCallback+0x68>
		CSMS_trigCount++;
 8006d58:	7013      	strb	r3, [r2, #0]
}
 8006d5a:	bd08      	pop	{r3, pc}
			CSMS_trigCount = 0;
 8006d5c:	2300      	movs	r3, #0
 8006d5e:	7013      	strb	r3, [r2, #0]
			CSMS_Intick(); // 1ms timer
 8006d60:	f7fe fa4c 	bl	80051fc <CSMS_Intick>
}
 8006d64:	e8bd 4008 	ldmia.w	sp!, {r3, lr}
			ModbusRTU_Intick();
 8006d68:	f7fd bf9e 	b.w	8004ca8 <ModbusRTU_Intick>
 8006d6c:	20001660 	.word	0x20001660
 8006d70:	2000164c 	.word	0x2000164c
 8006d74:	20001610 	.word	0x20001610
 8006d78:	200015fc 	.word	0x200015fc
 8006d7c:	200015e8 	.word	0x200015e8
 8006d80:	200013f5 	.word	0x200013f5
 8006d84:	200013f4 	.word	0x200013f4
 8006d88:	200014d8 	.word	0x200014d8
 8006d8c:	2000147e 	.word	0x2000147e

08006d90 <Error_Handler>:
 8006d90:	b672      	cpsid	i
  while (1)
 8006d92:	e7fe      	b.n	8006d92 <Error_Handler+0x2>

08006d94 <calculate_Energy>:
 * @details This function calculates the energy consumed during the charging
 *          process by comparing the current energy reading with the starting
 *          value. Updates the `powerSide_data.powerEnergy.kWh` with the result.
 */
void calculate_Energy(void)
{
 8006d94:	b510      	push	{r4, lr}
    static uint32_t temp;

    if ((sm.currentState == STATE_C2) &&
 8006d96:	4b16      	ldr	r3, [pc, #88]	@ (8006df0 <calculate_Energy+0x5c>)
 8006d98:	781b      	ldrb	r3, [r3, #0]
 8006d9a:	2b06      	cmp	r3, #6
 8006d9c:	d114      	bne.n	8006dc8 <calculate_Energy+0x34>
        (controlSide_data.status.bit.charging_active == 1))
 8006d9e:	4b15      	ldr	r3, [pc, #84]	@ (8006df4 <calculate_Energy+0x60>)
 8006da0:	781b      	ldrb	r3, [r3, #0]
    if ((sm.currentState == STATE_C2) &&
 8006da2:	069b      	lsls	r3, r3, #26
 8006da4:	d510      	bpl.n	8006dc8 <calculate_Energy+0x34>
    {
        if (measure_energy == true)
 8006da6:	4a14      	ldr	r2, [pc, #80]	@ (8006df8 <calculate_Energy+0x64>)
 8006da8:	4b14      	ldr	r3, [pc, #80]	@ (8006dfc <calculate_Energy+0x68>)
 8006daa:	7811      	ldrb	r1, [r2, #0]
 8006dac:	b169      	cbz	r1, 8006dca <calculate_Energy+0x36>
        {
            powerSide_data.powerEnergy.kWh = 0;
 8006dae:	2100      	movs	r1, #0
 8006db0:	4813      	ldr	r0, [pc, #76]	@ (8006e00 <calculate_Energy+0x6c>)
 8006db2:	6241      	str	r1, [r0, #36]	@ 0x24
            start_energy = (uint32_t)ADL.data.activeEnergy;
 8006db4:	4813      	ldr	r0, [pc, #76]	@ (8006e04 <calculate_Energy+0x70>)
 8006db6:	6a04      	ldr	r4, [r0, #32]
 8006db8:	601c      	str	r4, [r3, #0]

            if ((start_energy == ADL.data.activeEnergy) && (start_energy != 0))
 8006dba:	6a04      	ldr	r4, [r0, #32]
 8006dbc:	6818      	ldr	r0, [r3, #0]
 8006dbe:	4284      	cmp	r4, r0
 8006dc0:	d10f      	bne.n	8006de2 <calculate_Energy+0x4e>
 8006dc2:	681b      	ldr	r3, [r3, #0]
 8006dc4:	b16b      	cbz	r3, 8006de2 <calculate_Energy+0x4e>
            {
                measure_energy = false;
 8006dc6:	7011      	strb	r1, [r2, #0]
            {
                energy_error_count++;
            }
        }
    }
}
 8006dc8:	bd10      	pop	{r4, pc}
            if (start_energy != 0)
 8006dca:	681a      	ldr	r2, [r3, #0]
 8006dcc:	b14a      	cbz	r2, 8006de2 <calculate_Energy+0x4e>
                temp = (uint32_t)(ADL.data.activeEnergy - start_energy);
 8006dce:	490d      	ldr	r1, [pc, #52]	@ (8006e04 <calculate_Energy+0x70>)
 8006dd0:	6a0a      	ldr	r2, [r1, #32]
 8006dd2:	681b      	ldr	r3, [r3, #0]
 8006dd4:	1ad3      	subs	r3, r2, r3
                if (temp >= (uint32_t)ADL.data.activeEnergy)
 8006dd6:	6a0a      	ldr	r2, [r1, #32]
 8006dd8:	4293      	cmp	r3, r2
 8006dda:	d2f5      	bcs.n	8006dc8 <calculate_Energy+0x34>
                    powerSide_data.powerEnergy.kWh = temp;
 8006ddc:	4a08      	ldr	r2, [pc, #32]	@ (8006e00 <calculate_Energy+0x6c>)
 8006dde:	6253      	str	r3, [r2, #36]	@ 0x24
 8006de0:	e7f2      	b.n	8006dc8 <calculate_Energy+0x34>
                energy_error_count++;
 8006de2:	4a09      	ldr	r2, [pc, #36]	@ (8006e08 <calculate_Energy+0x74>)
 8006de4:	8813      	ldrh	r3, [r2, #0]
 8006de6:	3301      	adds	r3, #1
 8006de8:	b29b      	uxth	r3, r3
 8006dea:	8013      	strh	r3, [r2, #0]
}
 8006dec:	e7ec      	b.n	8006dc8 <calculate_Energy+0x34>
 8006dee:	bf00      	nop
 8006df0:	200014d8 	.word	0x200014d8
 8006df4:	20001458 	.word	0x20001458
 8006df8:	20001488 	.word	0x20001488
 8006dfc:	20001484 	.word	0x20001484
 8006e00:	20001428 	.word	0x20001428
 8006e04:	20000090 	.word	0x20000090
 8006e08:	20001482 	.word	0x20001482

08006e0c <get_EnergyMeterData>:
    powerSide_data.voltage.VB = (uint16_t)ADL.data.voltage_PhaseB;
    powerSide_data.voltage.VC = (uint16_t)ADL.data.voltage_PhaseC;
    powerSide_data.current.IA = (uint16_t)ADL.data.current_PhaseA;
    powerSide_data.current.IB = (uint16_t)ADL.data.current_PhaseB;
    powerSide_data.current.IC = (uint16_t)ADL.data.current_PhaseC;
    powerSide_data.powerEnergy.power = (uint8_t)((ADL.data.activePower) / 100);
 8006e0c:	2064      	movs	r0, #100	@ 0x64
    powerSide_data.voltage.VA = (uint16_t)ADL.data.voltage_PhaseA;
 8006e0e:	4a10      	ldr	r2, [pc, #64]	@ (8006e50 <get_EnergyMeterData+0x44>)
 8006e10:	4b10      	ldr	r3, [pc, #64]	@ (8006e54 <get_EnergyMeterData+0x48>)
 8006e12:	8991      	ldrh	r1, [r2, #12]
 8006e14:	b289      	uxth	r1, r1
 8006e16:	8299      	strh	r1, [r3, #20]
    powerSide_data.voltage.VB = (uint16_t)ADL.data.voltage_PhaseB;
 8006e18:	89d1      	ldrh	r1, [r2, #14]
 8006e1a:	b289      	uxth	r1, r1
 8006e1c:	82d9      	strh	r1, [r3, #22]
    powerSide_data.voltage.VC = (uint16_t)ADL.data.voltage_PhaseC;
 8006e1e:	8a11      	ldrh	r1, [r2, #16]
 8006e20:	b289      	uxth	r1, r1
 8006e22:	8319      	strh	r1, [r3, #24]
    powerSide_data.current.IA = (uint16_t)ADL.data.current_PhaseA;
 8006e24:	8a51      	ldrh	r1, [r2, #18]
 8006e26:	b289      	uxth	r1, r1
 8006e28:	8359      	strh	r1, [r3, #26]
    powerSide_data.current.IB = (uint16_t)ADL.data.current_PhaseB;
 8006e2a:	8a91      	ldrh	r1, [r2, #20]
 8006e2c:	b289      	uxth	r1, r1
 8006e2e:	8399      	strh	r1, [r3, #28]
    powerSide_data.current.IC = (uint16_t)ADL.data.current_PhaseC;
 8006e30:	8ad1      	ldrh	r1, [r2, #22]
 8006e32:	b289      	uxth	r1, r1
 8006e34:	83d9      	strh	r1, [r3, #30]
    powerSide_data.powerEnergy.power = (uint8_t)((ADL.data.activePower) / 100);
 8006e36:	69d1      	ldr	r1, [r2, #28]
 8006e38:	fbb1 f1f0 	udiv	r1, r1, r0
 8006e3c:	b2c9      	uxtb	r1, r1
 8006e3e:	f883 1020 	strb.w	r1, [r3, #32]
    powerSide_data.frequency = (uint16_t)(ADL.data.freqeuncy / 100);
 8006e42:	8b12      	ldrh	r2, [r2, #24]
 8006e44:	b292      	uxth	r2, r2
 8006e46:	fbb2 f2f0 	udiv	r2, r2, r0
 8006e4a:	859a      	strh	r2, [r3, #44]	@ 0x2c
}
 8006e4c:	4770      	bx	lr
 8006e4e:	bf00      	nop
 8006e50:	20000090 	.word	0x20000090
 8006e54:	20001428 	.word	0x20001428

08006e58 <errorDetector>:
 * Aggregates all individual checks for protection mechanisms including
 * overcurrent, undervoltage, overvoltage, and more. Triggers appropriate
 * error handling routines as required.
 */
void errorDetector(void)
{
 8006e58:	e92d 41f0 	stmdb	sp!, {r4, r5, r6, r7, r8, lr}

	if (charger_configGet.en_1.bit.sc_en == 1)
 8006e5c:	4ca3      	ldr	r4, [pc, #652]	@ (80070ec <errorDetector+0x294>)
 8006e5e:	7823      	ldrb	r3, [r4, #0]
 8006e60:	f3c3 1301 	ubfx	r3, r3, #4, #2
 8006e64:	2b01      	cmp	r3, #1
 8006e66:	d113      	bne.n	8006e90 <errorDetector+0x38>
	if ((sm.currentState != STATE_C2)
 8006e68:	4ba1      	ldr	r3, [pc, #644]	@ (80070f0 <errorDetector+0x298>)
 8006e6a:	4aa2      	ldr	r2, [pc, #648]	@ (80070f4 <errorDetector+0x29c>)
 8006e6c:	781b      	ldrb	r3, [r3, #0]
 8006e6e:	49a2      	ldr	r1, [pc, #648]	@ (80070f8 <errorDetector+0x2a0>)
 8006e70:	2b06      	cmp	r3, #6
 8006e72:	f000 80c8 	beq.w	8007006 <errorDetector+0x1ae>
			&& (powerSide_data.status.bit.contactor_state == ON))
 8006e76:	7813      	ldrb	r3, [r2, #0]
 8006e78:	099b      	lsrs	r3, r3, #6
 8006e7a:	2b01      	cmp	r3, #1
 8006e7c:	f040 80c3 	bne.w	8007006 <errorDetector+0x1ae>
		SC_errorInCounter++;
 8006e80:	880b      	ldrh	r3, [r1, #0]
 8006e82:	3301      	adds	r3, #1
 8006e84:	b29b      	uxth	r3, r3
		if (SC_errorInCounter >= SC_errorCount)
 8006e86:	f5b3 6ffa 	cmp.w	r3, #2000	@ 0x7d0
 8006e8a:	f080 80b5 	bcs.w	8006ff8 <errorDetector+0x1a0>
		SC_errorInCounter++;
 8006e8e:	800b      	strh	r3, [r1, #0]
	{
		check_SC();
	}

	if ((charger_configGet.en_1.bit.gfi_en == 1) && (GFI_bypasss_flag == false))
 8006e90:	7863      	ldrb	r3, [r4, #1]
 8006e92:	f003 0303 	and.w	r3, r3, #3
 8006e96:	2b01      	cmp	r3, #1
 8006e98:	f040 8100 	bne.w	800709c <errorDetector+0x244>
 8006e9c:	4b97      	ldr	r3, [pc, #604]	@ (80070fc <errorDetector+0x2a4>)
 8006e9e:	781b      	ldrb	r3, [r3, #0]
 8006ea0:	f003 05ff 	and.w	r5, r3, #255	@ 0xff
 8006ea4:	2b00      	cmp	r3, #0
 8006ea6:	f040 80f9 	bne.w	800709c <errorDetector+0x244>
	{
		GFIC_RESET_OFF();
 8006eaa:	462a      	mov	r2, r5
 8006eac:	f44f 5100 	mov.w	r1, #8192	@ 0x2000
 8006eb0:	4893      	ldr	r0, [pc, #588]	@ (8007100 <errorDetector+0x2a8>)
 8006eb2:	f002 fc4b 	bl	800974c <HAL_GPIO_WritePin>
	if (GFIC_SENSE() == 1)
 8006eb6:	f44f 4180 	mov.w	r1, #16384	@ 0x4000
 8006eba:	4891      	ldr	r0, [pc, #580]	@ (8007100 <errorDetector+0x2a8>)
 8006ebc:	f002 fc40 	bl	8009740 <HAL_GPIO_ReadPin>
 8006ec0:	2801      	cmp	r0, #1
 8006ec2:	4a90      	ldr	r2, [pc, #576]	@ (8007104 <errorDetector+0x2ac>)
 8006ec4:	4990      	ldr	r1, [pc, #576]	@ (8007108 <errorDetector+0x2b0>)
 8006ec6:	f040 80ab 	bne.w	8007020 <errorDetector+0x1c8>
		GFI_errorInCounter++;
 8006eca:	880b      	ldrh	r3, [r1, #0]
		GFI_errorOutCounter = 0;
 8006ecc:	8015      	strh	r5, [r2, #0]
		GFI_errorInCounter++;
 8006ece:	3301      	adds	r3, #1
 8006ed0:	b29b      	uxth	r3, r3
		if (GFI_errorInCounter >= GFI_errorCount)
 8006ed2:	f5b3 7f96 	cmp.w	r3, #300	@ 0x12c
 8006ed6:	f080 809c 	bcs.w	8007012 <errorDetector+0x1ba>
		GFI_errorInCounter++;
 8006eda:	800b      	strh	r3, [r1, #0]
		check_GFI();

		if (charger_configGet.en_1.bit.gfit_en == 1)
 8006edc:	7865      	ldrb	r5, [r4, #1]
 8006ede:	f3c5 0881 	ubfx	r8, r5, #2, #2
 8006ee2:	4645      	mov	r5, r8
 8006ee4:	2d01      	cmp	r5, #1
 8006ee6:	d10a      	bne.n	8006efe <errorDetector+0xa6>
	if (run_GFITest == true)
 8006ee8:	4f88      	ldr	r7, [pc, #544]	@ (800710c <errorDetector+0x2b4>)
 8006eea:	783b      	ldrb	r3, [r7, #0]
 8006eec:	b13b      	cbz	r3, 8006efe <errorDetector+0xa6>
		switch (state)
 8006eee:	4e88      	ldr	r6, [pc, #544]	@ (8007110 <errorDetector+0x2b8>)
 8006ef0:	7833      	ldrb	r3, [r6, #0]
 8006ef2:	2b00      	cmp	r3, #0
 8006ef4:	f000 80a3 	beq.w	800703e <errorDetector+0x1e6>
 8006ef8:	2b01      	cmp	r3, #1
 8006efa:	f000 80ac 	beq.w	8007056 <errorDetector+0x1fe>
	if (threePhaseMeter)
 8006efe:	4e85      	ldr	r6, [pc, #532]	@ (8007114 <errorDetector+0x2bc>)
 8006f00:	7833      	ldrb	r3, [r6, #0]
 8006f02:	2b00      	cmp	r3, #0
 8006f04:	d032      	beq.n	8006f6c <errorDetector+0x114>
		if (((powerSide_data.current.IA >= OC_THRESHOLD)
 8006f06:	f640 51ab 	movw	r1, #3499	@ 0xdab
 8006f0a:	4b7a      	ldr	r3, [pc, #488]	@ (80070f4 <errorDetector+0x29c>)
 8006f0c:	8b5a      	ldrh	r2, [r3, #26]
 8006f0e:	b292      	uxth	r2, r2
 8006f10:	428a      	cmp	r2, r1
 8006f12:	4981      	ldr	r1, [pc, #516]	@ (8007118 <errorDetector+0x2c0>)
 8006f14:	d905      	bls.n	8006f22 <errorDetector+0xca>
				&& (powerSide_data.current.IA < 10000))
 8006f16:	f242 700f 	movw	r0, #9999	@ 0x270f
 8006f1a:	8b5a      	ldrh	r2, [r3, #26]
 8006f1c:	b292      	uxth	r2, r2
 8006f1e:	4282      	cmp	r2, r0
 8006f20:	d919      	bls.n	8006f56 <errorDetector+0xfe>
				|| ((powerSide_data.current.IB >= OC_THRESHOLD)
 8006f22:	f640 50ab 	movw	r0, #3499	@ 0xdab
 8006f26:	8b9a      	ldrh	r2, [r3, #28]
 8006f28:	b292      	uxth	r2, r2
 8006f2a:	4282      	cmp	r2, r0
 8006f2c:	d905      	bls.n	8006f3a <errorDetector+0xe2>
						&& (powerSide_data.current.IA < 10000))
 8006f2e:	f242 700f 	movw	r0, #9999	@ 0x270f
 8006f32:	8b5a      	ldrh	r2, [r3, #26]
 8006f34:	b292      	uxth	r2, r2
 8006f36:	4282      	cmp	r2, r0
 8006f38:	d90d      	bls.n	8006f56 <errorDetector+0xfe>
				|| ((powerSide_data.current.IC >= OC_THRESHOLD)
 8006f3a:	f640 50ab 	movw	r0, #3499	@ 0xdab
 8006f3e:	8bda      	ldrh	r2, [r3, #30]
 8006f40:	b292      	uxth	r2, r2
 8006f42:	4282      	cmp	r2, r0
 8006f44:	f240 80b9 	bls.w	80070ba <errorDetector+0x262>
						&& (powerSide_data.current.IA < 10000)))
 8006f48:	f242 700f 	movw	r0, #9999	@ 0x270f
 8006f4c:	8b5a      	ldrh	r2, [r3, #26]
 8006f4e:	b292      	uxth	r2, r2
 8006f50:	4282      	cmp	r2, r0
 8006f52:	f200 80b2 	bhi.w	80070ba <errorDetector+0x262>
			OC_errorInCounter++;
 8006f56:	880a      	ldrh	r2, [r1, #0]
 8006f58:	3201      	adds	r2, #1
 8006f5a:	b292      	uxth	r2, r2
			if (OC_errorInCounter >= OC_errorCount)
 8006f5c:	f5b2 6ffa 	cmp.w	r2, #2000	@ 0x7d0
			OC_errorInCounter++;
 8006f60:	800a      	strh	r2, [r1, #0]
			if (OC_errorInCounter >= OC_errorCount)
 8006f62:	d303      	bcc.n	8006f6c <errorDetector+0x114>
				powerSide_data.tripStatus.bit.trip_OC = 1;
 8006f64:	789a      	ldrb	r2, [r3, #2]
 8006f66:	f042 0201 	orr.w	r2, r2, #1
 8006f6a:	709a      	strb	r2, [r3, #2]
	if (singlePhaseMeter)
 8006f6c:	4d6b      	ldr	r5, [pc, #428]	@ (800711c <errorDetector+0x2c4>)
 8006f6e:	782b      	ldrb	r3, [r5, #0]
 8006f70:	b1d3      	cbz	r3, 8006fa8 <errorDetector+0x150>
		if ((powerSide_data.current.IA >= OC_THRESHOLD)
 8006f72:	f640 51ab 	movw	r1, #3499	@ 0xdab
 8006f76:	4b5f      	ldr	r3, [pc, #380]	@ (80070f4 <errorDetector+0x29c>)
 8006f78:	4867      	ldr	r0, [pc, #412]	@ (8007118 <errorDetector+0x2c0>)
 8006f7a:	8b5a      	ldrh	r2, [r3, #26]
 8006f7c:	b292      	uxth	r2, r2
 8006f7e:	428a      	cmp	r2, r1
 8006f80:	4967      	ldr	r1, [pc, #412]	@ (8007120 <errorDetector+0x2c8>)
 8006f82:	f240 80a3 	bls.w	80070cc <errorDetector+0x274>
				&& (powerSide_data.current.IA < 10000))
 8006f86:	f242 770f 	movw	r7, #9999	@ 0x270f
 8006f8a:	8b5a      	ldrh	r2, [r3, #26]
 8006f8c:	b292      	uxth	r2, r2
 8006f8e:	42ba      	cmp	r2, r7
 8006f90:	f200 809c 	bhi.w	80070cc <errorDetector+0x274>
			OC_errorOutCounter = 0;
 8006f94:	2700      	movs	r7, #0
			OC_errorInCounter++;
 8006f96:	8802      	ldrh	r2, [r0, #0]
			OC_errorOutCounter = 0;
 8006f98:	800f      	strh	r7, [r1, #0]
			OC_errorInCounter++;
 8006f9a:	3201      	adds	r2, #1
 8006f9c:	b292      	uxth	r2, r2
			if (OC_errorInCounter >= OC_errorCount)
 8006f9e:	f5b2 6ffa 	cmp.w	r2, #2000	@ 0x7d0
 8006fa2:	f080 808d 	bcs.w	80070c0 <errorDetector+0x268>
			OC_errorInCounter++;
 8006fa6:	8002      	strh	r2, [r0, #0]
		}
	}

	check_OC();

	if (charger_configGet.en_1.bit.pl_en == 1)
 8006fa8:	7863      	ldrb	r3, [r4, #1]
 8006faa:	f3c3 1301 	ubfx	r3, r3, #4, #2
 8006fae:	2b01      	cmp	r3, #1
 8006fb0:	f040 80dd 	bne.w	800716e <errorDetector+0x316>
	if ((powerSide_data.voltage.VA < 1000)
 8006fb4:	4b4f      	ldr	r3, [pc, #316]	@ (80070f4 <errorDetector+0x29c>)
 8006fb6:	495b      	ldr	r1, [pc, #364]	@ (8007124 <errorDetector+0x2cc>)
 8006fb8:	8a9a      	ldrh	r2, [r3, #20]
 8006fba:	b292      	uxth	r2, r2
 8006fbc:	f5b2 7f7a 	cmp.w	r2, #1000	@ 0x3e8
 8006fc0:	d30a      	bcc.n	8006fd8 <errorDetector+0x180>
			|| (powerSide_data.voltage.VB < 1000)
 8006fc2:	8ada      	ldrh	r2, [r3, #22]
 8006fc4:	b292      	uxth	r2, r2
 8006fc6:	f5b2 7f7a 	cmp.w	r2, #1000	@ 0x3e8
 8006fca:	d305      	bcc.n	8006fd8 <errorDetector+0x180>
			|| (powerSide_data.voltage.VB < 1000))
 8006fcc:	8ada      	ldrh	r2, [r3, #22]
 8006fce:	b292      	uxth	r2, r2
 8006fd0:	f5b2 7f7a 	cmp.w	r2, #1000	@ 0x3e8
 8006fd4:	f080 80ae 	bcs.w	8007134 <errorDetector+0x2dc>
		PL_errorOutCounter = 0;
 8006fd8:	2000      	movs	r0, #0
		PL_errorInCounter++;
 8006fda:	880a      	ldrh	r2, [r1, #0]
 8006fdc:	3201      	adds	r2, #1
 8006fde:	b292      	uxth	r2, r2
 8006fe0:	800a      	strh	r2, [r1, #0]
		PL_errorOutCounter = 0;
 8006fe2:	4951      	ldr	r1, [pc, #324]	@ (8007128 <errorDetector+0x2d0>)
		if (PL_errorInCounter >= PL_errorCount)
 8006fe4:	f5b2 6f7a 	cmp.w	r2, #4000	@ 0xfa0
		PL_errorOutCounter = 0;
 8006fe8:	8008      	strh	r0, [r1, #0]
		if (PL_errorInCounter >= PL_errorCount)
 8006fea:	f0c0 80c0 	bcc.w	800716e <errorDetector+0x316>
			powerSide_data.errorStatus.bit.error_PL = 1;
 8006fee:	785a      	ldrb	r2, [r3, #1]
 8006ff0:	f042 0240 	orr.w	r2, r2, #64	@ 0x40
					powerSide_data.errorStatus.bit.error_PL = 0;
 8006ff4:	705a      	strb	r2, [r3, #1]
 8006ff6:	e0ba      	b.n	800716e <errorDetector+0x316>
			SC_errorInCounter = 0;
 8006ff8:	2300      	movs	r3, #0
 8006ffa:	800b      	strh	r3, [r1, #0]
			powerSide_data.errorStatus.bit.error_SR_C = 1;
 8006ffc:	7853      	ldrb	r3, [r2, #1]
 8006ffe:	f043 0304 	orr.w	r3, r3, #4
		powerSide_data.errorStatus.bit.error_SR_C = 0;
 8007002:	7053      	strb	r3, [r2, #1]
 8007004:	e744      	b.n	8006e90 <errorDetector+0x38>
		SC_errorInCounter = 0;
 8007006:	2000      	movs	r0, #0
		powerSide_data.errorStatus.bit.error_SR_C = 0;
 8007008:	7853      	ldrb	r3, [r2, #1]
		SC_errorInCounter = 0;
 800700a:	8008      	strh	r0, [r1, #0]
		powerSide_data.errorStatus.bit.error_SR_C = 0;
 800700c:	f360 0382 	bfi	r3, r0, #2, #1
 8007010:	e7f7      	b.n	8007002 <errorDetector+0x1aa>
			powerSide_data.tripStatus.bit.trip_GFI = 1;
 8007012:	4a38      	ldr	r2, [pc, #224]	@ (80070f4 <errorDetector+0x29c>)
			GFI_errorInCounter = 0;
 8007014:	800d      	strh	r5, [r1, #0]
			powerSide_data.tripStatus.bit.trip_GFI = 1;
 8007016:	7893      	ldrb	r3, [r2, #2]
 8007018:	f043 0302 	orr.w	r3, r3, #2
			powerSide_data.tripStatus.bit.trip_GFI = 0;
 800701c:	7093      	strb	r3, [r2, #2]
 800701e:	e75d      	b.n	8006edc <errorDetector+0x84>
		GFI_errorOutCounter++;
 8007020:	8813      	ldrh	r3, [r2, #0]
		GFI_errorInCounter = 0;
 8007022:	800d      	strh	r5, [r1, #0]
		GFI_errorOutCounter++;
 8007024:	3301      	adds	r3, #1
 8007026:	b29b      	uxth	r3, r3
		if (GFI_errorOutCounter >= GFI_errorCount)
 8007028:	f5b3 7f96 	cmp.w	r3, #300	@ 0x12c
 800702c:	d201      	bcs.n	8007032 <errorDetector+0x1da>
		GFI_errorOutCounter++;
 800702e:	8013      	strh	r3, [r2, #0]
 8007030:	e754      	b.n	8006edc <errorDetector+0x84>
			GFI_errorOutCounter = 0;
 8007032:	8015      	strh	r5, [r2, #0]
			powerSide_data.tripStatus.bit.trip_GFI = 0;
 8007034:	4a2f      	ldr	r2, [pc, #188]	@ (80070f4 <errorDetector+0x29c>)
 8007036:	7893      	ldrb	r3, [r2, #2]
 8007038:	f365 0341 	bfi	r3, r5, #1, #1
 800703c:	e7ee      	b.n	800701c <errorDetector+0x1c4>
			tick_clear(&gfi_test);
 800703e:	483b      	ldr	r0, [pc, #236]	@ (800712c <errorDetector+0x2d4>)
 8007040:	f001 fa2a 	bl	8008498 <tick_clear>
			GFIC_TEST_ON();
 8007044:	4642      	mov	r2, r8
 8007046:	f44f 5180 	mov.w	r1, #4096	@ 0x1000
 800704a:	482d      	ldr	r0, [pc, #180]	@ (8007100 <errorDetector+0x2a8>)
 800704c:	f002 fb7e 	bl	800974c <HAL_GPIO_WritePin>
			state = 1;
 8007050:	f886 8000 	strb.w	r8, [r6]
			break;
 8007054:	e753      	b.n	8006efe <errorDetector+0xa6>
			if (gfi_test.timeout_0_5s == true)
 8007056:	4b35      	ldr	r3, [pc, #212]	@ (800712c <errorDetector+0x2d4>)
 8007058:	799b      	ldrb	r3, [r3, #6]
 800705a:	2b00      	cmp	r3, #0
 800705c:	f43f af4f 	beq.w	8006efe <errorDetector+0xa6>
				if(GFIC_SENSE()==1)
 8007060:	f44f 4180 	mov.w	r1, #16384	@ 0x4000
 8007064:	4826      	ldr	r0, [pc, #152]	@ (8007100 <errorDetector+0x2a8>)
 8007066:	f002 fb6b 	bl	8009740 <HAL_GPIO_ReadPin>
 800706a:	4a22      	ldr	r2, [pc, #136]	@ (80070f4 <errorDetector+0x29c>)
 800706c:	2801      	cmp	r0, #1
					powerSide_data.errorStatus.bit.error_GFI_test = 0;
 800706e:	7853      	ldrb	r3, [r2, #1]
				GFIC_TEST_OFF();
 8007070:	f44f 5180 	mov.w	r1, #4096	@ 0x1000
					powerSide_data.errorStatus.bit.error_GFI_test = 0;
 8007074:	bf0c      	ite	eq
 8007076:	f023 0308 	biceq.w	r3, r3, #8
					powerSide_data.errorStatus.bit.error_GFI_test = 1;
 800707a:	f043 0308 	orrne.w	r3, r3, #8
 800707e:	7053      	strb	r3, [r2, #1]
				GFIC_TEST_OFF();
 8007080:	481f      	ldr	r0, [pc, #124]	@ (8007100 <errorDetector+0x2a8>)
 8007082:	2200      	movs	r2, #0
 8007084:	f002 fb62 	bl	800974c <HAL_GPIO_WritePin>
				GFIC_RESET_ON(); //7/4/25 hashara
 8007088:	2201      	movs	r2, #1
 800708a:	f44f 5100 	mov.w	r1, #8192	@ 0x2000
 800708e:	481c      	ldr	r0, [pc, #112]	@ (8007100 <errorDetector+0x2a8>)
 8007090:	f002 fb5c 	bl	800974c <HAL_GPIO_WritePin>
				run_GFITest = false;
 8007094:	2300      	movs	r3, #0
 8007096:	703b      	strb	r3, [r7, #0]
				state = 0;
 8007098:	7033      	strb	r3, [r6, #0]
 800709a:	e730      	b.n	8006efe <errorDetector+0xa6>
		GFIC_RESET_ON();
 800709c:	2201      	movs	r2, #1
 800709e:	f44f 5100 	mov.w	r1, #8192	@ 0x2000
 80070a2:	4817      	ldr	r0, [pc, #92]	@ (8007100 <errorDetector+0x2a8>)
 80070a4:	f002 fb52 	bl	800974c <HAL_GPIO_WritePin>
		if (timeout.timeout_3s == true)
 80070a8:	4b21      	ldr	r3, [pc, #132]	@ (8007130 <errorDetector+0x2d8>)
 80070aa:	7a5b      	ldrb	r3, [r3, #9]
 80070ac:	2b00      	cmp	r3, #0
 80070ae:	f43f af26 	beq.w	8006efe <errorDetector+0xa6>
			GFI_bypasss_flag = false;
 80070b2:	2200      	movs	r2, #0
 80070b4:	4b11      	ldr	r3, [pc, #68]	@ (80070fc <errorDetector+0x2a4>)
 80070b6:	701a      	strb	r2, [r3, #0]
 80070b8:	e721      	b.n	8006efe <errorDetector+0xa6>
			OC_errorInCounter = 0;
 80070ba:	2300      	movs	r3, #0
 80070bc:	800b      	strh	r3, [r1, #0]
 80070be:	e755      	b.n	8006f6c <errorDetector+0x114>
				powerSide_data.tripStatus.bit.trip_OC = 1;
 80070c0:	789a      	ldrb	r2, [r3, #2]
				OC_errorInCounter = 0;
 80070c2:	8007      	strh	r7, [r0, #0]
				powerSide_data.tripStatus.bit.trip_OC = 1;
 80070c4:	f042 0201 	orr.w	r2, r2, #1
				powerSide_data.tripStatus.bit.trip_OC = 0;
 80070c8:	709a      	strb	r2, [r3, #2]
 80070ca:	e76d      	b.n	8006fa8 <errorDetector+0x150>
			OC_errorInCounter = 0;
 80070cc:	2700      	movs	r7, #0
			OC_errorOutCounter++;
 80070ce:	880a      	ldrh	r2, [r1, #0]
			OC_errorInCounter = 0;
 80070d0:	8007      	strh	r7, [r0, #0]
			OC_errorOutCounter++;
 80070d2:	3201      	adds	r2, #1
 80070d4:	b292      	uxth	r2, r2
			if (OC_errorOutCounter >= OC_errorCount)
 80070d6:	f5b2 6ffa 	cmp.w	r2, #2000	@ 0x7d0
 80070da:	d201      	bcs.n	80070e0 <errorDetector+0x288>
			OC_errorOutCounter++;
 80070dc:	800a      	strh	r2, [r1, #0]
 80070de:	e763      	b.n	8006fa8 <errorDetector+0x150>
				powerSide_data.tripStatus.bit.trip_OC = 0;
 80070e0:	789a      	ldrb	r2, [r3, #2]
				OC_errorOutCounter = 0;
 80070e2:	800f      	strh	r7, [r1, #0]
				powerSide_data.tripStatus.bit.trip_OC = 0;
 80070e4:	f367 0200 	bfi	r2, r7, #0, #1
 80070e8:	e7ee      	b.n	80070c8 <errorDetector+0x270>
 80070ea:	bf00      	nop
 80070ec:	200011b0 	.word	0x200011b0
 80070f0:	200014d8 	.word	0x200014d8
 80070f4:	20001428 	.word	0x20001428
 80070f8:	20001498 	.word	0x20001498
 80070fc:	2000148b 	.word	0x2000148b
 8007100:	40010c00 	.word	0x40010c00
 8007104:	200014ae 	.word	0x200014ae
 8007108:	200014b0 	.word	0x200014b0
 800710c:	200014b4 	.word	0x200014b4
 8007110:	2000148a 	.word	0x2000148a
 8007114:	2000008c 	.word	0x2000008c
 8007118:	200014ac 	.word	0x200014ac
 800711c:	2000008d 	.word	0x2000008d
 8007120:	200014aa 	.word	0x200014aa
 8007124:	200014a0 	.word	0x200014a0
 8007128:	2000149e 	.word	0x2000149e
 800712c:	2000164c 	.word	0x2000164c
 8007130:	20001660 	.word	0x20001660
		PL_errorInCounter = 0;
 8007134:	2200      	movs	r2, #0
 8007136:	800a      	strh	r2, [r1, #0]
		if (controlSide_data.status.bit.connector_state == 0)
 8007138:	4a8c      	ldr	r2, [pc, #560]	@ (800736c <errorDetector+0x514>)
 800713a:	7811      	ldrb	r1, [r2, #0]
 800713c:	09c9      	lsrs	r1, r1, #7
 800713e:	d116      	bne.n	800716e <errorDetector+0x316>
			if ((powerSide_data.voltage.VA >= 1500)
 8007140:	f240 52db 	movw	r2, #1499	@ 0x5db
 8007144:	8a98      	ldrh	r0, [r3, #20]
 8007146:	b280      	uxth	r0, r0
 8007148:	4290      	cmp	r0, r2
 800714a:	d910      	bls.n	800716e <errorDetector+0x316>
					&& (powerSide_data.voltage.VB >= 1500)
 800714c:	8ad8      	ldrh	r0, [r3, #22]
 800714e:	b280      	uxth	r0, r0
 8007150:	4290      	cmp	r0, r2
 8007152:	d90c      	bls.n	800716e <errorDetector+0x316>
					&& (powerSide_data.voltage.VC >= 1500))
 8007154:	8b18      	ldrh	r0, [r3, #24]
 8007156:	b280      	uxth	r0, r0
 8007158:	4290      	cmp	r0, r2
 800715a:	d908      	bls.n	800716e <errorDetector+0x316>
				if (PL_errorOutCounter >= UV_errorCount)
 800715c:	f242 770f 	movw	r7, #9999	@ 0x270f
				PL_errorOutCounter++;
 8007160:	4883      	ldr	r0, [pc, #524]	@ (8007370 <errorDetector+0x518>)
 8007162:	8802      	ldrh	r2, [r0, #0]
 8007164:	3201      	adds	r2, #1
 8007166:	b292      	uxth	r2, r2
				if (PL_errorOutCounter >= UV_errorCount)
 8007168:	42ba      	cmp	r2, r7
 800716a:	d846      	bhi.n	80071fa <errorDetector+0x3a2>
				PL_errorOutCounter++;
 800716c:	8002      	strh	r2, [r0, #0]
	{
		check_PL();
	}

	if (charger_configGet.en_2.bit.ot_en == 1)
 800716e:	78a3      	ldrb	r3, [r4, #2]
 8007170:	f3c3 1301 	ubfx	r3, r3, #4, #2
 8007174:	2b01      	cmp	r3, #1
 8007176:	d114      	bne.n	80071a2 <errorDetector+0x34a>
	if (((uint8_t)powerSide_data.tempSensors.T1) >= OT_UPPER_THRESHOLD)
 8007178:	4f7e      	ldr	r7, [pc, #504]	@ (8007374 <errorDetector+0x51c>)
 800717a:	f04f 0800 	mov.w	r8, #0
 800717e:	6878      	ldr	r0, [r7, #4]
 8007180:	f7fd fb6e 	bl	8004860 <__aeabi_f2uiz>
 8007184:	b2c0      	uxtb	r0, r0
 8007186:	283b      	cmp	r0, #59	@ 0x3b
 8007188:	4a7b      	ldr	r2, [pc, #492]	@ (8007378 <errorDetector+0x520>)
 800718a:	d942      	bls.n	8007212 <errorDetector+0x3ba>
		if (OT_errorInCounter >= OT_errorCount)
 800718c:	f649 413f 	movw	r1, #39999	@ 0x9c3f
		OT_errorOutCounter = 0;
 8007190:	4b7a      	ldr	r3, [pc, #488]	@ (800737c <errorDetector+0x524>)
 8007192:	f8a3 8000 	strh.w	r8, [r3]
		OT_errorInCounter++;
 8007196:	8813      	ldrh	r3, [r2, #0]
 8007198:	3301      	adds	r3, #1
 800719a:	b29b      	uxth	r3, r3
		if (OT_errorInCounter >= OT_errorCount)
 800719c:	428b      	cmp	r3, r1
 800719e:	d831      	bhi.n	8007204 <errorDetector+0x3ac>
			OT_errorOutCounter++;
 80071a0:	8013      	strh	r3, [r2, #0]
	{
		check_OT();
	}

	if (charger_configGet.en_1.bit.ov_en == 1)
 80071a2:	7823      	ldrb	r3, [r4, #0]
 80071a4:	f3c3 0381 	ubfx	r3, r3, #2, #2
 80071a8:	2b01      	cmp	r3, #1
 80071aa:	f040 808f 	bne.w	80072cc <errorDetector+0x474>
	if (threePhaseMeter)
 80071ae:	7833      	ldrb	r3, [r6, #0]
 80071b0:	2b00      	cmp	r3, #0
 80071b2:	d060      	beq.n	8007276 <errorDetector+0x41e>
		if ((powerSide_data.voltage.VA >= charger_configGet.ov_upper)
 80071b4:	4b6f      	ldr	r3, [pc, #444]	@ (8007374 <errorDetector+0x51c>)
 80071b6:	4872      	ldr	r0, [pc, #456]	@ (8007380 <errorDetector+0x528>)
 80071b8:	8a99      	ldrh	r1, [r3, #20]
 80071ba:	8962      	ldrh	r2, [r4, #10]
 80071bc:	b289      	uxth	r1, r1
 80071be:	b292      	uxth	r2, r2
 80071c0:	4291      	cmp	r1, r2
 80071c2:	d20b      	bcs.n	80071dc <errorDetector+0x384>
				|| (powerSide_data.voltage.VB >= charger_configGet.ov_upper)
 80071c4:	8ad9      	ldrh	r1, [r3, #22]
 80071c6:	8962      	ldrh	r2, [r4, #10]
 80071c8:	b289      	uxth	r1, r1
 80071ca:	b292      	uxth	r2, r2
 80071cc:	4291      	cmp	r1, r2
 80071ce:	d205      	bcs.n	80071dc <errorDetector+0x384>
				|| (powerSide_data.voltage.VC >= charger_configGet.ov_upper))
 80071d0:	8b19      	ldrh	r1, [r3, #24]
 80071d2:	8962      	ldrh	r2, [r4, #10]
 80071d4:	b289      	uxth	r1, r1
 80071d6:	b292      	uxth	r2, r2
 80071d8:	4291      	cmp	r1, r2
 80071da:	d330      	bcc.n	800723e <errorDetector+0x3e6>
			OV_errorOutCounter = 0;
 80071dc:	2100      	movs	r1, #0
 80071de:	4a69      	ldr	r2, [pc, #420]	@ (8007384 <errorDetector+0x52c>)
 80071e0:	8011      	strh	r1, [r2, #0]
			OV_errorInCounter++;
 80071e2:	8802      	ldrh	r2, [r0, #0]
 80071e4:	3201      	adds	r2, #1
 80071e6:	b292      	uxth	r2, r2
			if (OV_errorInCounter >= OV_errorCount)
 80071e8:	f5b2 6f7a 	cmp.w	r2, #4000	@ 0xfa0
			OV_errorInCounter++;
 80071ec:	8002      	strh	r2, [r0, #0]
			if (OV_errorInCounter >= OV_errorCount)
 80071ee:	d342      	bcc.n	8007276 <errorDetector+0x41e>
				powerSide_data.errorStatus.bit.error_OV = 1;
 80071f0:	785a      	ldrb	r2, [r3, #1]
 80071f2:	f042 0201 	orr.w	r2, r2, #1
					powerSide_data.errorStatus.bit.error_OV = 0;
 80071f6:	705a      	strb	r2, [r3, #1]
 80071f8:	e03d      	b.n	8007276 <errorDetector+0x41e>
					powerSide_data.errorStatus.bit.error_PL = 0;
 80071fa:	785a      	ldrb	r2, [r3, #1]
					PL_errorOutCounter = 0;
 80071fc:	8001      	strh	r1, [r0, #0]
					powerSide_data.errorStatus.bit.error_PL = 0;
 80071fe:	f361 1286 	bfi	r2, r1, #6, #1
 8007202:	e6f7      	b.n	8006ff4 <errorDetector+0x19c>
			powerSide_data.errorStatus.bit.error_OT = 1;
 8007204:	787b      	ldrb	r3, [r7, #1]
			OT_errorInCounter = 0;
 8007206:	f8a2 8000 	strh.w	r8, [r2]
			powerSide_data.errorStatus.bit.error_OT = 1;
 800720a:	f043 0320 	orr.w	r3, r3, #32
				powerSide_data.errorStatus.bit.error_OT = 0;
 800720e:	707b      	strb	r3, [r7, #1]
 8007210:	e7c7      	b.n	80071a2 <errorDetector+0x34a>
		if (((uint8_t)powerSide_data.tempSensors.T1) < OT_LOWER_THRESHOLD)
 8007212:	6878      	ldr	r0, [r7, #4]
		OT_errorInCounter = 0;
 8007214:	f8a2 8000 	strh.w	r8, [r2]
		if (((uint8_t)powerSide_data.tempSensors.T1) < OT_LOWER_THRESHOLD)
 8007218:	f7fd fb22 	bl	8004860 <__aeabi_f2uiz>
 800721c:	b2c0      	uxtb	r0, r0
 800721e:	2836      	cmp	r0, #54	@ 0x36
 8007220:	d8bf      	bhi.n	80071a2 <errorDetector+0x34a>
			if (OT_errorOutCounter >= OT_errorCount)
 8007222:	f649 413f 	movw	r1, #39999	@ 0x9c3f
			OT_errorOutCounter++;
 8007226:	4a55      	ldr	r2, [pc, #340]	@ (800737c <errorDetector+0x524>)
 8007228:	8813      	ldrh	r3, [r2, #0]
 800722a:	3301      	adds	r3, #1
 800722c:	b29b      	uxth	r3, r3
			if (OT_errorOutCounter >= OT_errorCount)
 800722e:	428b      	cmp	r3, r1
 8007230:	d9b6      	bls.n	80071a0 <errorDetector+0x348>
				powerSide_data.errorStatus.bit.error_OT = 0;
 8007232:	787b      	ldrb	r3, [r7, #1]
				OT_errorOutCounter = 0;
 8007234:	f8a2 8000 	strh.w	r8, [r2]
				powerSide_data.errorStatus.bit.error_OT = 0;
 8007238:	f368 1345 	bfi	r3, r8, #5, #1
 800723c:	e7e7      	b.n	800720e <errorDetector+0x3b6>
			OV_errorInCounter = 0;
 800723e:	2100      	movs	r1, #0
 8007240:	8001      	strh	r1, [r0, #0]
			if ((powerSide_data.voltage.VA < charger_configGet.ov_lower)
 8007242:	8a98      	ldrh	r0, [r3, #20]
 8007244:	89a2      	ldrh	r2, [r4, #12]
 8007246:	b280      	uxth	r0, r0
 8007248:	b292      	uxth	r2, r2
 800724a:	4290      	cmp	r0, r2
 800724c:	d213      	bcs.n	8007276 <errorDetector+0x41e>
					&& (powerSide_data.voltage.VB < charger_configGet.ov_lower)
 800724e:	8ad8      	ldrh	r0, [r3, #22]
 8007250:	89a2      	ldrh	r2, [r4, #12]
 8007252:	b280      	uxth	r0, r0
 8007254:	b292      	uxth	r2, r2
 8007256:	4290      	cmp	r0, r2
 8007258:	d20d      	bcs.n	8007276 <errorDetector+0x41e>
					&& (powerSide_data.voltage.VC < charger_configGet.ov_lower))
 800725a:	8b18      	ldrh	r0, [r3, #24]
 800725c:	89a2      	ldrh	r2, [r4, #12]
 800725e:	b280      	uxth	r0, r0
 8007260:	b292      	uxth	r2, r2
 8007262:	4290      	cmp	r0, r2
 8007264:	d207      	bcs.n	8007276 <errorDetector+0x41e>
				OV_errorOutCounter++;
 8007266:	4847      	ldr	r0, [pc, #284]	@ (8007384 <errorDetector+0x52c>)
 8007268:	8802      	ldrh	r2, [r0, #0]
 800726a:	3201      	adds	r2, #1
 800726c:	b292      	uxth	r2, r2
				if (OV_errorOutCounter >= OV_errorCount)
 800726e:	f5b2 6f7a 	cmp.w	r2, #4000	@ 0xfa0
 8007272:	d216      	bcs.n	80072a2 <errorDetector+0x44a>
				OV_errorOutCounter++;
 8007274:	8002      	strh	r2, [r0, #0]
	if (singlePhaseMeter)
 8007276:	782b      	ldrb	r3, [r5, #0]
 8007278:	b343      	cbz	r3, 80072cc <errorDetector+0x474>
		if (powerSide_data.voltage.VA >= charger_configGet.ov_upper)
 800727a:	4b3e      	ldr	r3, [pc, #248]	@ (8007374 <errorDetector+0x51c>)
 800727c:	8a99      	ldrh	r1, [r3, #20]
 800727e:	8962      	ldrh	r2, [r4, #10]
 8007280:	b289      	uxth	r1, r1
 8007282:	b292      	uxth	r2, r2
 8007284:	4291      	cmp	r1, r2
 8007286:	493e      	ldr	r1, [pc, #248]	@ (8007380 <errorDetector+0x528>)
 8007288:	d310      	bcc.n	80072ac <errorDetector+0x454>
			OV_errorInCounter++;
 800728a:	880a      	ldrh	r2, [r1, #0]
 800728c:	3201      	adds	r2, #1
 800728e:	b292      	uxth	r2, r2
			if (OV_errorInCounter >= OV_errorCount)
 8007290:	f5b2 6f7a 	cmp.w	r2, #4000	@ 0xfa0
			OV_errorInCounter++;
 8007294:	800a      	strh	r2, [r1, #0]
			if (OV_errorInCounter >= OV_errorCount)
 8007296:	d319      	bcc.n	80072cc <errorDetector+0x474>
				powerSide_data.errorStatus.bit.error_OV = 1;
 8007298:	785a      	ldrb	r2, [r3, #1]
 800729a:	f042 0201 	orr.w	r2, r2, #1
					powerSide_data.errorStatus.bit.error_OV = 0;
 800729e:	705a      	strb	r2, [r3, #1]
 80072a0:	e014      	b.n	80072cc <errorDetector+0x474>
					powerSide_data.errorStatus.bit.error_OV = 0;
 80072a2:	785a      	ldrb	r2, [r3, #1]
					OV_errorOutCounter = 0;
 80072a4:	8001      	strh	r1, [r0, #0]
					powerSide_data.errorStatus.bit.error_OV = 0;
 80072a6:	f361 0200 	bfi	r2, r1, #0, #1
 80072aa:	e7a4      	b.n	80071f6 <errorDetector+0x39e>
			OV_errorInCounter = 0;
 80072ac:	2000      	movs	r0, #0
 80072ae:	8008      	strh	r0, [r1, #0]
			if (powerSide_data.voltage.VA < charger_configGet.ov_lower)
 80072b0:	8a99      	ldrh	r1, [r3, #20]
 80072b2:	89a2      	ldrh	r2, [r4, #12]
 80072b4:	b289      	uxth	r1, r1
 80072b6:	b292      	uxth	r2, r2
 80072b8:	4291      	cmp	r1, r2
 80072ba:	4932      	ldr	r1, [pc, #200]	@ (8007384 <errorDetector+0x52c>)
 80072bc:	d24d      	bcs.n	800735a <errorDetector+0x502>
				OV_errorOutCounter++;
 80072be:	880a      	ldrh	r2, [r1, #0]
 80072c0:	3201      	adds	r2, #1
 80072c2:	b292      	uxth	r2, r2
				if (OV_errorOutCounter >= OV_errorCount)
 80072c4:	f5b2 6f7a 	cmp.w	r2, #4000	@ 0xfa0
 80072c8:	d242      	bcs.n	8007350 <errorDetector+0x4f8>
				OV_errorOutCounter++;
 80072ca:	800a      	strh	r2, [r1, #0]
	{
		check_OV();
	}

	if (charger_configGet.en_1.bit.uv_en == 1)
 80072cc:	7823      	ldrb	r3, [r4, #0]
 80072ce:	f003 0303 	and.w	r3, r3, #3
 80072d2:	2b01      	cmp	r3, #1
 80072d4:	f040 808c 	bne.w	80073f0 <errorDetector+0x598>
	if (threePhaseMeter)
 80072d8:	7833      	ldrb	r3, [r6, #0]
 80072da:	b1f3      	cbz	r3, 800731a <errorDetector+0x4c2>
		if ((powerSide_data.voltage.VA < charger_configGet.uv_lower)
 80072dc:	4b25      	ldr	r3, [pc, #148]	@ (8007374 <errorDetector+0x51c>)
 80072de:	8a99      	ldrh	r1, [r3, #20]
 80072e0:	8922      	ldrh	r2, [r4, #8]
 80072e2:	b289      	uxth	r1, r1
 80072e4:	b292      	uxth	r2, r2
 80072e6:	4291      	cmp	r1, r2
 80072e8:	4927      	ldr	r1, [pc, #156]	@ (8007388 <errorDetector+0x530>)
 80072ea:	d30b      	bcc.n	8007304 <errorDetector+0x4ac>
				|| (powerSide_data.voltage.VB < charger_configGet.uv_lower)
 80072ec:	8ad8      	ldrh	r0, [r3, #22]
 80072ee:	8922      	ldrh	r2, [r4, #8]
 80072f0:	b280      	uxth	r0, r0
 80072f2:	b292      	uxth	r2, r2
 80072f4:	4290      	cmp	r0, r2
 80072f6:	d305      	bcc.n	8007304 <errorDetector+0x4ac>
				|| (powerSide_data.voltage.VC < charger_configGet.uv_lower))
 80072f8:	8b18      	ldrh	r0, [r3, #24]
 80072fa:	8922      	ldrh	r2, [r4, #8]
 80072fc:	b280      	uxth	r0, r0
 80072fe:	b292      	uxth	r2, r2
 8007300:	4290      	cmp	r0, r2
 8007302:	d245      	bcs.n	8007390 <errorDetector+0x538>
			UV_errorOutCounter = 0;
 8007304:	2000      	movs	r0, #0
			if (UV_errorInCounter >= UV_errorCount)
 8007306:	f242 760f 	movw	r6, #9999	@ 0x270f
			UV_errorOutCounter = 0;
 800730a:	4a20      	ldr	r2, [pc, #128]	@ (800738c <errorDetector+0x534>)
 800730c:	8010      	strh	r0, [r2, #0]
			UV_errorInCounter++;
 800730e:	880a      	ldrh	r2, [r1, #0]
 8007310:	3201      	adds	r2, #1
 8007312:	b292      	uxth	r2, r2
			if (UV_errorInCounter >= UV_errorCount)
 8007314:	42b2      	cmp	r2, r6
 8007316:	d822      	bhi.n	800735e <errorDetector+0x506>
				UV_errorOutCounter++;
 8007318:	800a      	strh	r2, [r1, #0]
	if (singlePhaseMeter)
 800731a:	782b      	ldrb	r3, [r5, #0]
 800731c:	2b00      	cmp	r3, #0
 800731e:	d067      	beq.n	80073f0 <errorDetector+0x598>
		if (powerSide_data.voltage.VA < charger_configGet.uv_lower)
 8007320:	4b14      	ldr	r3, [pc, #80]	@ (8007374 <errorDetector+0x51c>)
 8007322:	2000      	movs	r0, #0
 8007324:	8a99      	ldrh	r1, [r3, #20]
 8007326:	8922      	ldrh	r2, [r4, #8]
 8007328:	b289      	uxth	r1, r1
 800732a:	b292      	uxth	r2, r2
 800732c:	4291      	cmp	r1, r2
 800732e:	4d16      	ldr	r5, [pc, #88]	@ (8007388 <errorDetector+0x530>)
 8007330:	4916      	ldr	r1, [pc, #88]	@ (800738c <errorDetector+0x534>)
 8007332:	d24e      	bcs.n	80073d2 <errorDetector+0x57a>
			UV_errorOutCounter = 0;
 8007334:	8008      	strh	r0, [r1, #0]
			if (UV_errorInCounter >= UV_errorCount)
 8007336:	f242 710f 	movw	r1, #9999	@ 0x270f
			UV_errorInCounter++;
 800733a:	882a      	ldrh	r2, [r5, #0]
 800733c:	3201      	adds	r2, #1
 800733e:	b292      	uxth	r2, r2
			if (UV_errorInCounter >= UV_errorCount)
 8007340:	428a      	cmp	r2, r1
			UV_errorInCounter++;
 8007342:	802a      	strh	r2, [r5, #0]
			if (UV_errorInCounter >= UV_errorCount)
 8007344:	d954      	bls.n	80073f0 <errorDetector+0x598>
				powerSide_data.errorStatus.bit.error_UV = 1;
 8007346:	785a      	ldrb	r2, [r3, #1]
 8007348:	f042 0202 	orr.w	r2, r2, #2
					powerSide_data.errorStatus.bit.error_UV = 0;
 800734c:	705a      	strb	r2, [r3, #1]
 800734e:	e04f      	b.n	80073f0 <errorDetector+0x598>
					powerSide_data.errorStatus.bit.error_OV = 0;
 8007350:	785a      	ldrb	r2, [r3, #1]
					OV_errorOutCounter = 0;
 8007352:	8008      	strh	r0, [r1, #0]
					powerSide_data.errorStatus.bit.error_OV = 0;
 8007354:	f360 0200 	bfi	r2, r0, #0, #1
 8007358:	e7a1      	b.n	800729e <errorDetector+0x446>
				OV_errorOutCounter = 0;
 800735a:	8008      	strh	r0, [r1, #0]
 800735c:	e7b6      	b.n	80072cc <errorDetector+0x474>
				powerSide_data.errorStatus.bit.error_UV = 1;
 800735e:	785a      	ldrb	r2, [r3, #1]
				UV_errorInCounter = 0;
 8007360:	8008      	strh	r0, [r1, #0]
				powerSide_data.errorStatus.bit.error_UV = 1;
 8007362:	f042 0202 	orr.w	r2, r2, #2
					powerSide_data.errorStatus.bit.error_UV = 0;
 8007366:	705a      	strb	r2, [r3, #1]
 8007368:	e7d7      	b.n	800731a <errorDetector+0x4c2>
 800736a:	bf00      	nop
 800736c:	20001458 	.word	0x20001458
 8007370:	2000149e 	.word	0x2000149e
 8007374:	20001428 	.word	0x20001428
 8007378:	20001496 	.word	0x20001496
 800737c:	20001494 	.word	0x20001494
 8007380:	200014a4 	.word	0x200014a4
 8007384:	200014a2 	.word	0x200014a2
 8007388:	200014a8 	.word	0x200014a8
 800738c:	200014a6 	.word	0x200014a6
			UV_errorInCounter = 0;
 8007390:	2000      	movs	r0, #0
 8007392:	8008      	strh	r0, [r1, #0]
			if ((powerSide_data.voltage.VA >= charger_configGet.uv_upper)
 8007394:	8a99      	ldrh	r1, [r3, #20]
 8007396:	88e2      	ldrh	r2, [r4, #6]
 8007398:	b289      	uxth	r1, r1
 800739a:	b292      	uxth	r2, r2
 800739c:	4291      	cmp	r1, r2
 800739e:	d3bc      	bcc.n	800731a <errorDetector+0x4c2>
					&& (powerSide_data.voltage.VB >= charger_configGet.uv_upper)
 80073a0:	8ad9      	ldrh	r1, [r3, #22]
 80073a2:	88e2      	ldrh	r2, [r4, #6]
 80073a4:	b289      	uxth	r1, r1
 80073a6:	b292      	uxth	r2, r2
 80073a8:	4291      	cmp	r1, r2
 80073aa:	d3b6      	bcc.n	800731a <errorDetector+0x4c2>
					&& (powerSide_data.voltage.VC >= charger_configGet.uv_upper))
 80073ac:	8b19      	ldrh	r1, [r3, #24]
 80073ae:	88e2      	ldrh	r2, [r4, #6]
 80073b0:	b289      	uxth	r1, r1
 80073b2:	b292      	uxth	r2, r2
 80073b4:	4291      	cmp	r1, r2
 80073b6:	d3b0      	bcc.n	800731a <errorDetector+0x4c2>
				if (UV_errorOutCounter >= UV_errorCount)
 80073b8:	f242 760f 	movw	r6, #9999	@ 0x270f
				UV_errorOutCounter++;
 80073bc:	4929      	ldr	r1, [pc, #164]	@ (8007464 <errorDetector+0x60c>)
 80073be:	880a      	ldrh	r2, [r1, #0]
 80073c0:	3201      	adds	r2, #1
 80073c2:	b292      	uxth	r2, r2
				if (UV_errorOutCounter >= UV_errorCount)
 80073c4:	42b2      	cmp	r2, r6
 80073c6:	d9a7      	bls.n	8007318 <errorDetector+0x4c0>
					powerSide_data.errorStatus.bit.error_UV = 0;
 80073c8:	785a      	ldrb	r2, [r3, #1]
					UV_errorOutCounter = 0;
 80073ca:	8008      	strh	r0, [r1, #0]
					powerSide_data.errorStatus.bit.error_UV = 0;
 80073cc:	f360 0241 	bfi	r2, r0, #1, #1
 80073d0:	e7c9      	b.n	8007366 <errorDetector+0x50e>
			UV_errorInCounter = 0;
 80073d2:	8028      	strh	r0, [r5, #0]
			if (powerSide_data.voltage.VA >= charger_configGet.uv_upper)
 80073d4:	8a9d      	ldrh	r5, [r3, #20]
 80073d6:	88e2      	ldrh	r2, [r4, #6]
 80073d8:	b2ad      	uxth	r5, r5
 80073da:	b292      	uxth	r2, r2
 80073dc:	4295      	cmp	r5, r2
 80073de:	d32a      	bcc.n	8007436 <errorDetector+0x5de>
				if (UV_errorOutCounter >= UV_errorCount)
 80073e0:	f242 750f 	movw	r5, #9999	@ 0x270f
				UV_errorOutCounter++;
 80073e4:	880a      	ldrh	r2, [r1, #0]
 80073e6:	3201      	adds	r2, #1
 80073e8:	b292      	uxth	r2, r2
				if (UV_errorOutCounter >= UV_errorCount)
 80073ea:	42aa      	cmp	r2, r5
 80073ec:	d81e      	bhi.n	800742c <errorDetector+0x5d4>
				UV_errorOutCounter++;
 80073ee:	800a      	strh	r2, [r1, #0]
	{
		check_UV();
	}

	if (charger_configGet.en_1.bit.freq_en == 1)
 80073f0:	7863      	ldrb	r3, [r4, #1]
 80073f2:	099b      	lsrs	r3, r3, #6
 80073f4:	2b01      	cmp	r3, #1
 80073f6:	d117      	bne.n	8007428 <errorDetector+0x5d0>
	if ((powerSide_data.frequency >= charger_configGet.freq_lower)
 80073f8:	4b1b      	ldr	r3, [pc, #108]	@ (8007468 <errorDetector+0x610>)
 80073fa:	481c      	ldr	r0, [pc, #112]	@ (800746c <errorDetector+0x614>)
 80073fc:	8d99      	ldrh	r1, [r3, #44]	@ 0x2c
 80073fe:	8a22      	ldrh	r2, [r4, #16]
 8007400:	b289      	uxth	r1, r1
 8007402:	b292      	uxth	r2, r2
 8007404:	4291      	cmp	r1, r2
 8007406:	491a      	ldr	r1, [pc, #104]	@ (8007470 <errorDetector+0x618>)
 8007408:	d31d      	bcc.n	8007446 <errorDetector+0x5ee>
			&& (powerSide_data.frequency <= charger_configGet.freq_upper))
 800740a:	8d9d      	ldrh	r5, [r3, #44]	@ 0x2c
 800740c:	89e2      	ldrh	r2, [r4, #14]
 800740e:	b2ad      	uxth	r5, r5
 8007410:	b292      	uxth	r2, r2
 8007412:	4295      	cmp	r5, r2
 8007414:	d817      	bhi.n	8007446 <errorDetector+0x5ee>
		Freq_errorInCounter = 0;
 8007416:	2400      	movs	r4, #0
		Freq_errorOutCounter++;
 8007418:	8802      	ldrh	r2, [r0, #0]
		Freq_errorInCounter = 0;
 800741a:	800c      	strh	r4, [r1, #0]
		Freq_errorOutCounter++;
 800741c:	3201      	adds	r2, #1
 800741e:	b292      	uxth	r2, r2
		if (Freq_errorOutCounter >= Freq_errorCount)
 8007420:	f5b2 6f7a 	cmp.w	r2, #4000	@ 0xfa0
 8007424:	d209      	bcs.n	800743a <errorDetector+0x5e2>
		Freq_errorOutCounter++;
 8007426:	8002      	strh	r2, [r0, #0]
	{
		check_Freq();
	}

//	check_CFB();
}
 8007428:	e8bd 81f0 	ldmia.w	sp!, {r4, r5, r6, r7, r8, pc}
					powerSide_data.errorStatus.bit.error_UV = 0;
 800742c:	785a      	ldrb	r2, [r3, #1]
					UV_errorOutCounter = 0;
 800742e:	8008      	strh	r0, [r1, #0]
					powerSide_data.errorStatus.bit.error_UV = 0;
 8007430:	f360 0241 	bfi	r2, r0, #1, #1
 8007434:	e78a      	b.n	800734c <errorDetector+0x4f4>
				UV_errorOutCounter = 0;
 8007436:	8008      	strh	r0, [r1, #0]
 8007438:	e7da      	b.n	80073f0 <errorDetector+0x598>
			powerSide_data.errorStatus.bit.error_Freq = 0;
 800743a:	785a      	ldrb	r2, [r3, #1]
			Freq_errorOutCounter = 0;
 800743c:	8004      	strh	r4, [r0, #0]
			powerSide_data.errorStatus.bit.error_Freq = 0;
 800743e:	f364 1204 	bfi	r2, r4, #4, #1
			powerSide_data.errorStatus.bit.error_Freq = 1;
 8007442:	705a      	strb	r2, [r3, #1]
}
 8007444:	e7f0      	b.n	8007428 <errorDetector+0x5d0>
		Freq_errorOutCounter = 0;
 8007446:	2400      	movs	r4, #0
		Freq_errorInCounter++;
 8007448:	880a      	ldrh	r2, [r1, #0]
		Freq_errorOutCounter = 0;
 800744a:	8004      	strh	r4, [r0, #0]
		Freq_errorInCounter++;
 800744c:	3201      	adds	r2, #1
 800744e:	b292      	uxth	r2, r2
		if (Freq_errorInCounter >= Freq_errorCount)
 8007450:	f5b2 6f7a 	cmp.w	r2, #4000	@ 0xfa0
 8007454:	d201      	bcs.n	800745a <errorDetector+0x602>
		Freq_errorInCounter++;
 8007456:	800a      	strh	r2, [r1, #0]
 8007458:	e7e6      	b.n	8007428 <errorDetector+0x5d0>
			powerSide_data.errorStatus.bit.error_Freq = 1;
 800745a:	785a      	ldrb	r2, [r3, #1]
			Freq_errorInCounter = 0;
 800745c:	800c      	strh	r4, [r1, #0]
			powerSide_data.errorStatus.bit.error_Freq = 1;
 800745e:	f042 0210 	orr.w	r2, r2, #16
 8007462:	e7ee      	b.n	8007442 <errorDetector+0x5ea>
 8007464:	200014a6 	.word	0x200014a6
 8007468:	20001428 	.word	0x20001428
 800746c:	2000149a 	.word	0x2000149a
 8007470:	2000149c 	.word	0x2000149c

08007474 <errorHandler>:
 * Processes all detected errors, sets fault levels, and updates error logs.
 * Handles specific faults such as GFI trips, overcurrent, undervoltage,
 * overvoltage, and stuck contactors.
 */
void errorHandler(void)
{
 8007474:	b570      	push	{r4, r5, r6, lr}
	/*Stuck contactor handler*/
	if (powerSide_data.errorStatus.bit.error_SR_C == 1)
 8007476:	4d6e      	ldr	r5, [pc, #440]	@ (8007630 <errorHandler+0x1bc>)
 8007478:	4c6e      	ldr	r4, [pc, #440]	@ (8007634 <errorHandler+0x1c0>)
 800747a:	786b      	ldrb	r3, [r5, #1]
 800747c:	f013 0f04 	tst.w	r3, #4
 8007480:	f3c3 0280 	ubfx	r2, r3, #2, #1
 8007484:	d006      	beq.n	8007494 <errorHandler+0x20>
	{
		controlSide_data.errorStatus.bit.fault_level = PRIORITY_2;
 8007486:	2102      	movs	r1, #2
 8007488:	7863      	ldrb	r3, [r4, #1]
 800748a:	f361 0383 	bfi	r3, r1, #2, #2
 800748e:	7063      	strb	r3, [r4, #1]
		currentError = SC;
 8007490:	4b69      	ldr	r3, [pc, #420]	@ (8007638 <errorHandler+0x1c4>)
 8007492:	701a      	strb	r2, [r3, #0]
	}
	/*GFI Test failure handler*/
	if (powerSide_data.errorStatus.bit.error_GFI_test == 1)
 8007494:	786b      	ldrb	r3, [r5, #1]
 8007496:	0718      	lsls	r0, r3, #28
 8007498:	d506      	bpl.n	80074a8 <errorHandler+0x34>
	{
		controlSide_data.errorStatus.bit.fault_level = PRIORITY_2;
 800749a:	2202      	movs	r2, #2
 800749c:	7863      	ldrb	r3, [r4, #1]
 800749e:	f362 0383 	bfi	r3, r2, #2, #2
 80074a2:	7063      	strb	r3, [r4, #1]
		currentError = GFI_Test;
 80074a4:	4b64      	ldr	r3, [pc, #400]	@ (8007638 <errorHandler+0x1c4>)
 80074a6:	701a      	strb	r2, [r3, #0]
	}
	/*GFI handler*/
	if (powerSide_data.tripStatus.bit.trip_GFI == 1)
 80074a8:	78ab      	ldrb	r3, [r5, #2]
 80074aa:	4e64      	ldr	r6, [pc, #400]	@ (800763c <errorHandler+0x1c8>)
 80074ac:	f013 0f02 	tst.w	r3, #2
 80074b0:	f3c3 0140 	ubfx	r1, r3, #1, #1
 80074b4:	d014      	beq.n	80074e0 <errorHandler+0x6c>
	{
		if (GFI_triggered == false)
 80074b6:	4862      	ldr	r0, [pc, #392]	@ (8007640 <errorHandler+0x1cc>)
 80074b8:	4b62      	ldr	r3, [pc, #392]	@ (8007644 <errorHandler+0x1d0>)
 80074ba:	7802      	ldrb	r2, [r0, #0]
 80074bc:	b922      	cbnz	r2, 80074c8 <errorHandler+0x54>
		{
			GFI_triggered = true;
			GFCI_errorCounter++;
 80074be:	781a      	ldrb	r2, [r3, #0]
			GFI_triggered = true;
 80074c0:	7001      	strb	r1, [r0, #0]
			GFCI_errorCounter++;
 80074c2:	3201      	adds	r2, #1
 80074c4:	701a      	strb	r2, [r3, #0]
			gfic_reset = true;
 80074c6:	7031      	strb	r1, [r6, #0]
		}

		if (GFCI_errorCounter >= GFCI_errorCount)
 80074c8:	781b      	ldrb	r3, [r3, #0]
 80074ca:	2b02      	cmp	r3, #2
		{
			controlSide_data.errorStatus.bit.fault_level = PRIORITY_2;
 80074cc:	7863      	ldrb	r3, [r4, #1]
		if (GFCI_errorCounter >= GFCI_errorCount)
 80074ce:	f240 80a9 	bls.w	8007624 <errorHandler+0x1b0>
			controlSide_data.errorStatus.bit.fault_level = PRIORITY_2;
 80074d2:	2202      	movs	r2, #2
 80074d4:	f362 0383 	bfi	r3, r2, #2, #2
			currentError = GFI;
 80074d8:	2203      	movs	r2, #3
			controlSide_data.errorStatus.bit.fault_level = PRIORITY_2;
 80074da:	7063      	strb	r3, [r4, #1]
			currentError = GFI;
 80074dc:	4b56      	ldr	r3, [pc, #344]	@ (8007638 <errorHandler+0x1c4>)
 80074de:	701a      	strb	r2, [r3, #0]
		{
			controlSide_data.errorStatus.bit.fault_level = PRIORITY_1;
		}
	}
	/*Modbus error handler*/
	if (controlSide_data.errorStatus.bit.serialAError == 1)
 80074e0:	7863      	ldrb	r3, [r4, #1]
 80074e2:	07d9      	lsls	r1, r3, #31
 80074e4:	d507      	bpl.n	80074f6 <errorHandler+0x82>
	{
		controlSide_data.errorStatus.bit.fault_level = PRIORITY_2;
 80074e6:	2202      	movs	r2, #2
 80074e8:	7863      	ldrb	r3, [r4, #1]
 80074ea:	f362 0383 	bfi	r3, r2, #2, #2
		currentError = modbus_error;
 80074ee:	2204      	movs	r2, #4
		controlSide_data.errorStatus.bit.fault_level = PRIORITY_2;
 80074f0:	7063      	strb	r3, [r4, #1]
		currentError = modbus_error;
 80074f2:	4b51      	ldr	r3, [pc, #324]	@ (8007638 <errorHandler+0x1c4>)
 80074f4:	701a      	strb	r2, [r3, #0]
	}
	/*Over current handler*/
	if (powerSide_data.tripStatus.bit.trip_OC == 1)
 80074f6:	78ab      	ldrb	r3, [r5, #2]
 80074f8:	07da      	lsls	r2, r3, #31
 80074fa:	d507      	bpl.n	800750c <errorHandler+0x98>
	{
		controlSide_data.errorStatus.bit.fault_level = PRIORITY_2;
 80074fc:	2202      	movs	r2, #2
 80074fe:	7863      	ldrb	r3, [r4, #1]
 8007500:	f362 0383 	bfi	r3, r2, #2, #2
		currentError = OC;
 8007504:	2205      	movs	r2, #5
		controlSide_data.errorStatus.bit.fault_level = PRIORITY_2;
 8007506:	7063      	strb	r3, [r4, #1]
		currentError = OC;
 8007508:	4b4b      	ldr	r3, [pc, #300]	@ (8007638 <errorHandler+0x1c4>)
 800750a:	701a      	strb	r2, [r3, #0]
	}
	/*Phase loss handler*/
	if (powerSide_data.errorStatus.bit.error_PL == 1)
 800750c:	786b      	ldrb	r3, [r5, #1]
 800750e:	065b      	lsls	r3, r3, #25
 8007510:	d507      	bpl.n	8007522 <errorHandler+0xae>
	{
		controlSide_data.errorStatus.bit.fault_level = PRIORITY_2;
 8007512:	2202      	movs	r2, #2
 8007514:	7863      	ldrb	r3, [r4, #1]
 8007516:	f362 0383 	bfi	r3, r2, #2, #2
		currentError = PL;
 800751a:	2206      	movs	r2, #6
		controlSide_data.errorStatus.bit.fault_level = PRIORITY_2;
 800751c:	7063      	strb	r3, [r4, #1]
		currentError = PL;
 800751e:	4b46      	ldr	r3, [pc, #280]	@ (8007638 <errorHandler+0x1c4>)
 8007520:	701a      	strb	r2, [r3, #0]
	}
	/*Over temperature handler*/
	if (powerSide_data.errorStatus.bit.error_OT == 1)
 8007522:	786b      	ldrb	r3, [r5, #1]
 8007524:	0698      	lsls	r0, r3, #26
 8007526:	f3c3 1240 	ubfx	r2, r3, #5, #1
 800752a:	d506      	bpl.n	800753a <errorHandler+0xc6>
	{
		controlSide_data.errorStatus.bit.fault_level = PRIORITY_1;
 800752c:	7863      	ldrb	r3, [r4, #1]
 800752e:	f362 0383 	bfi	r3, r2, #2, #2
		currentError = OT;
 8007532:	2207      	movs	r2, #7
		controlSide_data.errorStatus.bit.fault_level = PRIORITY_1;
 8007534:	7063      	strb	r3, [r4, #1]
		currentError = OT;
 8007536:	4b40      	ldr	r3, [pc, #256]	@ (8007638 <errorHandler+0x1c4>)
 8007538:	701a      	strb	r2, [r3, #0]
	}
	/*Control pilot fault handler*/
	if (controlSide_data.errorStatus.bit.CPFault == 1)
 800753a:	7863      	ldrb	r3, [r4, #1]
 800753c:	06d9      	lsls	r1, r3, #27
 800753e:	d507      	bpl.n	8007550 <errorHandler+0xdc>
	{
		controlSide_data.errorStatus.bit.fault_level = PRIORITY_2;
 8007540:	2202      	movs	r2, #2
 8007542:	7863      	ldrb	r3, [r4, #1]
 8007544:	f362 0383 	bfi	r3, r2, #2, #2
		currentError = CP_Fault;
 8007548:	2208      	movs	r2, #8
		controlSide_data.errorStatus.bit.fault_level = PRIORITY_2;
 800754a:	7063      	strb	r3, [r4, #1]
		currentError = CP_Fault;
 800754c:	4b3a      	ldr	r3, [pc, #232]	@ (8007638 <errorHandler+0x1c4>)
 800754e:	701a      	strb	r2, [r3, #0]
	}
	/*Diode check failure handler*/
	if (controlSide_data.errorStatus.bit.diodeCheck_failed == 1)
 8007550:	7863      	ldrb	r3, [r4, #1]
 8007552:	079a      	lsls	r2, r3, #30
 8007554:	d507      	bpl.n	8007566 <errorHandler+0xf2>
	{
		controlSide_data.errorStatus.bit.fault_level = PRIORITY_2;
 8007556:	2202      	movs	r2, #2
 8007558:	7863      	ldrb	r3, [r4, #1]
 800755a:	f362 0383 	bfi	r3, r2, #2, #2
		currentError = Diode_Failure;
 800755e:	2209      	movs	r2, #9
		controlSide_data.errorStatus.bit.fault_level = PRIORITY_2;
 8007560:	7063      	strb	r3, [r4, #1]
		currentError = Diode_Failure;
 8007562:	4b35      	ldr	r3, [pc, #212]	@ (8007638 <errorHandler+0x1c4>)
 8007564:	701a      	strb	r2, [r3, #0]
	}
	/*Over voltage handler*/
	if (powerSide_data.errorStatus.bit.error_OV == 1)
 8007566:	786b      	ldrb	r3, [r5, #1]
 8007568:	f013 0201 	ands.w	r2, r3, #1
 800756c:	d006      	beq.n	800757c <errorHandler+0x108>
	{
		controlSide_data.errorStatus.bit.fault_level = PRIORITY_1;
 800756e:	7863      	ldrb	r3, [r4, #1]
 8007570:	f362 0383 	bfi	r3, r2, #2, #2
		currentError = OV;
 8007574:	220a      	movs	r2, #10
		controlSide_data.errorStatus.bit.fault_level = PRIORITY_1;
 8007576:	7063      	strb	r3, [r4, #1]
		currentError = OV;
 8007578:	4b2f      	ldr	r3, [pc, #188]	@ (8007638 <errorHandler+0x1c4>)
 800757a:	701a      	strb	r2, [r3, #0]
	}
	/*Under voltage handler*/
	if (powerSide_data.errorStatus.bit.error_UV == 1)
 800757c:	786b      	ldrb	r3, [r5, #1]
 800757e:	f3c3 0240 	ubfx	r2, r3, #1, #1
 8007582:	079b      	lsls	r3, r3, #30
 8007584:	d506      	bpl.n	8007594 <errorHandler+0x120>
	{
		controlSide_data.errorStatus.bit.fault_level = PRIORITY_1;
 8007586:	7863      	ldrb	r3, [r4, #1]
 8007588:	f362 0383 	bfi	r3, r2, #2, #2
		currentError = UV;
 800758c:	220b      	movs	r2, #11
		controlSide_data.errorStatus.bit.fault_level = PRIORITY_1;
 800758e:	7063      	strb	r3, [r4, #1]
		currentError = UV;
 8007590:	4b29      	ldr	r3, [pc, #164]	@ (8007638 <errorHandler+0x1c4>)
 8007592:	701a      	strb	r2, [r3, #0]
	}

	/*Frequency error handler*/
	if (powerSide_data.errorStatus.bit.error_Freq == 1)
 8007594:	786b      	ldrb	r3, [r5, #1]
 8007596:	06d8      	lsls	r0, r3, #27
 8007598:	f3c3 1200 	ubfx	r2, r3, #4, #1
 800759c:	d506      	bpl.n	80075ac <errorHandler+0x138>
	{
		controlSide_data.errorStatus.bit.fault_level = PRIORITY_1;
 800759e:	7863      	ldrb	r3, [r4, #1]
 80075a0:	f362 0383 	bfi	r3, r2, #2, #2
		currentError = Freq;
 80075a4:	220c      	movs	r2, #12
		controlSide_data.errorStatus.bit.fault_level = PRIORITY_1;
 80075a6:	7063      	strb	r3, [r4, #1]
		currentError = Freq;
 80075a8:	4b23      	ldr	r3, [pc, #140]	@ (8007638 <errorHandler+0x1c4>)
 80075aa:	701a      	strb	r2, [r3, #0]
	}
	/*Contactor feedback error handler*/
	if (powerSide_data.errorStatus.bit.error_CFB == 1)
 80075ac:	786b      	ldrb	r3, [r5, #1]
 80075ae:	09db      	lsrs	r3, r3, #7
 80075b0:	d007      	beq.n	80075c2 <errorHandler+0x14e>
	{
		controlSide_data.errorStatus.bit.fault_level = PRIORITY_2;
 80075b2:	2202      	movs	r2, #2
 80075b4:	7863      	ldrb	r3, [r4, #1]
 80075b6:	f362 0383 	bfi	r3, r2, #2, #2
		currentError = CFB;
 80075ba:	220d      	movs	r2, #13
		controlSide_data.errorStatus.bit.fault_level = PRIORITY_2;
 80075bc:	7063      	strb	r3, [r4, #1]
		currentError = CFB;
 80075be:	4b1e      	ldr	r3, [pc, #120]	@ (8007638 <errorHandler+0x1c4>)
 80075c0:	701a      	strb	r2, [r3, #0]
	}

	/*GFI trip reset handler*/
	if (gfic_reset == true)
 80075c2:	7833      	ldrb	r3, [r6, #0]
 80075c4:	b1db      	cbz	r3, 80075fe <errorHandler+0x18a>
	{
		if (GFCI_errorCounter >= GFCI_errorCount)
 80075c6:	4a1f      	ldr	r2, [pc, #124]	@ (8007644 <errorHandler+0x1d0>)
 80075c8:	7813      	ldrb	r3, [r2, #0]
 80075ca:	2b02      	cmp	r3, #2
 80075cc:	d905      	bls.n	80075da <errorHandler+0x166>
		{
			if (controlSide_data.status.bit.connector_state == 0)
 80075ce:	7823      	ldrb	r3, [r4, #0]
 80075d0:	f3c3 11c0 	ubfx	r1, r3, #7, #1
 80075d4:	09db      	lsrs	r3, r3, #7
 80075d6:	d112      	bne.n	80075fe <errorHandler+0x18a>
			{
				GFCI_errorCounter = 0;
 80075d8:	7011      	strb	r1, [r2, #0]
				GFIC_RESET_ON();
 80075da:	f44f 5100 	mov.w	r1, #8192	@ 0x2000
 80075de:	2201      	movs	r2, #1
 80075e0:	4819      	ldr	r0, [pc, #100]	@ (8007648 <errorHandler+0x1d4>)
 80075e2:	f002 f8b3 	bl	800974c <HAL_GPIO_WritePin>

				if (powerSide_data.tripStatus.bit.trip_GFI == 0)
 80075e6:	78ab      	ldrb	r3, [r5, #2]
 80075e8:	0799      	lsls	r1, r3, #30
 80075ea:	d408      	bmi.n	80075fe <errorHandler+0x18a>
				{
					GFI_triggered = false;
 80075ec:	2200      	movs	r2, #0
 80075ee:	4b14      	ldr	r3, [pc, #80]	@ (8007640 <errorHandler+0x1cc>)
					gfic_reset = false;
					GFIC_RESET_OFF();
 80075f0:	f44f 5100 	mov.w	r1, #8192	@ 0x2000
 80075f4:	4814      	ldr	r0, [pc, #80]	@ (8007648 <errorHandler+0x1d4>)
					GFI_triggered = false;
 80075f6:	701a      	strb	r2, [r3, #0]
					gfic_reset = false;
 80075f8:	7032      	strb	r2, [r6, #0]
					GFIC_RESET_OFF();
 80075fa:	f002 f8a7 	bl	800974c <HAL_GPIO_WritePin>
			}
		}
	}

	/*Handle error flags clearing*/
	if ((powerSide_data.tripStatus.all == 0)
 80075fe:	78ab      	ldrb	r3, [r5, #2]
 8007600:	b97b      	cbnz	r3, 8007622 <errorHandler+0x1ae>
			&& (powerSide_data.errorStatus.all == 0)
 8007602:	786b      	ldrb	r3, [r5, #1]
 8007604:	b96b      	cbnz	r3, 8007622 <errorHandler+0x1ae>
			&& (controlSide_data.errorStatus.bit.diodeCheck_failed == 0)
 8007606:	7863      	ldrb	r3, [r4, #1]
 8007608:	079a      	lsls	r2, r3, #30
 800760a:	d40a      	bmi.n	8007622 <errorHandler+0x1ae>
			&& (controlSide_data.errorStatus.bit.CPFault == 0)
 800760c:	7863      	ldrb	r3, [r4, #1]
 800760e:	06db      	lsls	r3, r3, #27
 8007610:	d407      	bmi.n	8007622 <errorHandler+0x1ae>
			&& (controlSide_data.errorStatus.bit.serialAError == 0))
 8007612:	7863      	ldrb	r3, [r4, #1]
 8007614:	f013 0201 	ands.w	r2, r3, #1
	{
		controlSide_data.errorStatus.bit.fault_level = 0;
 8007618:	bf02      	ittt	eq
 800761a:	7863      	ldrbeq	r3, [r4, #1]
 800761c:	f362 0383 	bfieq	r3, r2, #2, #2
 8007620:	7063      	strbeq	r3, [r4, #1]
	}
}
 8007622:	bd70      	pop	{r4, r5, r6, pc}
			controlSide_data.errorStatus.bit.fault_level = PRIORITY_1;
 8007624:	2201      	movs	r2, #1
 8007626:	f362 0383 	bfi	r3, r2, #2, #2
 800762a:	7063      	strb	r3, [r4, #1]
 800762c:	e758      	b.n	80074e0 <errorHandler+0x6c>
 800762e:	bf00      	nop
 8007630:	20001428 	.word	0x20001428
 8007634:	20001458 	.word	0x20001458
 8007638:	2000148e 	.word	0x2000148e
 800763c:	200014b5 	.word	0x200014b5
 8007640:	200014b2 	.word	0x200014b2
 8007644:	200014b3 	.word	0x200014b3
 8007648:	40010c00 	.word	0x40010c00

0800764c <errorBuffer_log>:
 * @details
 * Maintains a log of detected errors for analysis or reporting. Ensures the
 * error buffer is updated only when a new error occurs.
 */
void errorBuffer_log(void)
{
 800764c:	b510      	push	{r4, lr}
	if (currentError != previousError)
 800764e:	4b09      	ldr	r3, [pc, #36]	@ (8007674 <errorBuffer_log+0x28>)
 8007650:	4909      	ldr	r1, [pc, #36]	@ (8007678 <errorBuffer_log+0x2c>)
 8007652:	781a      	ldrb	r2, [r3, #0]
 8007654:	780b      	ldrb	r3, [r1, #0]
 8007656:	4293      	cmp	r3, r2
 8007658:	d00a      	beq.n	8007670 <errorBuffer_log+0x24>
	{
		error_buffer[errorLog_count] = currentError;
 800765a:	4808      	ldr	r0, [pc, #32]	@ (800767c <errorBuffer_log+0x30>)
 800765c:	4c08      	ldr	r4, [pc, #32]	@ (8007680 <errorBuffer_log+0x34>)
 800765e:	7803      	ldrb	r3, [r0, #0]
		if (errorLog_count >= ERROR_BUFFER_SIZE)
		{
			errorLog_count = 0;
		}

		previousError = currentError;
 8007660:	700a      	strb	r2, [r1, #0]
		error_buffer[errorLog_count] = currentError;
 8007662:	54e2      	strb	r2, [r4, r3]
		errorLog_count++;
 8007664:	3301      	adds	r3, #1
 8007666:	b2db      	uxtb	r3, r3
		if (errorLog_count >= ERROR_BUFFER_SIZE)
 8007668:	2b05      	cmp	r3, #5
 800766a:	bf28      	it	cs
 800766c:	2300      	movcs	r3, #0
		errorLog_count++;
 800766e:	7003      	strb	r3, [r0, #0]
	}
}
 8007670:	bd10      	pop	{r4, pc}
 8007672:	bf00      	nop
 8007674:	2000148e 	.word	0x2000148e
 8007678:	2000148d 	.word	0x2000148d
 800767c:	2000148c 	.word	0x2000148c
 8007680:	2000148f 	.word	0x2000148f

08007684 <errorBuffer_report>:
 */
void errorBuffer_report(void)
{
	static uint8_t id = 0;

	if (error_handler.timeout_8s == true)
 8007684:	480b      	ldr	r0, [pc, #44]	@ (80076b4 <errorBuffer_report+0x30>)
{
 8007686:	b508      	push	{r3, lr}
	if (error_handler.timeout_8s == true)
 8007688:	7b03      	ldrb	r3, [r0, #12]
 800768a:	b18b      	cbz	r3, 80076b0 <errorBuffer_report+0x2c>
	{
		tick_clear(&error_handler);
 800768c:	f000 ff04 	bl	8008498 <tick_clear>

		controlSide_data.errorReport = error_buffer[id];
 8007690:	4a09      	ldr	r2, [pc, #36]	@ (80076b8 <errorBuffer_report+0x34>)
 8007692:	490a      	ldr	r1, [pc, #40]	@ (80076bc <errorBuffer_report+0x38>)
 8007694:	7813      	ldrb	r3, [r2, #0]
 8007696:	480a      	ldr	r0, [pc, #40]	@ (80076c0 <errorBuffer_report+0x3c>)
 8007698:	5cc9      	ldrb	r1, [r1, r3]
		id++;
 800769a:	3301      	adds	r3, #1
		controlSide_data.errorReport = error_buffer[id];
 800769c:	b2c9      	uxtb	r1, r1
 800769e:	77c1      	strb	r1, [r0, #31]

		if (id >= errorLog_count)
 80076a0:	4908      	ldr	r1, [pc, #32]	@ (80076c4 <errorBuffer_report+0x40>)
		id++;
 80076a2:	b2db      	uxtb	r3, r3
		if (id >= errorLog_count)
 80076a4:	7809      	ldrb	r1, [r1, #0]
		id++;
 80076a6:	7013      	strb	r3, [r2, #0]
		if (id >= errorLog_count)
 80076a8:	4299      	cmp	r1, r3
		{
			id = 0;
 80076aa:	bf9c      	itt	ls
 80076ac:	2300      	movls	r3, #0
 80076ae:	7013      	strbls	r3, [r2, #0]
		}
	}
}
 80076b0:	bd08      	pop	{r3, pc}
 80076b2:	bf00      	nop
 80076b4:	200015e8 	.word	0x200015e8
 80076b8:	20001489 	.word	0x20001489
 80076bc:	2000148f 	.word	0x2000148f
 80076c0:	20001458 	.word	0x20001458
 80076c4:	2000148c 	.word	0x2000148c

080076c8 <errorBuffer_clear>:
 * @details
 * Resets the error buffer and clears any stored error information.
 */
void errorBuffer_clear(void)
{
	currentError = 0;
 80076c8:	2300      	movs	r3, #0
 80076ca:	4a05      	ldr	r2, [pc, #20]	@ (80076e0 <errorBuffer_clear+0x18>)
 80076cc:	7013      	strb	r3, [r2, #0]
	previousError = 0;
 80076ce:	4a05      	ldr	r2, [pc, #20]	@ (80076e4 <errorBuffer_clear+0x1c>)
 80076d0:	7013      	strb	r3, [r2, #0]
	errorLog_count = 0;
 80076d2:	4a05      	ldr	r2, [pc, #20]	@ (80076e8 <errorBuffer_clear+0x20>)
 80076d4:	7013      	strb	r3, [r2, #0]
	memset((uint8_t*) error_buffer, 0, (sizeof(error_buffer)/sizeof(error_buffer[0])));
 80076d6:	4a05      	ldr	r2, [pc, #20]	@ (80076ec <errorBuffer_clear+0x24>)
 80076d8:	6013      	str	r3, [r2, #0]
 80076da:	7113      	strb	r3, [r2, #4]
}
 80076dc:	4770      	bx	lr
 80076de:	bf00      	nop
 80076e0:	2000148e 	.word	0x2000148e
 80076e4:	2000148d 	.word	0x2000148d
 80076e8:	2000148c 	.word	0x2000148c
 80076ec:	2000148f 	.word	0x2000148f

080076f0 <MX_RTC_Init>:
  /* USER CODE END RTC_Init 1 */

  /** Initialize RTC Only
  */
  hrtc.Instance = RTC;
  hrtc.Init.AsynchPrediv = RTC_AUTO_1_SECOND;
 80076f0:	f04f 33ff 	mov.w	r3, #4294967295
{
 80076f4:	b513      	push	{r0, r1, r4, lr}
  hrtc.Init.AsynchPrediv = RTC_AUTO_1_SECOND;
 80076f6:	4a15      	ldr	r2, [pc, #84]	@ (800774c <MX_RTC_Init+0x5c>)
  hrtc.Instance = RTC;
 80076f8:	4815      	ldr	r0, [pc, #84]	@ (8007750 <MX_RTC_Init+0x60>)
  RTC_TimeTypeDef sTime = {0};
 80076fa:	2400      	movs	r4, #0
  hrtc.Init.AsynchPrediv = RTC_AUTO_1_SECOND;
 80076fc:	e9c0 2300 	strd	r2, r3, [r0]
  hrtc.Init.OutPut = RTC_OUTPUTSOURCE_ALARM;
 8007700:	f44f 7380 	mov.w	r3, #256	@ 0x100
  RTC_TimeTypeDef sTime = {0};
 8007704:	f8ad 4000 	strh.w	r4, [sp]
 8007708:	f88d 4002 	strb.w	r4, [sp, #2]
  RTC_DateTypeDef DateToUpdate = {0};
 800770c:	9401      	str	r4, [sp, #4]
  hrtc.Init.OutPut = RTC_OUTPUTSOURCE_ALARM;
 800770e:	6083      	str	r3, [r0, #8]
  if (HAL_RTC_Init(&hrtc) != HAL_OK)
 8007710:	f002 fcf2 	bl	800a0f8 <HAL_RTC_Init>
 8007714:	b108      	cbz	r0, 800771a <MX_RTC_Init+0x2a>
  {
    Error_Handler();
 8007716:	f7ff fb3b 	bl	8006d90 <Error_Handler>
  */
  sTime.Hours = 0x0;
  sTime.Minutes = 0x0;
  sTime.Seconds = 0x0;

  if (HAL_RTC_SetTime(&hrtc, &sTime, RTC_FORMAT_BCD) != HAL_OK)
 800771a:	2201      	movs	r2, #1
 800771c:	4669      	mov	r1, sp
 800771e:	480c      	ldr	r0, [pc, #48]	@ (8007750 <MX_RTC_Init+0x60>)
  sTime.Hours = 0x0;
 8007720:	f8ad 4000 	strh.w	r4, [sp]
  sTime.Seconds = 0x0;
 8007724:	f88d 4002 	strb.w	r4, [sp, #2]
  if (HAL_RTC_SetTime(&hrtc, &sTime, RTC_FORMAT_BCD) != HAL_OK)
 8007728:	f002 fc23 	bl	8009f72 <HAL_RTC_SetTime>
 800772c:	b108      	cbz	r0, 8007732 <MX_RTC_Init+0x42>
  {
    Error_Handler();
 800772e:	f7ff fb2f 	bl	8006d90 <Error_Handler>
  }
  DateToUpdate.WeekDay = RTC_WEEKDAY_MONDAY;
 8007732:	4b08      	ldr	r3, [pc, #32]	@ (8007754 <MX_RTC_Init+0x64>)
  DateToUpdate.Month = RTC_MONTH_JANUARY;
  DateToUpdate.Date = 0x1;
  DateToUpdate.Year = 0x0;

  if (HAL_RTC_SetDate(&hrtc, &DateToUpdate, RTC_FORMAT_BCD) != HAL_OK)
 8007734:	2201      	movs	r2, #1
 8007736:	4806      	ldr	r0, [pc, #24]	@ (8007750 <MX_RTC_Init+0x60>)
 8007738:	a901      	add	r1, sp, #4
  DateToUpdate.WeekDay = RTC_WEEKDAY_MONDAY;
 800773a:	9301      	str	r3, [sp, #4]
  if (HAL_RTC_SetDate(&hrtc, &DateToUpdate, RTC_FORMAT_BCD) != HAL_OK)
 800773c:	f002 fc6a 	bl	800a014 <HAL_RTC_SetDate>
 8007740:	b108      	cbz	r0, 8007746 <MX_RTC_Init+0x56>
  {
    Error_Handler();
 8007742:	f7ff fb25 	bl	8006d90 <Error_Handler>
  }
  /* USER CODE BEGIN RTC_Init 2 */

  /* USER CODE END RTC_Init 2 */

}
 8007746:	b002      	add	sp, #8
 8007748:	bd10      	pop	{r4, pc}
 800774a:	bf00      	nop
 800774c:	40002800 	.word	0x40002800
 8007750:	200014b8 	.word	0x200014b8
 8007754:	00010101 	.word	0x00010101

08007758 <HAL_RTC_MspInit>:

void HAL_RTC_MspInit(RTC_HandleTypeDef* rtcHandle)
{
 8007758:	b507      	push	{r0, r1, r2, lr}

  if(rtcHandle->Instance==RTC)
 800775a:	4b0b      	ldr	r3, [pc, #44]	@ (8007788 <HAL_RTC_MspInit+0x30>)
 800775c:	6802      	ldr	r2, [r0, #0]
 800775e:	429a      	cmp	r2, r3
 8007760:	d10f      	bne.n	8007782 <HAL_RTC_MspInit+0x2a>
  {
  /* USER CODE BEGIN RTC_MspInit 0 */

  /* USER CODE END RTC_MspInit 0 */
    HAL_PWR_EnableBkUpAccess();
 8007762:	f002 f801 	bl	8009768 <HAL_PWR_EnableBkUpAccess>
    /* Enable BKP CLK enable for backup registers */
    __HAL_RCC_BKP_CLK_ENABLE();
 8007766:	4b09      	ldr	r3, [pc, #36]	@ (800778c <HAL_RTC_MspInit+0x34>)
 8007768:	69da      	ldr	r2, [r3, #28]
 800776a:	f042 6200 	orr.w	r2, r2, #134217728	@ 0x8000000
 800776e:	61da      	str	r2, [r3, #28]
    /* RTC clock enable */
    __HAL_RCC_RTC_ENABLE();
 8007770:	2201      	movs	r2, #1
    __HAL_RCC_BKP_CLK_ENABLE();
 8007772:	69db      	ldr	r3, [r3, #28]
 8007774:	f003 6300 	and.w	r3, r3, #134217728	@ 0x8000000
 8007778:	9301      	str	r3, [sp, #4]
 800777a:	9b01      	ldr	r3, [sp, #4]
    __HAL_RCC_RTC_ENABLE();
 800777c:	4b04      	ldr	r3, [pc, #16]	@ (8007790 <HAL_RTC_MspInit+0x38>)
 800777e:	f8c3 243c 	str.w	r2, [r3, #1084]	@ 0x43c
  /* USER CODE BEGIN RTC_MspInit 1 */

  /* USER CODE END RTC_MspInit 1 */
  }
}
 8007782:	b003      	add	sp, #12
 8007784:	f85d fb04 	ldr.w	pc, [sp], #4
 8007788:	40002800 	.word	0x40002800
 800778c:	40021000 	.word	0x40021000
 8007790:	42420000 	.word	0x42420000

08007794 <initializeStateMachine>:
//                  State engine
//--------------------------------------------------------------------------------

void initializeStateMachine(StateMachine *sm)
{
	sm->currentState = STATE_POWER_ON;
 8007794:	2300      	movs	r3, #0
	sm->previousState = STATE_POWER_ON;
	sm->stateFunctions[STATE_POWER_ON] = power_on;
 8007796:	4a0a      	ldr	r2, [pc, #40]	@ (80077c0 <initializeStateMachine+0x2c>)
	sm->currentState = STATE_POWER_ON;
 8007798:	8003      	strh	r3, [r0, #0]
	sm->stateFunctions[STATE_POWER_ON] = power_on;
 800779a:	6042      	str	r2, [r0, #4]
	sm->stateFunctions[STATE_A1] = stateA1;
 800779c:	4a09      	ldr	r2, [pc, #36]	@ (80077c4 <initializeStateMachine+0x30>)
	sm->stateFunctions[STATE_B2] = stateB2;
	sm->stateFunctions[STATE_C1] = stateC1;
	sm->stateFunctions[STATE_C2] = stateC2;
	sm->stateFunctions[STATE_F] = stateF;
	sm->stateFunctions[TEMP_STATE_F] = temp_stateF;
	sm->transitionCount = 0;
 800779e:	6783      	str	r3, [r0, #120]	@ 0x78
	sm->stateFunctions[STATE_A1] = stateA1;
 80077a0:	6082      	str	r2, [r0, #8]
	sm->stateFunctions[STATE_A2] = stateA2;
 80077a2:	4a09      	ldr	r2, [pc, #36]	@ (80077c8 <initializeStateMachine+0x34>)
 80077a4:	60c2      	str	r2, [r0, #12]
	sm->stateFunctions[STATE_B1] = stateB1;
 80077a6:	4a09      	ldr	r2, [pc, #36]	@ (80077cc <initializeStateMachine+0x38>)
 80077a8:	6102      	str	r2, [r0, #16]
	sm->stateFunctions[STATE_B2] = stateB2;
 80077aa:	4a09      	ldr	r2, [pc, #36]	@ (80077d0 <initializeStateMachine+0x3c>)
 80077ac:	6142      	str	r2, [r0, #20]
	sm->stateFunctions[STATE_C1] = stateC1;
 80077ae:	4a09      	ldr	r2, [pc, #36]	@ (80077d4 <initializeStateMachine+0x40>)
 80077b0:	6182      	str	r2, [r0, #24]
	sm->stateFunctions[STATE_C2] = stateC2;
 80077b2:	4a09      	ldr	r2, [pc, #36]	@ (80077d8 <initializeStateMachine+0x44>)
 80077b4:	61c2      	str	r2, [r0, #28]
	sm->stateFunctions[STATE_F] = stateF;
 80077b6:	4a09      	ldr	r2, [pc, #36]	@ (80077dc <initializeStateMachine+0x48>)
 80077b8:	6242      	str	r2, [r0, #36]	@ 0x24
	sm->stateFunctions[TEMP_STATE_F] = temp_stateF;
 80077ba:	4a09      	ldr	r2, [pc, #36]	@ (80077e0 <initializeStateMachine+0x4c>)
 80077bc:	6282      	str	r2, [r0, #40]	@ 0x28
}
 80077be:	4770      	bx	lr
 80077c0:	08007dc9 	.word	0x08007dc9
 80077c4:	08007fed 	.word	0x08007fed
 80077c8:	08007835 	.word	0x08007835
 80077cc:	08007955 	.word	0x08007955
 80077d0:	08007e99 	.word	0x08007e99
 80077d4:	08007b49 	.word	0x08007b49
 80077d8:	08007c61 	.word	0x08007c61
 80077dc:	08007a5d 	.word	0x08007a5d
 80077e0:	08007e05 	.word	0x08007e05

080077e4 <trackStateTransition>:

void trackStateTransition(StateMachine *sm, StateType previousState,
		StateType currentState)
{
	if (sm->transitionCount < MAX_TRANSITIONS)
 80077e4:	6f83      	ldr	r3, [r0, #120]	@ 0x78
{
 80077e6:	b410      	push	{r4}
	if (sm->transitionCount < MAX_TRANSITIONS)
 80077e8:	2b18      	cmp	r3, #24
 80077ea:	dc0a      	bgt.n	8007802 <trackStateTransition+0x1e>
	{
		sm->transitions[sm->transitionCount].fromState = previousState;
 80077ec:	eb03 0443 	add.w	r4, r3, r3, lsl #1
 80077f0:	4404      	add	r4, r0
 80077f2:	f884 102c 	strb.w	r1, [r4, #44]	@ 0x2c
		sm->transitions[sm->transitionCount].toState = currentState;
 80077f6:	f884 202d 	strb.w	r2, [r4, #45]	@ 0x2d
		sm->transitionCount++;
 80077fa:	3301      	adds	r3, #1
	else
	{
		sm->transitionCount = 0;
		printf("Transition log is full!\n");
	}
}
 80077fc:	bc10      	pop	{r4}
		sm->transitionCount++;
 80077fe:	6783      	str	r3, [r0, #120]	@ 0x78
}
 8007800:	4770      	bx	lr
		sm->transitionCount = 0;
 8007802:	2300      	movs	r3, #0
}
 8007804:	bc10      	pop	{r4}
		sm->transitionCount = 0;
 8007806:	6783      	str	r3, [r0, #120]	@ 0x78
		printf("Transition log is full!\n");
 8007808:	4801      	ldr	r0, [pc, #4]	@ (8007810 <trackStateTransition+0x2c>)
 800780a:	f003 bc39 	b.w	800b080 <puts>
 800780e:	bf00      	nop
 8007810:	0800bb8c 	.word	0x0800bb8c

08007814 <changeState.constprop.0>:

void changeState(StateMachine *sm, StateType newState, uint8_t reason)
{
	if (newState >= 0 && newState < STATE_COUNT)
 8007814:	2909      	cmp	r1, #9
void changeState(StateMachine *sm, StateType newState, uint8_t reason)
 8007816:	460a      	mov	r2, r1
	if (newState >= 0 && newState < STATE_COUNT)
 8007818:	d806      	bhi.n	8007828 <changeState.constprop.0+0x14>
	{
		if (sm->currentState != newState)
 800781a:	7801      	ldrb	r1, [r0, #0]
 800781c:	428a      	cmp	r2, r1
 800781e:	d006      	beq.n	800782e <changeState.constprop.0+0x1a>
		{ // Only log if state actually change
			sm->previousState = sm->currentState;
 8007820:	7041      	strb	r1, [r0, #1]
			sm->currentState = newState;
 8007822:	7002      	strb	r2, [r0, #0]
			trackStateTransition(sm, sm->previousState, sm->currentState);
 8007824:	f7ff bfde 	b.w	80077e4 <trackStateTransition>
		}
	}
	else
	{
		printf("Invalid state transition\n");
 8007828:	4801      	ldr	r0, [pc, #4]	@ (8007830 <changeState.constprop.0+0x1c>)
 800782a:	f003 bc29 	b.w	800b080 <puts>
	}
}
 800782e:	4770      	bx	lr
 8007830:	0800bba4 	.word	0x0800bba4

08007834 <stateA2>:
		changeState((StateMachine *)&sm, STATE_F, 0);
	}
}

void stateA2(void)
{
 8007834:	b538      	push	{r3, r4, r5, lr}
	/*---------------------------------------------------
	 	One time code
	 ---------------------------------------------------*/
	if (stateEntry_flag == true)
 8007836:	4d22      	ldr	r5, [pc, #136]	@ (80078c0 <stateA2+0x8c>)
 8007838:	4c22      	ldr	r4, [pc, #136]	@ (80078c4 <stateA2+0x90>)
 800783a:	782b      	ldrb	r3, [r5, #0]
 800783c:	b333      	cbz	r3, 800788c <stateA2+0x58>
	{
		stateEntry_flag = false;
 800783e:	2200      	movs	r2, #0

		controlSide_data.status.bit.curretState = STATE_A2;	//Current state update
 8007840:	2102      	movs	r1, #2
		stateEntry_flag = false;
 8007842:	702a      	strb	r2, [r5, #0]
		controlSide_data.status.bit.curretState = STATE_A2;	//Current state update
 8007844:	7823      	ldrb	r3, [r4, #0]
 8007846:	f361 0304 	bfi	r3, r1, #0, #5
 800784a:	7023      	strb	r3, [r4, #0]
		controlSide_data.controlPilot.cp_enable = 1;
 800784c:	2301      	movs	r3, #1
 800784e:	72e3      	strb	r3, [r4, #11]
		controlSide_data.controlPilot.cp_duty_enable = 1;
 8007850:	72a3      	strb	r3, [r4, #10]
		diodeCheck_passed = false;
 8007852:	4b1d      	ldr	r3, [pc, #116]	@ (80078c8 <stateA2+0x94>)
 8007854:	701a      	strb	r2, [r3, #0]

		if (controlSide_data.status.bit.charging_active == 1)
 8007856:	7823      	ldrb	r3, [r4, #0]
 8007858:	f3c3 1140 	ubfx	r1, r3, #5, #1
 800785c:	069b      	lsls	r3, r3, #26
 800785e:	d50d      	bpl.n	800787c <stateA2+0x48>
		{
			controlSide_data.networkSide_request.bit.start_Charge = 0;
 8007860:	7f63      	ldrb	r3, [r4, #29]
 8007862:	f362 0300 	bfi	r3, r2, #0, #1
 8007866:	7763      	strb	r3, [r4, #29]
			controlSide_data.networkSide_request.bit.stop_Charge = 1;
 8007868:	7f63      	ldrb	r3, [r4, #29]
 800786a:	f043 0302 	orr.w	r3, r3, #2
 800786e:	7763      	strb	r3, [r4, #29]
			controlSide_data.networkSide_request.bit.schedule_charge = 0;
 8007870:	7f63      	ldrb	r3, [r4, #29]
 8007872:	f362 0382 	bfi	r3, r2, #2, #1
 8007876:	7763      	strb	r3, [r4, #29]
			state_transistion_available = true;
 8007878:	4b14      	ldr	r3, [pc, #80]	@ (80078cc <stateA2+0x98>)
 800787a:	7019      	strb	r1, [r3, #0]
		}

		tick_clear(&timeout);								//Clear timer
 800787c:	4814      	ldr	r0, [pc, #80]	@ (80078d0 <stateA2+0x9c>)
 800787e:	f000 fe0b 	bl	8008498 <tick_clear>

		L_RELAY_OFF();										//Turn off contactor
 8007882:	2200      	movs	r2, #0
 8007884:	2110      	movs	r1, #16
 8007886:	4813      	ldr	r0, [pc, #76]	@ (80078d4 <stateA2+0xa0>)
 8007888:	f001 ff60 	bl	800974c <HAL_GPIO_WritePin>

	/*---------------------------------------------------
		State transition
	 ---------------------------------------------------*/
	//if idle command not received within 4s second, forcefully jump to STATE A1
	if ((VARIABLE_INIT_STATEA2_TIMEOUT == true)
 800788c:	4b10      	ldr	r3, [pc, #64]	@ (80078d0 <stateA2+0x9c>)
 800788e:	7a9b      	ldrb	r3, [r3, #10]
 8007890:	b923      	cbnz	r3, 800789c <stateA2+0x68>
			|| networkSide_data.status == IDLE_STATE)
 8007892:	4b11      	ldr	r3, [pc, #68]	@ (80078d8 <stateA2+0xa4>)
 8007894:	881b      	ldrh	r3, [r3, #0]
 8007896:	b29b      	uxth	r3, r3
 8007898:	2b02      	cmp	r3, #2
 800789a:	d104      	bne.n	80078a6 <stateA2+0x72>
	{
		stateEntry_flag = true;
 800789c:	2101      	movs	r1, #1
		changeState((StateMachine *)&sm, STATE_A1, 0);
 800789e:	480f      	ldr	r0, [pc, #60]	@ (80078dc <stateA2+0xa8>)
		stateEntry_flag = true;
 80078a0:	7029      	strb	r1, [r5, #0]
		changeState((StateMachine *)&sm, STATE_A1, 0);
 80078a2:	f7ff ffb7 	bl	8007814 <changeState.constprop.0>
	}

	/*---------------------------------------------------
		Fault handler
	 ---------------------------------------------------*/
	if (controlSide_data.errorStatus.bit.fault_level != 0)
 80078a6:	7863      	ldrb	r3, [r4, #1]
 80078a8:	f013 0f0c 	tst.w	r3, #12
 80078ac:	d007      	beq.n	80078be <stateA2+0x8a>
	{
		stateEntry_flag = true;
 80078ae:	2301      	movs	r3, #1
		changeState((StateMachine *)&sm, STATE_F, 0);
 80078b0:	2108      	movs	r1, #8
		stateEntry_flag = true;
 80078b2:	702b      	strb	r3, [r5, #0]
		changeState((StateMachine *)&sm, STATE_F, 0);
 80078b4:	4809      	ldr	r0, [pc, #36]	@ (80078dc <stateA2+0xa8>)
	}
}
 80078b6:	e8bd 4038 	ldmia.w	sp!, {r3, r4, r5, lr}
		changeState((StateMachine *)&sm, STATE_F, 0);
 80078ba:	f7ff bfab 	b.w	8007814 <changeState.constprop.0>
}
 80078be:	bd38      	pop	{r3, r4, r5, pc}
 80078c0:	20000005 	.word	0x20000005
 80078c4:	20001458 	.word	0x20001458
 80078c8:	200011f4 	.word	0x200011f4
 80078cc:	200014cc 	.word	0x200014cc
 80078d0:	20001660 	.word	0x20001660
 80078d4:	40010c00 	.word	0x40010c00
 80078d8:	20001406 	.word	0x20001406
 80078dc:	200014d8 	.word	0x200014d8

080078e0 <changeState>:
	if (newState >= 0 && newState < STATE_COUNT)
 80078e0:	2909      	cmp	r1, #9
{
 80078e2:	460a      	mov	r2, r1
	if (newState >= 0 && newState < STATE_COUNT)
 80078e4:	d806      	bhi.n	80078f4 <changeState+0x14>
		if (sm->currentState != newState)
 80078e6:	7801      	ldrb	r1, [r0, #0]
 80078e8:	4291      	cmp	r1, r2
 80078ea:	d006      	beq.n	80078fa <changeState+0x1a>
			sm->previousState = sm->currentState;
 80078ec:	7041      	strb	r1, [r0, #1]
			sm->currentState = newState;
 80078ee:	7002      	strb	r2, [r0, #0]
			trackStateTransition(sm, sm->previousState, sm->currentState);
 80078f0:	f7ff bf78 	b.w	80077e4 <trackStateTransition>
		printf("Invalid state transition\n");
 80078f4:	4801      	ldr	r0, [pc, #4]	@ (80078fc <changeState+0x1c>)
 80078f6:	f003 bbc3 	b.w	800b080 <puts>
}
 80078fa:	4770      	bx	lr
 80078fc:	0800bba4 	.word	0x0800bba4

08007900 <runStateMachine>:
	sm->stateFunctions[sm->currentState](sm);
 8007900:	7803      	ldrb	r3, [r0, #0]
 8007902:	eb00 0383 	add.w	r3, r0, r3, lsl #2
 8007906:	685b      	ldr	r3, [r3, #4]
 8007908:	4718      	bx	r3
	...

0800790c <stateA_transition>:
	if (controlSide_data.controlPilot.cp_Vmax > STATEA_MIN
 800790c:	4b0d      	ldr	r3, [pc, #52]	@ (8007944 <stateA_transition+0x38>)
 800790e:	699a      	ldr	r2, [r3, #24]
 8007910:	2a6a      	cmp	r2, #106	@ 0x6a
 8007912:	4a0d      	ldr	r2, [pc, #52]	@ (8007948 <stateA_transition+0x3c>)
 8007914:	dd14      	ble.n	8007940 <stateA_transition+0x34>
			&& controlSide_data.controlPilot.cp_Vmax < STATEA_MAX)
 8007916:	699b      	ldr	r3, [r3, #24]
 8007918:	2b81      	cmp	r3, #129	@ 0x81
 800791a:	dc11      	bgt.n	8007940 <stateA_transition+0x34>
		stateA_counter++;
 800791c:	8813      	ldrh	r3, [r2, #0]
 800791e:	3301      	adds	r3, #1
 8007920:	b29b      	uxth	r3, r3
		if (stateA_counter >= STATE_A_COUNT)
 8007922:	2b4f      	cmp	r3, #79	@ 0x4f
 8007924:	d801      	bhi.n	800792a <stateA_transition+0x1e>
		stateA_counter = 0;
 8007926:	8013      	strh	r3, [r2, #0]
}
 8007928:	4770      	bx	lr
			stateA_counter = 0;
 800792a:	2300      	movs	r3, #0
			stateEntry_flag = true;
 800792c:	2101      	movs	r1, #1
			stateA_counter = 0;
 800792e:	8013      	strh	r3, [r2, #0]
			stateEntry_flag = true;
 8007930:	4b06      	ldr	r3, [pc, #24]	@ (800794c <stateA_transition+0x40>)
 8007932:	7019      	strb	r1, [r3, #0]
			if (a1a2 == 0)
 8007934:	b910      	cbnz	r0, 800793c <stateA_transition+0x30>
				changeState((StateMachine *)&sm, STATE_A2, 0);
 8007936:	4806      	ldr	r0, [pc, #24]	@ (8007950 <stateA_transition+0x44>)
 8007938:	f7ff bf6c 	b.w	8007814 <changeState.constprop.0>
 800793c:	2102      	movs	r1, #2
 800793e:	e7fa      	b.n	8007936 <stateA_transition+0x2a>
		stateA_counter = 0;
 8007940:	2300      	movs	r3, #0
 8007942:	e7f0      	b.n	8007926 <stateA_transition+0x1a>
 8007944:	20001458 	.word	0x20001458
 8007948:	200014d4 	.word	0x200014d4
 800794c:	20000005 	.word	0x20000005
 8007950:	200014d8 	.word	0x200014d8

08007954 <stateB1>:

void stateB1(void)
{
 8007954:	b570      	push	{r4, r5, r6, lr}
	/*---------------------------------------------------
	 	One time code
	 ---------------------------------------------------*/
	if (stateEntry_flag == true)
 8007956:	4d37      	ldr	r5, [pc, #220]	@ (8007a34 <stateB1+0xe0>)
 8007958:	4c37      	ldr	r4, [pc, #220]	@ (8007a38 <stateB1+0xe4>)
 800795a:	782b      	ldrb	r3, [r5, #0]
 800795c:	2b00      	cmp	r3, #0
 800795e:	d032      	beq.n	80079c6 <stateB1+0x72>
	{
		stateEntry_flag = false;
 8007960:	2300      	movs	r3, #0

		controlSide_data.status.bit.curretState = STATE_B1;	//Current state update
 8007962:	2103      	movs	r1, #3
		stateEntry_flag = false;
 8007964:	702b      	strb	r3, [r5, #0]
		controlSide_data.status.bit.curretState = STATE_B1;	//Current state update
 8007966:	7822      	ldrb	r2, [r4, #0]
 8007968:	f361 0204 	bfi	r2, r1, #0, #5
 800796c:	7022      	strb	r2, [r4, #0]
		controlSide_data.controlPilot.cp_enable = 1;
 800796e:	2201      	movs	r2, #1
 8007970:	72e2      	strb	r2, [r4, #11]
		controlSide_data.controlPilot.cp_duty_enable = 0;
		diodeCheck_passed = false;
 8007972:	4a32      	ldr	r2, [pc, #200]	@ (8007a3c <stateB1+0xe8>)
		controlSide_data.controlPilot.cp_duty_enable = 0;
 8007974:	72a3      	strb	r3, [r4, #10]
		diodeCheck_passed = false;
 8007976:	7013      	strb	r3, [r2, #0]

		if (controlSide_data.status.bit.charging_active == 1)
 8007978:	7822      	ldrb	r2, [r4, #0]
 800797a:	f3c2 1040 	ubfx	r0, r2, #5, #1
 800797e:	0692      	lsls	r2, r2, #26
 8007980:	d517      	bpl.n	80079b2 <stateB1+0x5e>
		{
			controlSide_data.status.bit.charging_active = 0;
 8007982:	7822      	ldrb	r2, [r4, #0]
			powerSide_data.powerEnergy.kWh = 0;
 8007984:	492e      	ldr	r1, [pc, #184]	@ (8007a40 <stateB1+0xec>)
			controlSide_data.status.bit.charging_active = 0;
 8007986:	f363 1245 	bfi	r2, r3, #5, #1
 800798a:	7022      	strb	r2, [r4, #0]
			start_energy = 0;
 800798c:	4a2d      	ldr	r2, [pc, #180]	@ (8007a44 <stateB1+0xf0>)
			powerSide_data.powerEnergy.kWh = 0;
 800798e:	624b      	str	r3, [r1, #36]	@ 0x24
			start_energy = 0;
 8007990:	6013      	str	r3, [r2, #0]
			controlSide_data.networkSide_request.bit.start_Charge = 0;
 8007992:	7f62      	ldrb	r2, [r4, #29]
 8007994:	f363 0200 	bfi	r2, r3, #0, #1
 8007998:	7762      	strb	r2, [r4, #29]
			controlSide_data.networkSide_request.bit.stop_Charge = 1;
 800799a:	7f62      	ldrb	r2, [r4, #29]
 800799c:	f042 0202 	orr.w	r2, r2, #2
 80079a0:	7762      	strb	r2, [r4, #29]
			controlSide_data.networkSide_request.bit.schedule_charge = 0;
 80079a2:	7f62      	ldrb	r2, [r4, #29]
 80079a4:	f363 0282 	bfi	r2, r3, #2, #1
 80079a8:	7762      	strb	r2, [r4, #29]
			powerSide_data.status.bit.powerSide_ready = 0;
 80079aa:	780a      	ldrb	r2, [r1, #0]
 80079ac:	f363 1245 	bfi	r2, r3, #5, #1
 80079b0:	700a      	strb	r2, [r1, #0]
			state_transistion_available = true;
 80079b2:	4b25      	ldr	r3, [pc, #148]	@ (8007a48 <stateB1+0xf4>)
 80079b4:	7018      	strb	r0, [r3, #0]
		else
		{
			state_transistion_available = false;
		}

		tick_clear(&timeout);								//Clear timer
 80079b6:	4825      	ldr	r0, [pc, #148]	@ (8007a4c <stateB1+0xf8>)
 80079b8:	f000 fd6e 	bl	8008498 <tick_clear>

		L_RELAY_OFF();										//Turn off contactor
 80079bc:	2200      	movs	r2, #0
 80079be:	2110      	movs	r1, #16
 80079c0:	4823      	ldr	r0, [pc, #140]	@ (8007a50 <stateB1+0xfc>)
 80079c2:	f001 fec3 	bl	800974c <HAL_GPIO_WritePin>
	}

	/*---------------------------------------------------
		Looping code
	 ---------------------------------------------------*/
	if ((timeout.timeout_2s == true)
 80079c6:	4b21      	ldr	r3, [pc, #132]	@ (8007a4c <stateB1+0xf8>)
 80079c8:	4e22      	ldr	r6, [pc, #136]	@ (8007a54 <stateB1+0x100>)
 80079ca:	7a1b      	ldrb	r3, [r3, #8]
 80079cc:	b163      	cbz	r3, 80079e8 <stateB1+0x94>
			&& (controlSide_data.errorStatus.bit.fault_level == 0))
 80079ce:	7863      	ldrb	r3, [r4, #1]
 80079d0:	f013 0f0c 	tst.w	r3, #12
 80079d4:	d108      	bne.n	80079e8 <stateB1+0x94>
	{
		if (networkSide_data.status == PRE_START_STATE)
 80079d6:	8831      	ldrh	r1, [r6, #0]
 80079d8:	b289      	uxth	r1, r1
 80079da:	2904      	cmp	r1, #4
 80079dc:	d104      	bne.n	80079e8 <stateB1+0x94>
		{
			stateEntry_flag = true;
 80079de:	2301      	movs	r3, #1
			changeState((StateMachine *)&sm, STATE_B2, 0);
 80079e0:	481d      	ldr	r0, [pc, #116]	@ (8007a58 <stateB1+0x104>)
			stateEntry_flag = true;
 80079e2:	702b      	strb	r3, [r5, #0]
			changeState((StateMachine *)&sm, STATE_B2, 0);
 80079e4:	f7ff ff16 	bl	8007814 <changeState.constprop.0>
			}
		}
#endif
	}

	if (networkSide_data.status == STOP_STATE)
 80079e8:	8833      	ldrh	r3, [r6, #0]
 80079ea:	b29b      	uxth	r3, r3
 80079ec:	2b06      	cmp	r3, #6
 80079ee:	d107      	bne.n	8007a00 <stateB1+0xac>
	{
		controlSide_data.networkSide_request.bit.start_Charge = 0;
 80079f0:	7f63      	ldrb	r3, [r4, #29]
 80079f2:	f023 0301 	bic.w	r3, r3, #1
 80079f6:	7763      	strb	r3, [r4, #29]
		controlSide_data.networkSide_request.bit.stop_Charge = 0;
 80079f8:	7f63      	ldrb	r3, [r4, #29]
 80079fa:	f023 0302 	bic.w	r3, r3, #2
 80079fe:	7763      	strb	r3, [r4, #29]
	}

	/*---------------------------------------------------
		State transition
	 ---------------------------------------------------*/
	stateA_transition(0);
 8007a00:	2000      	movs	r0, #0
 8007a02:	f7ff ff83 	bl	800790c <stateA_transition>

	/*---------------------------------------------------
		Fault handler
	 ---------------------------------------------------*/
	if (controlSide_data.errorStatus.bit.fault_level == PRIORITY_2)
 8007a06:	7863      	ldrb	r3, [r4, #1]
 8007a08:	f3c3 0381 	ubfx	r3, r3, #2, #2
 8007a0c:	2b02      	cmp	r3, #2
 8007a0e:	d107      	bne.n	8007a20 <stateB1+0xcc>
	{
		stateEntry_flag = true;
 8007a10:	2301      	movs	r3, #1
		changeState((StateMachine *)&sm, STATE_F, 0);
 8007a12:	2108      	movs	r1, #8
		stateEntry_flag = true;
 8007a14:	702b      	strb	r3, [r5, #0]
	}
	else if (controlSide_data.errorStatus.bit.fault_level == PRIORITY_1)
	{
		stateEntry_flag = true;
		changeState((StateMachine *)&sm, TEMP_STATE_F, 0);
 8007a16:	4810      	ldr	r0, [pc, #64]	@ (8007a58 <stateB1+0x104>)
	}
}
 8007a18:	e8bd 4070 	ldmia.w	sp!, {r4, r5, r6, lr}
		changeState((StateMachine *)&sm, TEMP_STATE_F, 0);
 8007a1c:	f7ff befa 	b.w	8007814 <changeState.constprop.0>
	else if (controlSide_data.errorStatus.bit.fault_level == PRIORITY_1)
 8007a20:	7863      	ldrb	r3, [r4, #1]
 8007a22:	f3c3 0281 	ubfx	r2, r3, #2, #2
 8007a26:	2a01      	cmp	r2, #1
 8007a28:	d102      	bne.n	8007a30 <stateB1+0xdc>
		changeState((StateMachine *)&sm, TEMP_STATE_F, 0);
 8007a2a:	2109      	movs	r1, #9
		stateEntry_flag = true;
 8007a2c:	702a      	strb	r2, [r5, #0]
		changeState((StateMachine *)&sm, TEMP_STATE_F, 0);
 8007a2e:	e7f2      	b.n	8007a16 <stateB1+0xc2>
}
 8007a30:	bd70      	pop	{r4, r5, r6, pc}
 8007a32:	bf00      	nop
 8007a34:	20000005 	.word	0x20000005
 8007a38:	20001458 	.word	0x20001458
 8007a3c:	200011f4 	.word	0x200011f4
 8007a40:	20001428 	.word	0x20001428
 8007a44:	20001484 	.word	0x20001484
 8007a48:	200014cc 	.word	0x200014cc
 8007a4c:	20001660 	.word	0x20001660
 8007a50:	40010c00 	.word	0x40010c00
 8007a54:	20001406 	.word	0x20001406
 8007a58:	200014d8 	.word	0x200014d8

08007a5c <stateF>:
	}
}

void stateF(void)
{
	if (stateEntry_flag == true)
 8007a5c:	4b22      	ldr	r3, [pc, #136]	@ (8007ae8 <stateF+0x8c>)
{
 8007a5e:	b510      	push	{r4, lr}
	if (stateEntry_flag == true)
 8007a60:	781a      	ldrb	r2, [r3, #0]
 8007a62:	b30a      	cbz	r2, 8007aa8 <stateF+0x4c>
	{
		stateEntry_flag = false;
 8007a64:	2400      	movs	r4, #0
		controlSide_data.status.bit.curretState = STATE_F;
 8007a66:	2108      	movs	r1, #8
		stateEntry_flag = false;
 8007a68:	701c      	strb	r4, [r3, #0]
		controlSide_data.status.bit.curretState = STATE_F;
 8007a6a:	4b20      	ldr	r3, [pc, #128]	@ (8007aec <stateF+0x90>)
		controlSide_data.controlPilot.cp_duty_enable = 0;
		controlSide_data.status.bit.charging_active = 0;
		controlSide_data.networkSide_request.bit.stop_Charge = 1;
		controlSide_data.networkSide_request.bit.start_Charge = 0;
		controlSide_data.networkSide_request.bit.schedule_charge = 0;
		tick_clear(&timeout);
 8007a6c:	4820      	ldr	r0, [pc, #128]	@ (8007af0 <stateF+0x94>)
		controlSide_data.status.bit.curretState = STATE_F;
 8007a6e:	781a      	ldrb	r2, [r3, #0]
 8007a70:	f361 0204 	bfi	r2, r1, #0, #5
 8007a74:	701a      	strb	r2, [r3, #0]
		controlSide_data.controlPilot.cp_enable = 0;
 8007a76:	72dc      	strb	r4, [r3, #11]
		controlSide_data.controlPilot.cp_duty_enable = 0;
 8007a78:	729c      	strb	r4, [r3, #10]
		controlSide_data.status.bit.charging_active = 0;
 8007a7a:	781a      	ldrb	r2, [r3, #0]
 8007a7c:	f364 1245 	bfi	r2, r4, #5, #1
 8007a80:	701a      	strb	r2, [r3, #0]
		controlSide_data.networkSide_request.bit.stop_Charge = 1;
 8007a82:	7f5a      	ldrb	r2, [r3, #29]
 8007a84:	f042 0202 	orr.w	r2, r2, #2
 8007a88:	775a      	strb	r2, [r3, #29]
		controlSide_data.networkSide_request.bit.start_Charge = 0;
 8007a8a:	7f5a      	ldrb	r2, [r3, #29]
 8007a8c:	f364 0200 	bfi	r2, r4, #0, #1
 8007a90:	775a      	strb	r2, [r3, #29]
		controlSide_data.networkSide_request.bit.schedule_charge = 0;
 8007a92:	7f5a      	ldrb	r2, [r3, #29]
 8007a94:	f364 0282 	bfi	r2, r4, #2, #1
 8007a98:	775a      	strb	r2, [r3, #29]
		tick_clear(&timeout);
 8007a9a:	f000 fcfd 	bl	8008498 <tick_clear>

		L_RELAY_OFF();
 8007a9e:	4622      	mov	r2, r4
 8007aa0:	2110      	movs	r1, #16
 8007aa2:	4814      	ldr	r0, [pc, #80]	@ (8007af4 <stateF+0x98>)
 8007aa4:	f001 fe52 	bl	800974c <HAL_GPIO_WritePin>
	}

	if (networkSide_data.status == STOP_STATE)
 8007aa8:	4b13      	ldr	r3, [pc, #76]	@ (8007af8 <stateF+0x9c>)
 8007aaa:	881b      	ldrh	r3, [r3, #0]
 8007aac:	b29b      	uxth	r3, r3
 8007aae:	2b06      	cmp	r3, #6
 8007ab0:	d108      	bne.n	8007ac4 <stateF+0x68>
	{
		controlSide_data.networkSide_request.bit.start_Charge = 0;
 8007ab2:	4a0e      	ldr	r2, [pc, #56]	@ (8007aec <stateF+0x90>)
 8007ab4:	7f53      	ldrb	r3, [r2, #29]
 8007ab6:	f023 0301 	bic.w	r3, r3, #1
 8007aba:	7753      	strb	r3, [r2, #29]
		controlSide_data.networkSide_request.bit.stop_Charge = 0;
 8007abc:	7f53      	ldrb	r3, [r2, #29]
 8007abe:	f023 0302 	bic.w	r3, r3, #2
 8007ac2:	7753      	strb	r3, [r2, #29]
	}

	if ((STATEF_TIMEOUT == true))
 8007ac4:	4b0a      	ldr	r3, [pc, #40]	@ (8007af0 <stateF+0x94>)
 8007ac6:	7b5b      	ldrb	r3, [r3, #13]
 8007ac8:	b163      	cbz	r3, 8007ae4 <stateF+0x88>
	{
		controlSide_data.controlPilot.cp_enable = 1;
 8007aca:	2201      	movs	r2, #1
 8007acc:	4b07      	ldr	r3, [pc, #28]	@ (8007aec <stateF+0x90>)
 8007ace:	72da      	strb	r2, [r3, #11]

		if ((controlSide_data.errorStatus.bit.fault_level == 0))
 8007ad0:	785b      	ldrb	r3, [r3, #1]
 8007ad2:	f013 0f0c 	tst.w	r3, #12
 8007ad6:	f3c3 0081 	ubfx	r0, r3, #2, #2
 8007ada:	d103      	bne.n	8007ae4 <stateF+0x88>
		{
			stateA_transition(0);
		}
	}
}
 8007adc:	e8bd 4010 	ldmia.w	sp!, {r4, lr}
			stateA_transition(0);
 8007ae0:	f7ff bf14 	b.w	800790c <stateA_transition>
}
 8007ae4:	bd10      	pop	{r4, pc}
 8007ae6:	bf00      	nop
 8007ae8:	20000005 	.word	0x20000005
 8007aec:	20001458 	.word	0x20001458
 8007af0:	20001660 	.word	0x20001660
 8007af4:	40010c00 	.word	0x40010c00
 8007af8:	20001406 	.word	0x20001406

08007afc <stateB_transition>:
	if (controlSide_data.controlPilot.cp_Vmax > STATEB_MIN
 8007afc:	4b0e      	ldr	r3, [pc, #56]	@ (8007b38 <stateB_transition+0x3c>)
 8007afe:	699a      	ldr	r2, [r3, #24]
 8007b00:	2a4c      	cmp	r2, #76	@ 0x4c
 8007b02:	4a0e      	ldr	r2, [pc, #56]	@ (8007b3c <stateB_transition+0x40>)
 8007b04:	dd15      	ble.n	8007b32 <stateB_transition+0x36>
			&& controlSide_data.controlPilot.cp_Vmax < STATEB_MAX)
 8007b06:	699b      	ldr	r3, [r3, #24]
 8007b08:	2b67      	cmp	r3, #103	@ 0x67
 8007b0a:	dc12      	bgt.n	8007b32 <stateB_transition+0x36>
		stateB_counter++;
 8007b0c:	8813      	ldrh	r3, [r2, #0]
 8007b0e:	3301      	adds	r3, #1
 8007b10:	b29b      	uxth	r3, r3
		if (stateB_counter == STATE_B_COUNT)
 8007b12:	2b50      	cmp	r3, #80	@ 0x50
 8007b14:	d001      	beq.n	8007b1a <stateB_transition+0x1e>
		stateB_counter = 0;
 8007b16:	8013      	strh	r3, [r2, #0]
}
 8007b18:	4770      	bx	lr
			stateB_counter = 0;
 8007b1a:	2300      	movs	r3, #0
 8007b1c:	8013      	strh	r3, [r2, #0]
			stateEntry_flag = true;
 8007b1e:	2201      	movs	r2, #1
 8007b20:	4b07      	ldr	r3, [pc, #28]	@ (8007b40 <stateB_transition+0x44>)
 8007b22:	701a      	strb	r2, [r3, #0]
			if (b1b2 == 0)
 8007b24:	b918      	cbnz	r0, 8007b2e <stateB_transition+0x32>
				changeState((StateMachine *)&sm, STATE_B1, 0);
 8007b26:	2103      	movs	r1, #3
				changeState((StateMachine *)&sm, STATE_B2, 0);
 8007b28:	4806      	ldr	r0, [pc, #24]	@ (8007b44 <stateB_transition+0x48>)
 8007b2a:	f7ff be73 	b.w	8007814 <changeState.constprop.0>
 8007b2e:	2104      	movs	r1, #4
 8007b30:	e7fa      	b.n	8007b28 <stateB_transition+0x2c>
		stateB_counter = 0;
 8007b32:	2300      	movs	r3, #0
 8007b34:	e7ef      	b.n	8007b16 <stateB_transition+0x1a>
 8007b36:	bf00      	nop
 8007b38:	20001458 	.word	0x20001458
 8007b3c:	200014d2 	.word	0x200014d2
 8007b40:	20000005 	.word	0x20000005
 8007b44:	200014d8 	.word	0x200014d8

08007b48 <stateC1>:
{
 8007b48:	b570      	push	{r4, r5, r6, lr}
	if (stateEntry_flag == true)
 8007b4a:	4d3b      	ldr	r5, [pc, #236]	@ (8007c38 <stateC1+0xf0>)
 8007b4c:	4c3b      	ldr	r4, [pc, #236]	@ (8007c3c <stateC1+0xf4>)
 8007b4e:	782b      	ldrb	r3, [r5, #0]
 8007b50:	b373      	cbz	r3, 8007bb0 <stateC1+0x68>
		stateEntry_flag = false;
 8007b52:	2300      	movs	r3, #0
		controlSide_data.status.bit.curretState = STATE_C1;	//Current state update
 8007b54:	2105      	movs	r1, #5
		stateEntry_flag = false;
 8007b56:	702b      	strb	r3, [r5, #0]
		controlSide_data.status.bit.curretState = STATE_C1;	//Current state update
 8007b58:	7822      	ldrb	r2, [r4, #0]
 8007b5a:	f361 0204 	bfi	r2, r1, #0, #5
 8007b5e:	7022      	strb	r2, [r4, #0]
		controlSide_data.controlPilot.cp_enable = 1;
 8007b60:	2201      	movs	r2, #1
 8007b62:	72e2      	strb	r2, [r4, #11]
		diodeCheck_passed = false;
 8007b64:	4a36      	ldr	r2, [pc, #216]	@ (8007c40 <stateC1+0xf8>)
		controlSide_data.controlPilot.cp_duty_enable = 0;
 8007b66:	72a3      	strb	r3, [r4, #10]
		diodeCheck_passed = false;
 8007b68:	7013      	strb	r3, [r2, #0]
		if (controlSide_data.status.bit.charging_active == 1)
 8007b6a:	7822      	ldrb	r2, [r4, #0]
 8007b6c:	f3c2 1140 	ubfx	r1, r2, #5, #1
 8007b70:	0692      	lsls	r2, r2, #26
 8007b72:	d513      	bpl.n	8007b9c <stateC1+0x54>
			controlSide_data.status.bit.charging_active = 0;
 8007b74:	7822      	ldrb	r2, [r4, #0]
 8007b76:	f363 1245 	bfi	r2, r3, #5, #1
 8007b7a:	7022      	strb	r2, [r4, #0]
			powerSide_data.powerEnergy.kWh = 0;
 8007b7c:	4a31      	ldr	r2, [pc, #196]	@ (8007c44 <stateC1+0xfc>)
 8007b7e:	6253      	str	r3, [r2, #36]	@ 0x24
			start_energy = 0;
 8007b80:	4a31      	ldr	r2, [pc, #196]	@ (8007c48 <stateC1+0x100>)
 8007b82:	6013      	str	r3, [r2, #0]
			controlSide_data.networkSide_request.bit.start_Charge = 0;
 8007b84:	7f62      	ldrb	r2, [r4, #29]
 8007b86:	f363 0200 	bfi	r2, r3, #0, #1
 8007b8a:	7762      	strb	r2, [r4, #29]
			controlSide_data.networkSide_request.bit.stop_Charge = 1;
 8007b8c:	7f62      	ldrb	r2, [r4, #29]
 8007b8e:	f042 0202 	orr.w	r2, r2, #2
 8007b92:	7762      	strb	r2, [r4, #29]
			controlSide_data.networkSide_request.bit.schedule_charge = 0;
 8007b94:	7f62      	ldrb	r2, [r4, #29]
 8007b96:	f363 0282 	bfi	r2, r3, #2, #1
 8007b9a:	7762      	strb	r2, [r4, #29]
			state_transistion_available = true;
 8007b9c:	4b2b      	ldr	r3, [pc, #172]	@ (8007c4c <stateC1+0x104>)
		tick_clear(&timeout);								//Clear timer
 8007b9e:	482c      	ldr	r0, [pc, #176]	@ (8007c50 <stateC1+0x108>)
			state_transistion_available = true;
 8007ba0:	7019      	strb	r1, [r3, #0]
		tick_clear(&timeout);								//Clear timer
 8007ba2:	f000 fc79 	bl	8008498 <tick_clear>
		L_RELAY_OFF();										//Turn off contactor
 8007ba6:	2200      	movs	r2, #0
 8007ba8:	2110      	movs	r1, #16
 8007baa:	482a      	ldr	r0, [pc, #168]	@ (8007c54 <stateC1+0x10c>)
 8007bac:	f001 fdce 	bl	800974c <HAL_GPIO_WritePin>
	if (networkSide_data.status == STOP_STATE)
 8007bb0:	4e29      	ldr	r6, [pc, #164]	@ (8007c58 <stateC1+0x110>)
 8007bb2:	8833      	ldrh	r3, [r6, #0]
 8007bb4:	b29b      	uxth	r3, r3
 8007bb6:	2b06      	cmp	r3, #6
 8007bb8:	d107      	bne.n	8007bca <stateC1+0x82>
		controlSide_data.networkSide_request.bit.start_Charge = 0;
 8007bba:	7f63      	ldrb	r3, [r4, #29]
 8007bbc:	f023 0301 	bic.w	r3, r3, #1
 8007bc0:	7763      	strb	r3, [r4, #29]
		controlSide_data.networkSide_request.bit.stop_Charge = 0;
 8007bc2:	7f63      	ldrb	r3, [r4, #29]
 8007bc4:	f023 0302 	bic.w	r3, r3, #2
 8007bc8:	7763      	strb	r3, [r4, #29]
	if ((timeout.timeout_1s == true)
 8007bca:	4b21      	ldr	r3, [pc, #132]	@ (8007c50 <stateC1+0x108>)
 8007bcc:	79db      	ldrb	r3, [r3, #7]
 8007bce:	b1bb      	cbz	r3, 8007c00 <stateC1+0xb8>
			&& (controlSide_data.errorStatus.bit.fault_level == 0))
 8007bd0:	7863      	ldrb	r3, [r4, #1]
 8007bd2:	f013 0f0c 	tst.w	r3, #12
 8007bd6:	d113      	bne.n	8007c00 <stateC1+0xb8>
		if (networkSide_data.status == PRE_START_STATE)
 8007bd8:	8833      	ldrh	r3, [r6, #0]
 8007bda:	b29b      	uxth	r3, r3
 8007bdc:	2b04      	cmp	r3, #4
 8007bde:	d105      	bne.n	8007bec <stateC1+0xa4>
			stateEntry_flag = true;
 8007be0:	2301      	movs	r3, #1
			changeState((StateMachine *)&sm, STATE_C2, 0);
 8007be2:	2106      	movs	r1, #6
 8007be4:	481d      	ldr	r0, [pc, #116]	@ (8007c5c <stateC1+0x114>)
			stateEntry_flag = true;
 8007be6:	702b      	strb	r3, [r5, #0]
			changeState((StateMachine *)&sm, STATE_C2, 0);
 8007be8:	f7ff fe14 	bl	8007814 <changeState.constprop.0>
		if (networkSide_data.status == START_STATE)
 8007bec:	8833      	ldrh	r3, [r6, #0]
 8007bee:	b29b      	uxth	r3, r3
 8007bf0:	2b05      	cmp	r3, #5
 8007bf2:	d105      	bne.n	8007c00 <stateC1+0xb8>
			stateEntry_flag = true;
 8007bf4:	2301      	movs	r3, #1
			changeState((StateMachine *)&sm, STATE_C2, 0);
 8007bf6:	2106      	movs	r1, #6
 8007bf8:	4818      	ldr	r0, [pc, #96]	@ (8007c5c <stateC1+0x114>)
			stateEntry_flag = true;
 8007bfa:	702b      	strb	r3, [r5, #0]
			changeState((StateMachine *)&sm, STATE_C2, 0);
 8007bfc:	f7ff fe0a 	bl	8007814 <changeState.constprop.0>
	stateA_transition(0);
 8007c00:	2000      	movs	r0, #0
 8007c02:	f7ff fe83 	bl	800790c <stateA_transition>
	stateB_transition(0);
 8007c06:	2000      	movs	r0, #0
 8007c08:	f7ff ff78 	bl	8007afc <stateB_transition>
	if (controlSide_data.errorStatus.bit.fault_level == PRIORITY_2)
 8007c0c:	7863      	ldrb	r3, [r4, #1]
 8007c0e:	f3c3 0381 	ubfx	r3, r3, #2, #2
 8007c12:	2b02      	cmp	r3, #2
 8007c14:	d107      	bne.n	8007c26 <stateC1+0xde>
		stateEntry_flag = true;
 8007c16:	2301      	movs	r3, #1
		changeState((StateMachine *)&sm, STATE_F, 0);
 8007c18:	2108      	movs	r1, #8
		stateEntry_flag = true;
 8007c1a:	702b      	strb	r3, [r5, #0]
		changeState((StateMachine *)&sm, TEMP_STATE_F, 0);
 8007c1c:	480f      	ldr	r0, [pc, #60]	@ (8007c5c <stateC1+0x114>)
}
 8007c1e:	e8bd 4070 	ldmia.w	sp!, {r4, r5, r6, lr}
		changeState((StateMachine *)&sm, TEMP_STATE_F, 0);
 8007c22:	f7ff bdf7 	b.w	8007814 <changeState.constprop.0>
	else if (controlSide_data.errorStatus.bit.fault_level == PRIORITY_1)
 8007c26:	7863      	ldrb	r3, [r4, #1]
 8007c28:	f3c3 0281 	ubfx	r2, r3, #2, #2
 8007c2c:	2a01      	cmp	r2, #1
 8007c2e:	d102      	bne.n	8007c36 <stateC1+0xee>
		changeState((StateMachine *)&sm, TEMP_STATE_F, 0);
 8007c30:	2109      	movs	r1, #9
		stateEntry_flag = true;
 8007c32:	702a      	strb	r2, [r5, #0]
		changeState((StateMachine *)&sm, TEMP_STATE_F, 0);
 8007c34:	e7f2      	b.n	8007c1c <stateC1+0xd4>
}
 8007c36:	bd70      	pop	{r4, r5, r6, pc}
 8007c38:	20000005 	.word	0x20000005
 8007c3c:	20001458 	.word	0x20001458
 8007c40:	200011f4 	.word	0x200011f4
 8007c44:	20001428 	.word	0x20001428
 8007c48:	20001484 	.word	0x20001484
 8007c4c:	200014cc 	.word	0x200014cc
 8007c50:	20001660 	.word	0x20001660
 8007c54:	40010c00 	.word	0x40010c00
 8007c58:	20001406 	.word	0x20001406
 8007c5c:	200014d8 	.word	0x200014d8

08007c60 <stateC2>:
{
 8007c60:	b5f8      	push	{r3, r4, r5, r6, r7, lr}
	if (stateEntry_flag == true)
 8007c62:	4d39      	ldr	r5, [pc, #228]	@ (8007d48 <stateC2+0xe8>)
 8007c64:	4c39      	ldr	r4, [pc, #228]	@ (8007d4c <stateC2+0xec>)
 8007c66:	782b      	ldrb	r3, [r5, #0]
 8007c68:	b33b      	cbz	r3, 8007cba <stateC2+0x5a>
		stateEntry_flag = false;
 8007c6a:	2100      	movs	r1, #0
		controlSide_data.status.bit.curretState = STATE_C2;
 8007c6c:	2206      	movs	r2, #6
		stateEntry_flag = false;
 8007c6e:	7029      	strb	r1, [r5, #0]
		controlSide_data.status.bit.curretState = STATE_C2;
 8007c70:	7823      	ldrb	r3, [r4, #0]
 8007c72:	f362 0304 	bfi	r3, r2, #0, #5
 8007c76:	7023      	strb	r3, [r4, #0]
		controlSide_data.controlPilot.cp_enable = 1;
 8007c78:	2301      	movs	r3, #1
 8007c7a:	72e3      	strb	r3, [r4, #11]
		controlSide_data.controlPilot.cp_duty_enable = 1;
 8007c7c:	72a3      	strb	r3, [r4, #10]
		controlSide_data.networkSide_request.bit.start_Charge = 1;
 8007c7e:	7f62      	ldrb	r2, [r4, #29]
 8007c80:	431a      	orrs	r2, r3
 8007c82:	7762      	strb	r2, [r4, #29]
		controlSide_data.networkSide_request.bit.stop_Charge = 0;
 8007c84:	7f62      	ldrb	r2, [r4, #29]
 8007c86:	f361 0241 	bfi	r2, r1, #1, #1
 8007c8a:	7762      	strb	r2, [r4, #29]
		buzzer_en = true;
 8007c8c:	4a30      	ldr	r2, [pc, #192]	@ (8007d50 <stateC2+0xf0>)
 8007c8e:	7013      	strb	r3, [r2, #0]
		if (controlSide_data.status.bit.charging_active == 0)
 8007c90:	7821      	ldrb	r1, [r4, #0]
 8007c92:	f3c1 1240 	ubfx	r2, r1, #5, #1
 8007c96:	0689      	lsls	r1, r1, #26
 8007c98:	d405      	bmi.n	8007ca6 <stateC2+0x46>
			powerSide_data.powerEnergy.kWh = 0;
 8007c9a:	492e      	ldr	r1, [pc, #184]	@ (8007d54 <stateC2+0xf4>)
 8007c9c:	624a      	str	r2, [r1, #36]	@ 0x24
			start_energy = 0;
 8007c9e:	492e      	ldr	r1, [pc, #184]	@ (8007d58 <stateC2+0xf8>)
 8007ca0:	600a      	str	r2, [r1, #0]
			measure_energy = true;
 8007ca2:	4a2e      	ldr	r2, [pc, #184]	@ (8007d5c <stateC2+0xfc>)
 8007ca4:	7013      	strb	r3, [r2, #0]
		controlSide_data.status.bit.charging_active = 1;
 8007ca6:	7823      	ldrb	r3, [r4, #0]
		tick_clear(&timeout);
 8007ca8:	482d      	ldr	r0, [pc, #180]	@ (8007d60 <stateC2+0x100>)
		controlSide_data.status.bit.charging_active = 1;
 8007caa:	f043 0320 	orr.w	r3, r3, #32
 8007cae:	7023      	strb	r3, [r4, #0]
		tick_clear(&timeout);
 8007cb0:	f000 fbf2 	bl	8008498 <tick_clear>
		GFI_bypasss_flag = true;
 8007cb4:	2201      	movs	r2, #1
 8007cb6:	4b2b      	ldr	r3, [pc, #172]	@ (8007d64 <stateC2+0x104>)
 8007cb8:	701a      	strb	r2, [r3, #0]
	if (timeout.timeout_1s == true)
 8007cba:	4f29      	ldr	r7, [pc, #164]	@ (8007d60 <stateC2+0x100>)
 8007cbc:	79fb      	ldrb	r3, [r7, #7]
 8007cbe:	b123      	cbz	r3, 8007cca <stateC2+0x6a>
		L_RELAY_ON();
 8007cc0:	2201      	movs	r2, #1
 8007cc2:	2110      	movs	r1, #16
 8007cc4:	4828      	ldr	r0, [pc, #160]	@ (8007d68 <stateC2+0x108>)
 8007cc6:	f001 fd41 	bl	800974c <HAL_GPIO_WritePin>
	if ((networkSide_data.status == STOP_STATE)
 8007cca:	4e28      	ldr	r6, [pc, #160]	@ (8007d6c <stateC2+0x10c>)
 8007ccc:	8833      	ldrh	r3, [r6, #0]
 8007cce:	b29b      	uxth	r3, r3
 8007cd0:	2b06      	cmp	r3, #6
 8007cd2:	d002      	beq.n	8007cda <stateC2+0x7a>
			|| (networkSide_data.stopCharge == 1)) //Nisal 19JAN2024
 8007cd4:	7973      	ldrb	r3, [r6, #5]
 8007cd6:	2b01      	cmp	r3, #1
 8007cd8:	d10a      	bne.n	8007cf0 <stateC2+0x90>
		stateEntry_flag = true;
 8007cda:	2301      	movs	r3, #1
		manual_off = true;
 8007cdc:	4a24      	ldr	r2, [pc, #144]	@ (8007d70 <stateC2+0x110>)
		stateEntry_flag = true;
 8007cde:	702b      	strb	r3, [r5, #0]
		manual_off = true;
 8007ce0:	7013      	strb	r3, [r2, #0]
		manual_on = false;
 8007ce2:	2200      	movs	r2, #0
 8007ce4:	4b23      	ldr	r3, [pc, #140]	@ (8007d74 <stateC2+0x114>)
		changeState((StateMachine *)&sm, STATE_C1, 0);
 8007ce6:	2105      	movs	r1, #5
 8007ce8:	4823      	ldr	r0, [pc, #140]	@ (8007d78 <stateC2+0x118>)
		manual_on = false;
 8007cea:	701a      	strb	r2, [r3, #0]
		changeState((StateMachine *)&sm, STATE_C1, 0);
 8007cec:	f7ff fd92 	bl	8007814 <changeState.constprop.0>
	if (timeout.timeout_30s == true)
 8007cf0:	7bfb      	ldrb	r3, [r7, #15]
 8007cf2:	b163      	cbz	r3, 8007d0e <stateC2+0xae>
		tick_clear(&timeout);
 8007cf4:	481a      	ldr	r0, [pc, #104]	@ (8007d60 <stateC2+0x100>)
 8007cf6:	f000 fbcf 	bl	8008498 <tick_clear>
		if (networkSide_data.status != START_STATE)
 8007cfa:	8833      	ldrh	r3, [r6, #0]
 8007cfc:	b29b      	uxth	r3, r3
 8007cfe:	2b05      	cmp	r3, #5
 8007d00:	d005      	beq.n	8007d0e <stateC2+0xae>
			stateEntry_flag = true;
 8007d02:	2301      	movs	r3, #1
			changeState((StateMachine *)&sm, STATE_C1, 0);
 8007d04:	2105      	movs	r1, #5
 8007d06:	481c      	ldr	r0, [pc, #112]	@ (8007d78 <stateC2+0x118>)
			stateEntry_flag = true;
 8007d08:	702b      	strb	r3, [r5, #0]
			changeState((StateMachine *)&sm, STATE_C1, 0);
 8007d0a:	f7ff fd83 	bl	8007814 <changeState.constprop.0>
	stateA_transition(1);
 8007d0e:	2001      	movs	r0, #1
 8007d10:	f7ff fdfc 	bl	800790c <stateA_transition>
	stateB_transition(1);
 8007d14:	2001      	movs	r0, #1
 8007d16:	f7ff fef1 	bl	8007afc <stateB_transition>
	if (controlSide_data.errorStatus.bit.fault_level == PRIORITY_2)
 8007d1a:	7863      	ldrb	r3, [r4, #1]
 8007d1c:	f3c3 0381 	ubfx	r3, r3, #2, #2
 8007d20:	2b02      	cmp	r3, #2
 8007d22:	d107      	bne.n	8007d34 <stateC2+0xd4>
		stateEntry_flag = true;
 8007d24:	2301      	movs	r3, #1
		changeState((StateMachine *)&sm, STATE_F, 0);
 8007d26:	2108      	movs	r1, #8
		stateEntry_flag = true;
 8007d28:	702b      	strb	r3, [r5, #0]
		changeState((StateMachine *)&sm, TEMP_STATE_F, 0);
 8007d2a:	4813      	ldr	r0, [pc, #76]	@ (8007d78 <stateC2+0x118>)
}
 8007d2c:	e8bd 40f8 	ldmia.w	sp!, {r3, r4, r5, r6, r7, lr}
		changeState((StateMachine *)&sm, TEMP_STATE_F, 0);
 8007d30:	f7ff bd70 	b.w	8007814 <changeState.constprop.0>
	else if (controlSide_data.errorStatus.bit.fault_level == PRIORITY_1)
 8007d34:	7863      	ldrb	r3, [r4, #1]
 8007d36:	f3c3 0281 	ubfx	r2, r3, #2, #2
 8007d3a:	2a01      	cmp	r2, #1
 8007d3c:	d102      	bne.n	8007d44 <stateC2+0xe4>
		changeState((StateMachine *)&sm, TEMP_STATE_F, 0);
 8007d3e:	2109      	movs	r1, #9
		stateEntry_flag = true;
 8007d40:	702a      	strb	r2, [r5, #0]
		changeState((StateMachine *)&sm, TEMP_STATE_F, 0);
 8007d42:	e7f2      	b.n	8007d2a <stateC2+0xca>
}
 8007d44:	bdf8      	pop	{r3, r4, r5, r6, r7, pc}
 8007d46:	bf00      	nop
 8007d48:	20000005 	.word	0x20000005
 8007d4c:	20001458 	.word	0x20001458
 8007d50:	200013e0 	.word	0x200013e0
 8007d54:	20001428 	.word	0x20001428
 8007d58:	20001484 	.word	0x20001484
 8007d5c:	20001488 	.word	0x20001488
 8007d60:	20001660 	.word	0x20001660
 8007d64:	2000148b 	.word	0x2000148b
 8007d68:	40010c00 	.word	0x40010c00
 8007d6c:	20001406 	.word	0x20001406
 8007d70:	200014ce 	.word	0x200014ce
 8007d74:	200014cd 	.word	0x200014cd
 8007d78:	200014d8 	.word	0x200014d8

08007d7c <stateC_transition>:
	if (controlSide_data.controlPilot.cp_Vmax > STATEC_MIN
 8007d7c:	4b0e      	ldr	r3, [pc, #56]	@ (8007db8 <stateC_transition+0x3c>)
 8007d7e:	699a      	ldr	r2, [r3, #24]
 8007d80:	2a2e      	cmp	r2, #46	@ 0x2e
 8007d82:	4a0e      	ldr	r2, [pc, #56]	@ (8007dbc <stateC_transition+0x40>)
 8007d84:	dd15      	ble.n	8007db2 <stateC_transition+0x36>
			&& controlSide_data.controlPilot.cp_Vmax < STATEC_MAX)
 8007d86:	699b      	ldr	r3, [r3, #24]
 8007d88:	2b49      	cmp	r3, #73	@ 0x49
 8007d8a:	dc12      	bgt.n	8007db2 <stateC_transition+0x36>
		stateC_counter++;
 8007d8c:	8813      	ldrh	r3, [r2, #0]
 8007d8e:	3301      	adds	r3, #1
 8007d90:	b29b      	uxth	r3, r3
		if (stateC_counter == STATE_C_COUNT)
 8007d92:	2b50      	cmp	r3, #80	@ 0x50
 8007d94:	d001      	beq.n	8007d9a <stateC_transition+0x1e>
		stateC_counter = 0;
 8007d96:	8013      	strh	r3, [r2, #0]
}
 8007d98:	4770      	bx	lr
			stateC_counter = 0;
 8007d9a:	2300      	movs	r3, #0
 8007d9c:	8013      	strh	r3, [r2, #0]
			stateEntry_flag = true;
 8007d9e:	2201      	movs	r2, #1
 8007da0:	4b07      	ldr	r3, [pc, #28]	@ (8007dc0 <stateC_transition+0x44>)
 8007da2:	701a      	strb	r2, [r3, #0]
			if (c1c2 == 0)
 8007da4:	b918      	cbnz	r0, 8007dae <stateC_transition+0x32>
				changeState((StateMachine *)&sm, STATE_C1, 0);
 8007da6:	2105      	movs	r1, #5
				changeState((StateMachine *)&sm, STATE_C2, 0);
 8007da8:	4806      	ldr	r0, [pc, #24]	@ (8007dc4 <stateC_transition+0x48>)
 8007daa:	f7ff bd33 	b.w	8007814 <changeState.constprop.0>
 8007dae:	2106      	movs	r1, #6
 8007db0:	e7fa      	b.n	8007da8 <stateC_transition+0x2c>
		stateC_counter = 0;
 8007db2:	2300      	movs	r3, #0
 8007db4:	e7ef      	b.n	8007d96 <stateC_transition+0x1a>
 8007db6:	bf00      	nop
 8007db8:	20001458 	.word	0x20001458
 8007dbc:	200014d0 	.word	0x200014d0
 8007dc0:	20000005 	.word	0x20000005
 8007dc4:	200014d8 	.word	0x200014d8

08007dc8 <power_on>:
{
 8007dc8:	b508      	push	{r3, lr}
	if (stateEntry_flag == true)
 8007dca:	4b0c      	ldr	r3, [pc, #48]	@ (8007dfc <power_on+0x34>)
 8007dcc:	781a      	ldrb	r2, [r3, #0]
 8007dce:	b14a      	cbz	r2, 8007de4 <power_on+0x1c>
		stateEntry_flag = false;
 8007dd0:	2200      	movs	r2, #0
		controlSide_data.status.bit.curretState = POWERON_STATE;
 8007dd2:	2101      	movs	r1, #1
		stateEntry_flag = false;
 8007dd4:	701a      	strb	r2, [r3, #0]
		controlSide_data.status.bit.curretState = POWERON_STATE;
 8007dd6:	4a0a      	ldr	r2, [pc, #40]	@ (8007e00 <power_on+0x38>)
 8007dd8:	7813      	ldrb	r3, [r2, #0]
 8007dda:	f361 0304 	bfi	r3, r1, #0, #5
 8007dde:	7013      	strb	r3, [r2, #0]
		bootup_vehicleCheck();
 8007de0:	f7fe fb96 	bl	8006510 <bootup_vehicleCheck>
	stateA_transition(0);
 8007de4:	2000      	movs	r0, #0
 8007de6:	f7ff fd91 	bl	800790c <stateA_transition>
	stateB_transition(0);
 8007dea:	2000      	movs	r0, #0
 8007dec:	f7ff fe86 	bl	8007afc <stateB_transition>
}
 8007df0:	e8bd 4008 	ldmia.w	sp!, {r3, lr}
	stateC_transition(0);
 8007df4:	2000      	movs	r0, #0
 8007df6:	f7ff bfc1 	b.w	8007d7c <stateC_transition>
 8007dfa:	bf00      	nop
 8007dfc:	20000005 	.word	0x20000005
 8007e00:	20001458 	.word	0x20001458

08007e04 <temp_stateF>:

void temp_stateF(void)
{
 8007e04:	b5f8      	push	{r3, r4, r5, r6, r7, lr}
    if (stateEntry_flag == true)
 8007e06:	4d1f      	ldr	r5, [pc, #124]	@ (8007e84 <temp_stateF+0x80>)
 8007e08:	4c1f      	ldr	r4, [pc, #124]	@ (8007e88 <temp_stateF+0x84>)
 8007e0a:	782b      	ldrb	r3, [r5, #0]
 8007e0c:	b183      	cbz	r3, 8007e30 <temp_stateF+0x2c>
    {
        stateEntry_flag = false;
 8007e0e:	2200      	movs	r2, #0
        controlSide_data.status.bit.curretState = TEMP_STATE_F;
 8007e10:	2109      	movs	r1, #9
        stateEntry_flag = false;
 8007e12:	702a      	strb	r2, [r5, #0]
        controlSide_data.status.bit.curretState = TEMP_STATE_F;
 8007e14:	7823      	ldrb	r3, [r4, #0]
		controlSide_data.controlPilot.cp_enable = 1;
		controlSide_data.controlPilot.cp_duty_enable = 0;

		L_RELAY_OFF();
 8007e16:	481d      	ldr	r0, [pc, #116]	@ (8007e8c <temp_stateF+0x88>)
        controlSide_data.status.bit.curretState = TEMP_STATE_F;
 8007e18:	f361 0304 	bfi	r3, r1, #0, #5
 8007e1c:	7023      	strb	r3, [r4, #0]
		controlSide_data.controlPilot.cp_enable = 1;
 8007e1e:	2301      	movs	r3, #1
		L_RELAY_OFF();
 8007e20:	2110      	movs	r1, #16
		controlSide_data.controlPilot.cp_enable = 1;
 8007e22:	72e3      	strb	r3, [r4, #11]
		controlSide_data.controlPilot.cp_duty_enable = 0;
 8007e24:	72a2      	strb	r2, [r4, #10]
		L_RELAY_OFF();
 8007e26:	f001 fc91 	bl	800974c <HAL_GPIO_WritePin>

		tick_clear(&timeout);
 8007e2a:	4819      	ldr	r0, [pc, #100]	@ (8007e90 <temp_stateF+0x8c>)
 8007e2c:	f000 fb34 	bl	8008498 <tick_clear>
    }

    if (timeout.timeout_4s == true)
 8007e30:	4b17      	ldr	r3, [pc, #92]	@ (8007e90 <temp_stateF+0x8c>)
 8007e32:	7a9b      	ldrb	r3, [r3, #10]
 8007e34:	b19b      	cbz	r3, 8007e5e <temp_stateF+0x5a>
	{
		if (controlSide_data.errorStatus.bit.fault_level == 0)
 8007e36:	7863      	ldrb	r3, [r4, #1]
 8007e38:	f013 0f0c 	tst.w	r3, #12
 8007e3c:	f3c3 0681 	ubfx	r6, r3, #2, #2
 8007e40:	d10d      	bne.n	8007e5e <temp_stateF+0x5a>
		{
			stateA_transition(0);
 8007e42:	4630      	mov	r0, r6
 8007e44:	f7ff fd62 	bl	800790c <stateA_transition>
			if (controlSide_data.status.bit.charging_active == 1)
 8007e48:	7823      	ldrb	r3, [r4, #0]
 8007e4a:	f3c3 1740 	ubfx	r7, r3, #5, #1
 8007e4e:	069b      	lsls	r3, r3, #26
 8007e50:	d512      	bpl.n	8007e78 <temp_stateF+0x74>
			{
				stateB_transition(1);
 8007e52:	4638      	mov	r0, r7
 8007e54:	f7ff fe52 	bl	8007afc <stateB_transition>
				stateC_transition(1);
 8007e58:	4638      	mov	r0, r7
			}
			else
			{
				stateB_transition(0);
				stateC_transition(0);
 8007e5a:	f7ff ff8f 	bl	8007d7c <stateC_transition>
			}
		}
	}

	if (controlSide_data.errorStatus.bit.fault_level == PRIORITY_2)
 8007e5e:	7863      	ldrb	r3, [r4, #1]
 8007e60:	f3c3 0381 	ubfx	r3, r3, #2, #2
 8007e64:	2b02      	cmp	r3, #2
 8007e66:	d10c      	bne.n	8007e82 <temp_stateF+0x7e>
	{
		stateEntry_flag = true;
 8007e68:	2301      	movs	r3, #1
		changeState((StateMachine *)&sm, STATE_F, 0);
 8007e6a:	2108      	movs	r1, #8
		stateEntry_flag = true;
 8007e6c:	702b      	strb	r3, [r5, #0]
		changeState((StateMachine *)&sm, STATE_F, 0);
 8007e6e:	4809      	ldr	r0, [pc, #36]	@ (8007e94 <temp_stateF+0x90>)
	}
}
 8007e70:	e8bd 40f8 	ldmia.w	sp!, {r3, r4, r5, r6, r7, lr}
		changeState((StateMachine *)&sm, STATE_F, 0);
 8007e74:	f7ff bcce 	b.w	8007814 <changeState.constprop.0>
				stateB_transition(0);
 8007e78:	4630      	mov	r0, r6
 8007e7a:	f7ff fe3f 	bl	8007afc <stateB_transition>
				stateC_transition(0);
 8007e7e:	4630      	mov	r0, r6
 8007e80:	e7eb      	b.n	8007e5a <temp_stateF+0x56>
}
 8007e82:	bdf8      	pop	{r3, r4, r5, r6, r7, pc}
 8007e84:	20000005 	.word	0x20000005
 8007e88:	20001458 	.word	0x20001458
 8007e8c:	40010c00 	.word	0x40010c00
 8007e90:	20001660 	.word	0x20001660
 8007e94:	200014d8 	.word	0x200014d8

08007e98 <stateB2>:
{
 8007e98:	b5f8      	push	{r3, r4, r5, r6, r7, lr}
	if (stateEntry_flag == true)
 8007e9a:	4d2c      	ldr	r5, [pc, #176]	@ (8007f4c <stateB2+0xb4>)
 8007e9c:	4c2c      	ldr	r4, [pc, #176]	@ (8007f50 <stateB2+0xb8>)
 8007e9e:	782b      	ldrb	r3, [r5, #0]
 8007ea0:	4e2c      	ldr	r6, [pc, #176]	@ (8007f54 <stateB2+0xbc>)
 8007ea2:	b1bb      	cbz	r3, 8007ed4 <stateB2+0x3c>
		stateEntry_flag = false;
 8007ea4:	2200      	movs	r2, #0
		controlSide_data.status.bit.curretState = STATE_B2;	//Current state update
 8007ea6:	2104      	movs	r1, #4
		stateEntry_flag = false;
 8007ea8:	702a      	strb	r2, [r5, #0]
		controlSide_data.status.bit.curretState = STATE_B2;	//Current state update
 8007eaa:	7823      	ldrb	r3, [r4, #0]
		tick_clear(&timeout);								//Clear timer
 8007eac:	482a      	ldr	r0, [pc, #168]	@ (8007f58 <stateB2+0xc0>)
		controlSide_data.status.bit.curretState = STATE_B2;	//Current state update
 8007eae:	f361 0304 	bfi	r3, r1, #0, #5
 8007eb2:	7023      	strb	r3, [r4, #0]
		controlSide_data.controlPilot.cp_enable = 1;
 8007eb4:	2301      	movs	r3, #1
 8007eb6:	72e3      	strb	r3, [r4, #11]
		controlSide_data.controlPilot.cp_duty_enable = 1;
 8007eb8:	72a3      	strb	r3, [r4, #10]
		diodeCheck_passed = false;
 8007eba:	7032      	strb	r2, [r6, #0]
		if (controlSide_data.status.bit.charging_active == 0)
 8007ebc:	7822      	ldrb	r2, [r4, #0]
 8007ebe:	0692      	lsls	r2, r2, #26
			diodeCheck_flag = true;
 8007ec0:	bf5c      	itt	pl
 8007ec2:	4a26      	ldrpl	r2, [pc, #152]	@ (8007f5c <stateB2+0xc4>)
 8007ec4:	7013      	strbpl	r3, [r2, #0]
		tick_clear(&timeout);								//Clear timer
 8007ec6:	f000 fae7 	bl	8008498 <tick_clear>
		L_RELAY_OFF();										//Turn off contactor
 8007eca:	2200      	movs	r2, #0
 8007ecc:	2110      	movs	r1, #16
 8007ece:	4824      	ldr	r0, [pc, #144]	@ (8007f60 <stateB2+0xc8>)
 8007ed0:	f001 fc3c 	bl	800974c <HAL_GPIO_WritePin>
	if (networkSide_data.status == STOP_STATE)
 8007ed4:	4f23      	ldr	r7, [pc, #140]	@ (8007f64 <stateB2+0xcc>)
 8007ed6:	883b      	ldrh	r3, [r7, #0]
 8007ed8:	b29b      	uxth	r3, r3
 8007eda:	2b06      	cmp	r3, #6
 8007edc:	d10d      	bne.n	8007efa <stateB2+0x62>
		controlSide_data.networkSide_request.bit.start_Charge = 0; //30/09/2020
 8007ede:	7f63      	ldrb	r3, [r4, #29]
		changeState((StateMachine *)&sm, STATE_B1, 0);
 8007ee0:	2103      	movs	r1, #3
		controlSide_data.networkSide_request.bit.start_Charge = 0; //30/09/2020
 8007ee2:	f023 0301 	bic.w	r3, r3, #1
 8007ee6:	7763      	strb	r3, [r4, #29]
		controlSide_data.networkSide_request.bit.stop_Charge = 0;
 8007ee8:	7f63      	ldrb	r3, [r4, #29]
		changeState((StateMachine *)&sm, STATE_B1, 0);
 8007eea:	481f      	ldr	r0, [pc, #124]	@ (8007f68 <stateB2+0xd0>)
		controlSide_data.networkSide_request.bit.stop_Charge = 0;
 8007eec:	f023 0302 	bic.w	r3, r3, #2
 8007ef0:	7763      	strb	r3, [r4, #29]
		stateEntry_flag = true;
 8007ef2:	2301      	movs	r3, #1
 8007ef4:	702b      	strb	r3, [r5, #0]
		changeState((StateMachine *)&sm, STATE_B1, 0);
 8007ef6:	f7ff fc8d 	bl	8007814 <changeState.constprop.0>
	if (networkSide_data.status == IDLE_STATE)
 8007efa:	883b      	ldrh	r3, [r7, #0]
 8007efc:	b29b      	uxth	r3, r3
 8007efe:	2b02      	cmp	r3, #2
 8007f00:	d105      	bne.n	8007f0e <stateB2+0x76>
		stateEntry_flag = true;
 8007f02:	2301      	movs	r3, #1
		changeState((StateMachine *)&sm, STATE_B1, 0);
 8007f04:	2103      	movs	r1, #3
 8007f06:	4818      	ldr	r0, [pc, #96]	@ (8007f68 <stateB2+0xd0>)
		stateEntry_flag = true;
 8007f08:	702b      	strb	r3, [r5, #0]
		changeState((StateMachine *)&sm, STATE_B1, 0);
 8007f0a:	f7ff fc83 	bl	8007814 <changeState.constprop.0>
	stateA_transition(1);
 8007f0e:	2001      	movs	r0, #1
 8007f10:	f7ff fcfc 	bl	800790c <stateA_transition>
	if (diodeCheck_passed == true)
 8007f14:	7833      	ldrb	r3, [r6, #0]
 8007f16:	b113      	cbz	r3, 8007f1e <stateB2+0x86>
		stateC_transition(1);
 8007f18:	2001      	movs	r0, #1
 8007f1a:	f7ff ff2f 	bl	8007d7c <stateC_transition>
	if (controlSide_data.errorStatus.bit.fault_level == PRIORITY_2)
 8007f1e:	7863      	ldrb	r3, [r4, #1]
 8007f20:	f3c3 0381 	ubfx	r3, r3, #2, #2
 8007f24:	2b02      	cmp	r3, #2
 8007f26:	d107      	bne.n	8007f38 <stateB2+0xa0>
		stateEntry_flag = true;
 8007f28:	2301      	movs	r3, #1
		changeState((StateMachine *)&sm, STATE_F, 0);
 8007f2a:	2108      	movs	r1, #8
		stateEntry_flag = true;
 8007f2c:	702b      	strb	r3, [r5, #0]
		changeState((StateMachine *)&sm, TEMP_STATE_F, 0);
 8007f2e:	480e      	ldr	r0, [pc, #56]	@ (8007f68 <stateB2+0xd0>)
}
 8007f30:	e8bd 40f8 	ldmia.w	sp!, {r3, r4, r5, r6, r7, lr}
		changeState((StateMachine *)&sm, TEMP_STATE_F, 0);
 8007f34:	f7ff bc6e 	b.w	8007814 <changeState.constprop.0>
	else if (controlSide_data.errorStatus.bit.fault_level == PRIORITY_1)
 8007f38:	7863      	ldrb	r3, [r4, #1]
 8007f3a:	f3c3 0281 	ubfx	r2, r3, #2, #2
 8007f3e:	2a01      	cmp	r2, #1
 8007f40:	d102      	bne.n	8007f48 <stateB2+0xb0>
		changeState((StateMachine *)&sm, TEMP_STATE_F, 0);
 8007f42:	2109      	movs	r1, #9
		stateEntry_flag = true;
 8007f44:	702a      	strb	r2, [r5, #0]
		changeState((StateMachine *)&sm, TEMP_STATE_F, 0);
 8007f46:	e7f2      	b.n	8007f2e <stateB2+0x96>
}
 8007f48:	bdf8      	pop	{r3, r4, r5, r6, r7, pc}
 8007f4a:	bf00      	nop
 8007f4c:	20000005 	.word	0x20000005
 8007f50:	20001458 	.word	0x20001458
 8007f54:	200011f4 	.word	0x200011f4
 8007f58:	20001660 	.word	0x20001660
 8007f5c:	200011f5 	.word	0x200011f5
 8007f60:	40010c00 	.word	0x40010c00
 8007f64:	20001406 	.word	0x20001406
 8007f68:	200014d8 	.word	0x200014d8

08007f6c <charger_variable_init>:

void charger_variable_init(void)
{
	controlSide_data.status.bit.charging_active = 0;
 8007f6c:	4a17      	ldr	r2, [pc, #92]	@ (8007fcc <charger_variable_init+0x60>)
	controlSide_data.networkSide_request.bit.start_Charge = 0;
	controlSide_data.networkSide_request.bit.stop_Charge = 0;
	controlSide_data.networkSide_request.bit.vehicle_Check = 0;
	controlSide_data.networkSide_request.bit.charge_pause = 0;

	powerSide_data.status.bit.powerSide_ready = 0;
 8007f6e:	4818      	ldr	r0, [pc, #96]	@ (8007fd0 <charger_variable_init+0x64>)
	controlSide_data.status.bit.charging_active = 0;
 8007f70:	7813      	ldrb	r3, [r2, #0]
 8007f72:	f023 0320 	bic.w	r3, r3, #32
 8007f76:	7013      	strb	r3, [r2, #0]
	controlSide_data.controlPilot.cp_enable = 1;
 8007f78:	2301      	movs	r3, #1
 8007f7a:	72d3      	strb	r3, [r2, #11]
	controlSide_data.controlPilot.cp_duty_enable = 0;
 8007f7c:	2300      	movs	r3, #0
 8007f7e:	7293      	strb	r3, [r2, #10]
	controlSide_data.errorStatus.all = 0;
 8007f80:	7053      	strb	r3, [r2, #1]
	controlSide_data.powerSide_request.all = 0;
 8007f82:	7713      	strb	r3, [r2, #28]
	controlSide_data.networkSide_request.bit.start_Charge = 0;
 8007f84:	7f51      	ldrb	r1, [r2, #29]
 8007f86:	f363 0100 	bfi	r1, r3, #0, #1
 8007f8a:	7751      	strb	r1, [r2, #29]
	controlSide_data.networkSide_request.bit.stop_Charge = 0;
 8007f8c:	7f51      	ldrb	r1, [r2, #29]
 8007f8e:	f363 0141 	bfi	r1, r3, #1, #1
 8007f92:	7751      	strb	r1, [r2, #29]
	controlSide_data.networkSide_request.bit.vehicle_Check = 0;
 8007f94:	7f51      	ldrb	r1, [r2, #29]
 8007f96:	f363 01c3 	bfi	r1, r3, #3, #1
 8007f9a:	7751      	strb	r1, [r2, #29]
	controlSide_data.networkSide_request.bit.charge_pause = 0;
 8007f9c:	7f51      	ldrb	r1, [r2, #29]
 8007f9e:	f363 1104 	bfi	r1, r3, #4, #1
 8007fa2:	7751      	strb	r1, [r2, #29]
	powerSide_data.status.bit.powerSide_ready = 0;
 8007fa4:	7801      	ldrb	r1, [r0, #0]
 8007fa6:	f363 1145 	bfi	r1, r3, #5, #1
 8007faa:	7001      	strb	r1, [r0, #0]

	controlSide_data.warnings.all = 0;
 8007fac:	7793      	strb	r3, [r2, #30]

	networkSide_data.errors = 0;
 8007fae:	4a09      	ldr	r2, [pc, #36]	@ (8007fd4 <charger_variable_init+0x68>)
 8007fb0:	8053      	strh	r3, [r2, #2]
	networkSide_data.status = 0;
 8007fb2:	8013      	strh	r3, [r2, #0]

	diodeCheck_passed = false;
 8007fb4:	4a08      	ldr	r2, [pc, #32]	@ (8007fd8 <charger_variable_init+0x6c>)
 8007fb6:	7013      	strb	r3, [r2, #0]
	manual_on = false;
 8007fb8:	4a08      	ldr	r2, [pc, #32]	@ (8007fdc <charger_variable_init+0x70>)
 8007fba:	7013      	strb	r3, [r2, #0]
	manual_off = false;
 8007fbc:	4a08      	ldr	r2, [pc, #32]	@ (8007fe0 <charger_variable_init+0x74>)
 8007fbe:	7013      	strb	r3, [r2, #0]

	measure_energy = false;
 8007fc0:	4a08      	ldr	r2, [pc, #32]	@ (8007fe4 <charger_variable_init+0x78>)
 8007fc2:	7013      	strb	r3, [r2, #0]
	start_energy = 0;
 8007fc4:	4a08      	ldr	r2, [pc, #32]	@ (8007fe8 <charger_variable_init+0x7c>)
 8007fc6:	6013      	str	r3, [r2, #0]
}
 8007fc8:	4770      	bx	lr
 8007fca:	bf00      	nop
 8007fcc:	20001458 	.word	0x20001458
 8007fd0:	20001428 	.word	0x20001428
 8007fd4:	20001406 	.word	0x20001406
 8007fd8:	200011f4 	.word	0x200011f4
 8007fdc:	200014cd 	.word	0x200014cd
 8007fe0:	200014ce 	.word	0x200014ce
 8007fe4:	20001488 	.word	0x20001488
 8007fe8:	20001484 	.word	0x20001484

08007fec <stateA1>:
{
 8007fec:	b570      	push	{r4, r5, r6, lr}
	if (stateEntry_flag == true)
 8007fee:	4e1d      	ldr	r6, [pc, #116]	@ (8008064 <stateA1+0x78>)
 8007ff0:	4d1d      	ldr	r5, [pc, #116]	@ (8008068 <stateA1+0x7c>)
 8007ff2:	7833      	ldrb	r3, [r6, #0]
 8007ff4:	b1e3      	cbz	r3, 8008030 <stateA1+0x44>
		stateEntry_flag = false;
 8007ff6:	2400      	movs	r4, #0
		controlSide_data.status.bit.curretState = STATE_A1;	//Current state update
 8007ff8:	2201      	movs	r2, #1
		stateEntry_flag = false;
 8007ffa:	7034      	strb	r4, [r6, #0]
		controlSide_data.status.bit.curretState = STATE_A1;	//Current state update
 8007ffc:	782b      	ldrb	r3, [r5, #0]
		tick_clear(&timeout);								//Clear timer
 8007ffe:	481b      	ldr	r0, [pc, #108]	@ (800806c <stateA1+0x80>)
		controlSide_data.status.bit.curretState = STATE_A1;	//Current state update
 8008000:	f362 0304 	bfi	r3, r2, #0, #5
 8008004:	702b      	strb	r3, [r5, #0]
		diodeCheck_flag = false;							//Diode check
 8008006:	4b1a      	ldr	r3, [pc, #104]	@ (8008070 <stateA1+0x84>)
 8008008:	701c      	strb	r4, [r3, #0]
		run_GFITest = true;									//GFI test flag
 800800a:	4b1a      	ldr	r3, [pc, #104]	@ (8008074 <stateA1+0x88>)
 800800c:	701a      	strb	r2, [r3, #0]
		diodeCheck_passed = false;
 800800e:	4b1a      	ldr	r3, [pc, #104]	@ (8008078 <stateA1+0x8c>)
 8008010:	701c      	strb	r4, [r3, #0]
		controlSide_data.controlPilot.cp_enable = 1;
 8008012:	72ea      	strb	r2, [r5, #11]
		controlSide_data.controlPilot.cp_duty_enable = 0;
 8008014:	72ac      	strb	r4, [r5, #10]
		tick_clear(&timeout);								//Clear timer
 8008016:	f000 fa3f 	bl	8008498 <tick_clear>
		L_RELAY_OFF();										//Turn off contactor
 800801a:	4622      	mov	r2, r4
 800801c:	2110      	movs	r1, #16
 800801e:	4817      	ldr	r0, [pc, #92]	@ (800807c <stateA1+0x90>)
 8008020:	f001 fb94 	bl	800974c <HAL_GPIO_WritePin>
		charger_variable_init();							//Stuck relay test flag
 8008024:	f7ff ffa2 	bl	8007f6c <charger_variable_init>
		errorBuffer_clear();
 8008028:	f7ff fb4e 	bl	80076c8 <errorBuffer_clear>
		sm.transitionCount = 0;
 800802c:	4b14      	ldr	r3, [pc, #80]	@ (8008080 <stateA1+0x94>)
 800802e:	679c      	str	r4, [r3, #120]	@ 0x78
	if (timeout.timeout_1m == true)
 8008030:	4b0e      	ldr	r3, [pc, #56]	@ (800806c <stateA1+0x80>)
 8008032:	7c1b      	ldrb	r3, [r3, #16]
 8008034:	b113      	cbz	r3, 800803c <stateA1+0x50>
		state_transistion_available = false;
 8008036:	2200      	movs	r2, #0
 8008038:	4b12      	ldr	r3, [pc, #72]	@ (8008084 <stateA1+0x98>)
 800803a:	701a      	strb	r2, [r3, #0]
	stateC_transition(0);
 800803c:	2000      	movs	r0, #0
 800803e:	f7ff fe9d 	bl	8007d7c <stateC_transition>
	stateB_transition(0);
 8008042:	2000      	movs	r0, #0
 8008044:	f7ff fd5a 	bl	8007afc <stateB_transition>
	if (controlSide_data.errorStatus.bit.fault_level != 0)
 8008048:	786b      	ldrb	r3, [r5, #1]
 800804a:	f013 0f0c 	tst.w	r3, #12
 800804e:	d007      	beq.n	8008060 <stateA1+0x74>
		stateEntry_flag = true;
 8008050:	2301      	movs	r3, #1
		changeState((StateMachine *)&sm, STATE_F, 0);
 8008052:	2108      	movs	r1, #8
		stateEntry_flag = true;
 8008054:	7033      	strb	r3, [r6, #0]
		changeState((StateMachine *)&sm, STATE_F, 0);
 8008056:	480a      	ldr	r0, [pc, #40]	@ (8008080 <stateA1+0x94>)
}
 8008058:	e8bd 4070 	ldmia.w	sp!, {r4, r5, r6, lr}
		changeState((StateMachine *)&sm, STATE_F, 0);
 800805c:	f7ff bbda 	b.w	8007814 <changeState.constprop.0>
}
 8008060:	bd70      	pop	{r4, r5, r6, pc}
 8008062:	bf00      	nop
 8008064:	20000005 	.word	0x20000005
 8008068:	20001458 	.word	0x20001458
 800806c:	20001660 	.word	0x20001660
 8008070:	200011f5 	.word	0x200011f5
 8008074:	200014b4 	.word	0x200014b4
 8008078:	200011f4 	.word	0x200011f4
 800807c:	40010c00 	.word	0x40010c00
 8008080:	200014d8 	.word	0x200014d8
 8008084:	200014cc 	.word	0x200014cc

08008088 <HAL_MspInit>:

  /* USER CODE BEGIN MspInit 0 */

  /* USER CODE END MspInit 0 */

  __HAL_RCC_AFIO_CLK_ENABLE();
 8008088:	4b0e      	ldr	r3, [pc, #56]	@ (80080c4 <HAL_MspInit+0x3c>)
{
 800808a:	b082      	sub	sp, #8
  __HAL_RCC_AFIO_CLK_ENABLE();
 800808c:	699a      	ldr	r2, [r3, #24]
 800808e:	f042 0201 	orr.w	r2, r2, #1
 8008092:	619a      	str	r2, [r3, #24]
 8008094:	699a      	ldr	r2, [r3, #24]
 8008096:	f002 0201 	and.w	r2, r2, #1
 800809a:	9200      	str	r2, [sp, #0]
 800809c:	9a00      	ldr	r2, [sp, #0]
  __HAL_RCC_PWR_CLK_ENABLE();
 800809e:	69da      	ldr	r2, [r3, #28]
 80080a0:	f042 5280 	orr.w	r2, r2, #268435456	@ 0x10000000
 80080a4:	61da      	str	r2, [r3, #28]
 80080a6:	69db      	ldr	r3, [r3, #28]

  /* System interrupt init*/

  /** NOJTAG: JTAG-DP Disabled and SW-DP Enabled
  */
  __HAL_AFIO_REMAP_SWJ_NOJTAG();
 80080a8:	4a07      	ldr	r2, [pc, #28]	@ (80080c8 <HAL_MspInit+0x40>)
  __HAL_RCC_PWR_CLK_ENABLE();
 80080aa:	f003 5380 	and.w	r3, r3, #268435456	@ 0x10000000
 80080ae:	9301      	str	r3, [sp, #4]
 80080b0:	9b01      	ldr	r3, [sp, #4]
  __HAL_AFIO_REMAP_SWJ_NOJTAG();
 80080b2:	6853      	ldr	r3, [r2, #4]
 80080b4:	f023 63e0 	bic.w	r3, r3, #117440512	@ 0x7000000
 80080b8:	f043 7300 	orr.w	r3, r3, #33554432	@ 0x2000000
 80080bc:	6053      	str	r3, [r2, #4]

  /* USER CODE BEGIN MspInit 1 */

  /* USER CODE END MspInit 1 */
}
 80080be:	b002      	add	sp, #8
 80080c0:	4770      	bx	lr
 80080c2:	bf00      	nop
 80080c4:	40021000 	.word	0x40021000
 80080c8:	40010000 	.word	0x40010000

080080cc <NMI_Handler>:
{
  /* USER CODE BEGIN NonMaskableInt_IRQn 0 */

  /* USER CODE END NonMaskableInt_IRQn 0 */
  /* USER CODE BEGIN NonMaskableInt_IRQn 1 */
   while (1)
 80080cc:	e7fe      	b.n	80080cc <NMI_Handler>

080080ce <HardFault_Handler>:
void HardFault_Handler(void)
{
  /* USER CODE BEGIN HardFault_IRQn 0 */

  /* USER CODE END HardFault_IRQn 0 */
  while (1)
 80080ce:	e7fe      	b.n	80080ce <HardFault_Handler>

080080d0 <MemManage_Handler>:
void MemManage_Handler(void)
{
  /* USER CODE BEGIN MemoryManagement_IRQn 0 */

  /* USER CODE END MemoryManagement_IRQn 0 */
  while (1)
 80080d0:	e7fe      	b.n	80080d0 <MemManage_Handler>

080080d2 <BusFault_Handler>:
void BusFault_Handler(void)
{
  /* USER CODE BEGIN BusFault_IRQn 0 */

  /* USER CODE END BusFault_IRQn 0 */
  while (1)
 80080d2:	e7fe      	b.n	80080d2 <BusFault_Handler>

080080d4 <UsageFault_Handler>:
void UsageFault_Handler(void)
{
  /* USER CODE BEGIN UsageFault_IRQn 0 */

  /* USER CODE END UsageFault_IRQn 0 */
  while (1)
 80080d4:	e7fe      	b.n	80080d4 <UsageFault_Handler>

080080d6 <SVC_Handler>:

  /* USER CODE END SVCall_IRQn 0 */
  /* USER CODE BEGIN SVCall_IRQn 1 */

  /* USER CODE END SVCall_IRQn 1 */
}
 80080d6:	4770      	bx	lr

080080d8 <DebugMon_Handler>:

/**
  * @brief This function handles Debug monitor.
  */
void DebugMon_Handler(void)
 80080d8:	4770      	bx	lr

080080da <PendSV_Handler>:
}

/**
  * @brief This function handles Pendable request for system service.
  */
void PendSV_Handler(void)
 80080da:	4770      	bx	lr

080080dc <SysTick_Handler>:
void SysTick_Handler(void)
{
  /* USER CODE BEGIN SysTick_IRQn 0 */

  /* USER CODE END SysTick_IRQn 0 */
  HAL_IncTick();
 80080dc:	f000 bc24 	b.w	8008928 <HAL_IncTick>

080080e0 <DMA1_Channel1_IRQHandler>:
void DMA1_Channel1_IRQHandler(void)
{
  /* USER CODE BEGIN DMA1_Channel1_IRQn 0 */

  /* USER CODE END DMA1_Channel1_IRQn 0 */
  HAL_DMA_IRQHandler(&hdma_adc1);
 80080e0:	4801      	ldr	r0, [pc, #4]	@ (80080e8 <DMA1_Channel1_IRQHandler+0x8>)
 80080e2:	f001 b899 	b.w	8009218 <HAL_DMA_IRQHandler>
 80080e6:	bf00      	nop
 80080e8:	200010f4 	.word	0x200010f4

080080ec <ADC1_2_IRQHandler>:
void ADC1_2_IRQHandler(void)
{
  /* USER CODE BEGIN ADC1_2_IRQn 0 */

  /* USER CODE END ADC1_2_IRQn 0 */
  HAL_ADC_IRQHandler(&hadc1);
 80080ec:	4801      	ldr	r0, [pc, #4]	@ (80080f4 <ADC1_2_IRQHandler+0x8>)
 80080ee:	f000 bc6d 	b.w	80089cc <HAL_ADC_IRQHandler>
 80080f2:	bf00      	nop
 80080f4:	20001138 	.word	0x20001138

080080f8 <TIM2_IRQHandler>:
void TIM2_IRQHandler(void)
{
  /* USER CODE BEGIN TIM2_IRQn 0 */

  /* USER CODE END TIM2_IRQn 0 */
  HAL_TIM_IRQHandler(&htim2);
 80080f8:	4801      	ldr	r0, [pc, #4]	@ (8008100 <TIM2_IRQHandler+0x8>)
 80080fa:	f002 b8e6 	b.w	800a2ca <HAL_TIM_IRQHandler>
 80080fe:	bf00      	nop
 8008100:	200015a0 	.word	0x200015a0

08008104 <USART1_IRQHandler>:
void USART1_IRQHandler(void)
{
  /* USER CODE BEGIN USART1_IRQn 0 */

  /* USER CODE END USART1_IRQn 0 */
  HAL_UART_IRQHandler(&huart1);
 8008104:	4801      	ldr	r0, [pc, #4]	@ (800810c <USART1_IRQHandler+0x8>)
 8008106:	f002 bd2f 	b.w	800ab68 <HAL_UART_IRQHandler>
 800810a:	bf00      	nop
 800810c:	200016bc 	.word	0x200016bc

08008110 <USART3_IRQHandler>:
void USART3_IRQHandler(void)
{
  /* USER CODE BEGIN USART3_IRQn 0 */

  /* USER CODE END USART3_IRQn 0 */
  HAL_UART_IRQHandler(&huart3);
 8008110:	4801      	ldr	r0, [pc, #4]	@ (8008118 <USART3_IRQHandler+0x8>)
 8008112:	f002 bd29 	b.w	800ab68 <HAL_UART_IRQHandler>
 8008116:	bf00      	nop
 8008118:	20001674 	.word	0x20001674

0800811c <_read>:
  _kill(status, -1);
  while (1) {}    /* Make sure we hang here */
}

__attribute__((weak)) int _read(int file, char *ptr, int len)
{
 800811c:	b570      	push	{r4, r5, r6, lr}
 800811e:	460d      	mov	r5, r1
 8008120:	4614      	mov	r4, r2
  (void)file;
  int DataIdx;

  for (DataIdx = 0; DataIdx < len; DataIdx++)
 8008122:	460e      	mov	r6, r1
 8008124:	1b73      	subs	r3, r6, r5
 8008126:	429c      	cmp	r4, r3
 8008128:	dc01      	bgt.n	800812e <_read+0x12>
  {
    *ptr++ = __io_getchar();
  }

  return len;
}
 800812a:	4620      	mov	r0, r4
 800812c:	bd70      	pop	{r4, r5, r6, pc}
    *ptr++ = __io_getchar();
 800812e:	f3af 8000 	nop.w
 8008132:	f806 0b01 	strb.w	r0, [r6], #1
  for (DataIdx = 0; DataIdx < len; DataIdx++)
 8008136:	e7f5      	b.n	8008124 <_read+0x8>

08008138 <_write>:

__attribute__((weak)) int _write(int file, char *ptr, int len)
{
 8008138:	b570      	push	{r4, r5, r6, lr}
 800813a:	460d      	mov	r5, r1
 800813c:	4614      	mov	r4, r2
  (void)file;
  int DataIdx;

  for (DataIdx = 0; DataIdx < len; DataIdx++)
 800813e:	460e      	mov	r6, r1
 8008140:	1b73      	subs	r3, r6, r5
 8008142:	429c      	cmp	r4, r3
 8008144:	dc01      	bgt.n	800814a <_write+0x12>
  {
    __io_putchar(*ptr++);
  }
  return len;
}
 8008146:	4620      	mov	r0, r4
 8008148:	bd70      	pop	{r4, r5, r6, pc}
    __io_putchar(*ptr++);
 800814a:	f816 0b01 	ldrb.w	r0, [r6], #1
 800814e:	f3af 8000 	nop.w
  for (DataIdx = 0; DataIdx < len; DataIdx++)
 8008152:	e7f5      	b.n	8008140 <_write+0x8>

08008154 <_close>:

int _close(int file)
{
  (void)file;
  return -1;
}
 8008154:	f04f 30ff 	mov.w	r0, #4294967295
 8008158:	4770      	bx	lr

0800815a <_fstat>:


int _fstat(int file, struct stat *st)
{
  (void)file;
  st->st_mode = S_IFCHR;
 800815a:	f44f 5300 	mov.w	r3, #8192	@ 0x2000
  return 0;
}
 800815e:	2000      	movs	r0, #0
  st->st_mode = S_IFCHR;
 8008160:	604b      	str	r3, [r1, #4]
}
 8008162:	4770      	bx	lr

08008164 <_isatty>:

int _isatty(int file)
{
  (void)file;
  return 1;
}
 8008164:	2001      	movs	r0, #1
 8008166:	4770      	bx	lr

08008168 <_lseek>:
{
  (void)file;
  (void)ptr;
  (void)dir;
  return 0;
}
 8008168:	2000      	movs	r0, #0
 800816a:	4770      	bx	lr

0800816c <_sbrk>:
  const uint32_t stack_limit = (uint32_t)&_estack - (uint32_t)&_Min_Stack_Size;
  const uint8_t *max_heap = (uint8_t *)stack_limit;
  uint8_t *prev_heap_end;

  /* Initialize heap end at first call */
  if (NULL == __sbrk_heap_end)
 800816c:	4a0b      	ldr	r2, [pc, #44]	@ (800819c <_sbrk+0x30>)
{
 800816e:	4603      	mov	r3, r0
  if (NULL == __sbrk_heap_end)
 8008170:	6811      	ldr	r1, [r2, #0]
{
 8008172:	b510      	push	{r4, lr}
  if (NULL == __sbrk_heap_end)
 8008174:	b909      	cbnz	r1, 800817a <_sbrk+0xe>
  {
    __sbrk_heap_end = &_end;
 8008176:	490a      	ldr	r1, [pc, #40]	@ (80081a0 <_sbrk+0x34>)
 8008178:	6011      	str	r1, [r2, #0]
  }

  /* Protect heap from growing into the reserved MSP stack */
  if (__sbrk_heap_end + incr > max_heap)
 800817a:	6810      	ldr	r0, [r2, #0]
 800817c:	4909      	ldr	r1, [pc, #36]	@ (80081a4 <_sbrk+0x38>)
 800817e:	4c0a      	ldr	r4, [pc, #40]	@ (80081a8 <_sbrk+0x3c>)
 8008180:	4403      	add	r3, r0
 8008182:	1b09      	subs	r1, r1, r4
 8008184:	428b      	cmp	r3, r1
 8008186:	d906      	bls.n	8008196 <_sbrk+0x2a>
  {
    errno = ENOMEM;
 8008188:	f003 f8a8 	bl	800b2dc <__errno>
 800818c:	230c      	movs	r3, #12
 800818e:	6003      	str	r3, [r0, #0]
    return (void *)-1;
 8008190:	f04f 30ff 	mov.w	r0, #4294967295

  prev_heap_end = __sbrk_heap_end;
  __sbrk_heap_end += incr;

  return (void *)prev_heap_end;
}
 8008194:	bd10      	pop	{r4, pc}
  __sbrk_heap_end += incr;
 8008196:	6013      	str	r3, [r2, #0]
  return (void *)prev_heap_end;
 8008198:	e7fc      	b.n	8008194 <_sbrk+0x28>
 800819a:	bf00      	nop
 800819c:	20001554 	.word	0x20001554
 80081a0:	20001890 	.word	0x20001890
 80081a4:	20005000 	.word	0x20005000
 80081a8:	00000400 	.word	0x00000400

080081ac <SystemInit>:
  #endif /* DATA_IN_ExtSRAM */
#endif 

  /* Configure the Vector Table location -------------------------------------*/
#if defined(USER_VECT_TAB_ADDRESS)
  SCB->VTOR = VECT_TAB_BASE_ADDRESS | VECT_TAB_OFFSET; /* Vector Table Relocation in Internal SRAM. */
 80081ac:	4b01      	ldr	r3, [pc, #4]	@ (80081b4 <SystemInit+0x8>)
 80081ae:	4a02      	ldr	r2, [pc, #8]	@ (80081b8 <SystemInit+0xc>)
 80081b0:	609a      	str	r2, [r3, #8]
#endif /* USER_VECT_TAB_ADDRESS */
}
 80081b2:	4770      	bx	lr
 80081b4:	e000ed00 	.word	0xe000ed00
 80081b8:	08003800 	.word	0x08003800
 80081bc:	00000000 	.word	0x00000000

080081c0 <temperature_NTC>:
 *          the temperature using the Steinhart-Hart equation. The calculated
 *          temperature is smoothed using a low-pass filter before updating the
 *          system data.
 */
void temperature_NTC(void)
{
 80081c0:	b5f8      	push	{r3, r4, r5, r6, r7, lr}
    // Calculate the voltage from the ADC value (12-bit ADC, 3.4V reference).
    float voltage = (adc_store[NTC_INSIDE_INDEX] / 4096.0) * 3.4;
 80081c2:	4b41      	ldr	r3, [pc, #260]	@ (80082c8 <temperature_NTC+0x108>)
 80081c4:	8818      	ldrh	r0, [r3, #0]
 80081c6:	b280      	uxth	r0, r0
 80081c8:	f7fb fd14 	bl	8003bf4 <__aeabi_i2d>
 80081cc:	2200      	movs	r2, #0
 80081ce:	4b3f      	ldr	r3, [pc, #252]	@ (80082cc <temperature_NTC+0x10c>)
 80081d0:	f7fb fd7a 	bl	8003cc8 <__aeabi_dmul>
 80081d4:	a330      	add	r3, pc, #192	@ (adr r3, 8008298 <temperature_NTC+0xd8>)
 80081d6:	e9d3 2300 	ldrd	r2, r3, [r3]
 80081da:	f7fb fd75 	bl	8003cc8 <__aeabi_dmul>
 80081de:	f7fc f86b 	bl	80042b8 <__aeabi_d2f>

    // Calculate the resistance of the NTC thermistor using the voltage divider formula.
    float resistance = ((R1 * voltage) / (3.4 - voltage));
 80081e2:	493b      	ldr	r1, [pc, #236]	@ (80082d0 <temperature_NTC+0x110>)
    float voltage = (adc_store[NTC_INSIDE_INDEX] / 4096.0) * 3.4;
 80081e4:	4606      	mov	r6, r0
    float resistance = ((R1 * voltage) / (3.4 - voltage));
 80081e6:	f7fc f9c5 	bl	8004574 <__aeabi_fmul>
 80081ea:	f7fb fd15 	bl	8003c18 <__aeabi_f2d>
 80081ee:	4604      	mov	r4, r0
 80081f0:	4630      	mov	r0, r6
 80081f2:	460d      	mov	r5, r1
 80081f4:	f7fb fd10 	bl	8003c18 <__aeabi_f2d>
 80081f8:	4602      	mov	r2, r0
 80081fa:	460b      	mov	r3, r1
 80081fc:	a126      	add	r1, pc, #152	@ (adr r1, 8008298 <temperature_NTC+0xd8>)
 80081fe:	e9d1 0100 	ldrd	r0, r1, [r1]
 8008202:	f7fb fba9 	bl	8003958 <__aeabi_dsub>
 8008206:	4602      	mov	r2, r0
 8008208:	460b      	mov	r3, r1
 800820a:	4620      	mov	r0, r4
 800820c:	4629      	mov	r1, r5
 800820e:	f7fb fe85 	bl	8003f1c <__aeabi_ddiv>
 8008212:	f7fc f851 	bl	80042b8 <__aeabi_d2f>

    // Calculate the temperature using the Steinhart-Hart equation.
    float steinhart = (1.0 / (1.0 / (T0 + 273.15) + (1.0 / B) * log(resistance / R0)));
 8008216:	492f      	ldr	r1, [pc, #188]	@ (80082d4 <temperature_NTC+0x114>)
 8008218:	f7fc fa60 	bl	80046dc <__aeabi_fdiv>
 800821c:	f7fb fcfc 	bl	8003c18 <__aeabi_f2d>
 8008220:	f003 fabc 	bl	800b79c <log>
 8008224:	a31e      	add	r3, pc, #120	@ (adr r3, 80082a0 <temperature_NTC+0xe0>)
 8008226:	e9d3 2300 	ldrd	r2, r3, [r3]
 800822a:	f7fb fd4d 	bl	8003cc8 <__aeabi_dmul>
 800822e:	a31e      	add	r3, pc, #120	@ (adr r3, 80082a8 <temperature_NTC+0xe8>)
 8008230:	e9d3 2300 	ldrd	r2, r3, [r3]
 8008234:	f7fb fb92 	bl	800395c <__adddf3>
 8008238:	4602      	mov	r2, r0
 800823a:	460b      	mov	r3, r1
 800823c:	2000      	movs	r0, #0
 800823e:	4926      	ldr	r1, [pc, #152]	@ (80082d8 <temperature_NTC+0x118>)
 8008240:	f7fb fe6c 	bl	8003f1c <__aeabi_ddiv>
 8008244:	f7fc f838 	bl	80042b8 <__aeabi_d2f>

    // Apply a low-pass filter to smooth the temperature reading.
    powerSide_data.tempSensors.T1 = (ALPHA * (steinhart - 273.15 - 4)) +
 8008248:	f7fb fce6 	bl	8003c18 <__aeabi_f2d>
 800824c:	a318      	add	r3, pc, #96	@ (adr r3, 80082b0 <temperature_NTC+0xf0>)
 800824e:	e9d3 2300 	ldrd	r2, r3, [r3]
 8008252:	f7fb fb81 	bl	8003958 <__aeabi_dsub>
 8008256:	2200      	movs	r2, #0
 8008258:	4b20      	ldr	r3, [pc, #128]	@ (80082dc <temperature_NTC+0x11c>)
 800825a:	f7fb fb7d 	bl	8003958 <__aeabi_dsub>
 800825e:	a316      	add	r3, pc, #88	@ (adr r3, 80082b8 <temperature_NTC+0xf8>)
 8008260:	e9d3 2300 	ldrd	r2, r3, [r3]
 8008264:	f7fb fd30 	bl	8003cc8 <__aeabi_dmul>
                                    ((1 - ALPHA) * powerSide_data.tempSensors.T1);
 8008268:	4e1d      	ldr	r6, [pc, #116]	@ (80082e0 <temperature_NTC+0x120>)
    powerSide_data.tempSensors.T1 = (ALPHA * (steinhart - 273.15 - 4)) +
 800826a:	4604      	mov	r4, r0
                                    ((1 - ALPHA) * powerSide_data.tempSensors.T1);
 800826c:	6877      	ldr	r7, [r6, #4]
    powerSide_data.tempSensors.T1 = (ALPHA * (steinhart - 273.15 - 4)) +
 800826e:	460d      	mov	r5, r1
                                    ((1 - ALPHA) * powerSide_data.tempSensors.T1);
 8008270:	4638      	mov	r0, r7
 8008272:	f7fb fcd1 	bl	8003c18 <__aeabi_f2d>
 8008276:	a312      	add	r3, pc, #72	@ (adr r3, 80082c0 <temperature_NTC+0x100>)
 8008278:	e9d3 2300 	ldrd	r2, r3, [r3]
 800827c:	f7fb fd24 	bl	8003cc8 <__aeabi_dmul>
 8008280:	4602      	mov	r2, r0
 8008282:	460b      	mov	r3, r1
    powerSide_data.tempSensors.T1 = (ALPHA * (steinhart - 273.15 - 4)) +
 8008284:	4620      	mov	r0, r4
 8008286:	4629      	mov	r1, r5
 8008288:	f7fb fb68 	bl	800395c <__adddf3>
 800828c:	f7fc f814 	bl	80042b8 <__aeabi_d2f>
 8008290:	6070      	str	r0, [r6, #4]
}
 8008292:	bdf8      	pop	{r3, r4, r5, r6, r7, pc}
 8008294:	f3af 8000 	nop.w
 8008298:	33333333 	.word	0x33333333
 800829c:	400b3333 	.word	0x400b3333
 80082a0:	125b8012 	.word	0x125b8012
 80082a4:	3f325b80 	.word	0x3f325b80
 80082a8:	dcb5db83 	.word	0xdcb5db83
 80082ac:	3f6b79e1 	.word	0x3f6b79e1
 80082b0:	66666666 	.word	0x66666666
 80082b4:	40711266 	.word	0x40711266
 80082b8:	9999999a 	.word	0x9999999a
 80082bc:	3fa99999 	.word	0x3fa99999
 80082c0:	66666666 	.word	0x66666666
 80082c4:	3fee6666 	.word	0x3fee6666
 80082c8:	200013f8 	.word	0x200013f8
 80082cc:	3f300000 	.word	0x3f300000
 80082d0:	44fa0000 	.word	0x44fa0000
 80082d4:	461c4000 	.word	0x461c4000
 80082d8:	3ff00000 	.word	0x3ff00000
 80082dc:	40100000 	.word	0x40100000
 80082e0:	20001428 	.word	0x20001428

080082e4 <MX_TIM2_Init>:
TIM_HandleTypeDef htim2;
TIM_HandleTypeDef htim3;

/* TIM2 init function */
void MX_TIM2_Init(void)
{
 80082e4:	b57f      	push	{r0, r1, r2, r3, r4, r5, r6, lr}

  /* USER CODE BEGIN TIM2_Init 0 */

  /* USER CODE END TIM2_Init 0 */

  TIM_ClockConfigTypeDef sClockSourceConfig = {0};
 80082e6:	2210      	movs	r2, #16
 80082e8:	2100      	movs	r1, #0
 80082ea:	a802      	add	r0, sp, #8
 80082ec:	f002 ffa8 	bl	800b240 <memset>

  /* USER CODE BEGIN TIM2_Init 1 */

  /* USER CODE END TIM2_Init 1 */
  htim2.Instance = TIM2;
  htim2.Init.Prescaler = 499;
 80082f0:	f240 12f3 	movw	r2, #499	@ 0x1f3
 80082f4:	f04f 4180 	mov.w	r1, #1073741824	@ 0x40000000
  htim2.Instance = TIM2;
 80082f8:	4813      	ldr	r0, [pc, #76]	@ (8008348 <MX_TIM2_Init+0x64>)
  TIM_MasterConfigTypeDef sMasterConfig = {0};
 80082fa:	2300      	movs	r3, #0
  htim2.Init.Prescaler = 499;
 80082fc:	e9c0 1200 	strd	r1, r2, [r0]
  htim2.Init.CounterMode = TIM_COUNTERMODE_UP;
  htim2.Init.Period = 71;
 8008300:	2247      	movs	r2, #71	@ 0x47
  TIM_MasterConfigTypeDef sMasterConfig = {0};
 8008302:	e9cd 3300 	strd	r3, r3, [sp]
  htim2.Init.ClockDivision = TIM_CLOCKDIVISION_DIV1;
 8008306:	e9c0 2303 	strd	r2, r3, [r0, #12]
  htim2.Init.CounterMode = TIM_COUNTERMODE_UP;
 800830a:	6083      	str	r3, [r0, #8]
  htim2.Init.AutoReloadPreload = TIM_AUTORELOAD_PRELOAD_ENABLE;
 800830c:	2380      	movs	r3, #128	@ 0x80
 800830e:	6183      	str	r3, [r0, #24]
  if (HAL_TIM_Base_Init(&htim2) != HAL_OK)
 8008310:	f002 f8a2 	bl	800a458 <HAL_TIM_Base_Init>
 8008314:	b108      	cbz	r0, 800831a <MX_TIM2_Init+0x36>
  {
    Error_Handler();
 8008316:	f7fe fd3b 	bl	8006d90 <Error_Handler>
  }
  sClockSourceConfig.ClockSource = TIM_CLOCKSOURCE_INTERNAL;
 800831a:	f44f 5380 	mov.w	r3, #4096	@ 0x1000
  if (HAL_TIM_ConfigClockSource(&htim2, &sClockSourceConfig) != HAL_OK)
 800831e:	480a      	ldr	r0, [pc, #40]	@ (8008348 <MX_TIM2_Init+0x64>)
 8008320:	a902      	add	r1, sp, #8
  sClockSourceConfig.ClockSource = TIM_CLOCKSOURCE_INTERNAL;
 8008322:	9302      	str	r3, [sp, #8]
  if (HAL_TIM_ConfigClockSource(&htim2, &sClockSourceConfig) != HAL_OK)
 8008324:	f002 f97e 	bl	800a624 <HAL_TIM_ConfigClockSource>
 8008328:	b108      	cbz	r0, 800832e <MX_TIM2_Init+0x4a>
  {
    Error_Handler();
 800832a:	f7fe fd31 	bl	8006d90 <Error_Handler>
  }
  sMasterConfig.MasterOutputTrigger = TIM_TRGO_RESET;
 800832e:	2300      	movs	r3, #0
  sMasterConfig.MasterSlaveMode = TIM_MASTERSLAVEMODE_DISABLE;
  if (HAL_TIMEx_MasterConfigSynchronization(&htim2, &sMasterConfig) != HAL_OK)
 8008330:	4669      	mov	r1, sp
 8008332:	4805      	ldr	r0, [pc, #20]	@ (8008348 <MX_TIM2_Init+0x64>)
  sMasterConfig.MasterSlaveMode = TIM_MASTERSLAVEMODE_DISABLE;
 8008334:	e9cd 3300 	strd	r3, r3, [sp]
  if (HAL_TIMEx_MasterConfigSynchronization(&htim2, &sMasterConfig) != HAL_OK)
 8008338:	f002 fa6c 	bl	800a814 <HAL_TIMEx_MasterConfigSynchronization>
 800833c:	b108      	cbz	r0, 8008342 <MX_TIM2_Init+0x5e>
  {
    Error_Handler();
 800833e:	f7fe fd27 	bl	8006d90 <Error_Handler>
  }
  /* USER CODE BEGIN TIM2_Init 2 */

  /* USER CODE END TIM2_Init 2 */

}
 8008342:	b007      	add	sp, #28
 8008344:	f85d fb04 	ldr.w	pc, [sp], #4
 8008348:	200015a0 	.word	0x200015a0

0800834c <HAL_TIM_Base_MspInit>:
}

void HAL_TIM_Base_MspInit(TIM_HandleTypeDef* tim_baseHandle)
{

  if(tim_baseHandle->Instance==TIM2)
 800834c:	6803      	ldr	r3, [r0, #0]
{
 800834e:	b507      	push	{r0, r1, r2, lr}
  if(tim_baseHandle->Instance==TIM2)
 8008350:	f1b3 4f80 	cmp.w	r3, #1073741824	@ 0x40000000
 8008354:	d115      	bne.n	8008382 <HAL_TIM_Base_MspInit+0x36>
  {
  /* USER CODE BEGIN TIM2_MspInit 0 */

  /* USER CODE END TIM2_MspInit 0 */
    /* TIM2 clock enable */
    __HAL_RCC_TIM2_CLK_ENABLE();
 8008356:	f503 3304 	add.w	r3, r3, #135168	@ 0x21000
 800835a:	69da      	ldr	r2, [r3, #28]

    /* TIM2 interrupt Init */
    HAL_NVIC_SetPriority(TIM2_IRQn, 0, 0);
 800835c:	201c      	movs	r0, #28
    __HAL_RCC_TIM2_CLK_ENABLE();
 800835e:	f042 0201 	orr.w	r2, r2, #1
 8008362:	61da      	str	r2, [r3, #28]
    HAL_NVIC_SetPriority(TIM2_IRQn, 0, 0);
 8008364:	2200      	movs	r2, #0
    __HAL_RCC_TIM2_CLK_ENABLE();
 8008366:	69db      	ldr	r3, [r3, #28]
    HAL_NVIC_SetPriority(TIM2_IRQn, 0, 0);
 8008368:	4611      	mov	r1, r2
    __HAL_RCC_TIM2_CLK_ENABLE();
 800836a:	f003 0301 	and.w	r3, r3, #1
 800836e:	9300      	str	r3, [sp, #0]
 8008370:	9b00      	ldr	r3, [sp, #0]
    HAL_NVIC_SetPriority(TIM2_IRQn, 0, 0);
 8008372:	f000 fe1b 	bl	8008fac <HAL_NVIC_SetPriority>
    HAL_NVIC_EnableIRQ(TIM2_IRQn);
 8008376:	201c      	movs	r0, #28
    __HAL_RCC_TIM3_CLK_ENABLE();
  /* USER CODE BEGIN TIM3_MspInit 1 */

  /* USER CODE END TIM3_MspInit 1 */
  }
}
 8008378:	b003      	add	sp, #12
 800837a:	f85d eb04 	ldr.w	lr, [sp], #4
    HAL_NVIC_EnableIRQ(TIM2_IRQn);
 800837e:	f000 be45 	b.w	800900c <HAL_NVIC_EnableIRQ>
  else if(tim_baseHandle->Instance==TIM3)
 8008382:	4a08      	ldr	r2, [pc, #32]	@ (80083a4 <HAL_TIM_Base_MspInit+0x58>)
 8008384:	4293      	cmp	r3, r2
 8008386:	d109      	bne.n	800839c <HAL_TIM_Base_MspInit+0x50>
    __HAL_RCC_TIM3_CLK_ENABLE();
 8008388:	4b07      	ldr	r3, [pc, #28]	@ (80083a8 <HAL_TIM_Base_MspInit+0x5c>)
 800838a:	69da      	ldr	r2, [r3, #28]
 800838c:	f042 0202 	orr.w	r2, r2, #2
 8008390:	61da      	str	r2, [r3, #28]
 8008392:	69db      	ldr	r3, [r3, #28]
 8008394:	f003 0302 	and.w	r3, r3, #2
 8008398:	9301      	str	r3, [sp, #4]
 800839a:	9b01      	ldr	r3, [sp, #4]
}
 800839c:	b003      	add	sp, #12
 800839e:	f85d fb04 	ldr.w	pc, [sp], #4
 80083a2:	bf00      	nop
 80083a4:	40000400 	.word	0x40000400
 80083a8:	40021000 	.word	0x40021000

080083ac <HAL_TIM_MspPostInit>:
void HAL_TIM_MspPostInit(TIM_HandleTypeDef* timHandle)
{
 80083ac:	b510      	push	{r4, lr}
 80083ae:	4604      	mov	r4, r0
 80083b0:	b086      	sub	sp, #24

  GPIO_InitTypeDef GPIO_InitStruct = {0};
 80083b2:	2210      	movs	r2, #16
 80083b4:	2100      	movs	r1, #0
 80083b6:	a802      	add	r0, sp, #8
 80083b8:	f002 ff42 	bl	800b240 <memset>
  if(timHandle->Instance==TIM3)
 80083bc:	6822      	ldr	r2, [r4, #0]
 80083be:	4b0c      	ldr	r3, [pc, #48]	@ (80083f0 <HAL_TIM_MspPostInit+0x44>)
 80083c0:	429a      	cmp	r2, r3
 80083c2:	d112      	bne.n	80083ea <HAL_TIM_MspPostInit+0x3e>
  {
  /* USER CODE BEGIN TIM3_MspPostInit 0 */

  /* USER CODE END TIM3_MspPostInit 0 */

    __HAL_RCC_GPIOB_CLK_ENABLE();
 80083c4:	f503 3303 	add.w	r3, r3, #134144	@ 0x20c00
 80083c8:	699a      	ldr	r2, [r3, #24]
    PB1     ------> TIM3_CH4
    */
    GPIO_InitStruct.Pin = GPIO_PIN_1;
    GPIO_InitStruct.Mode = GPIO_MODE_AF_PP;
    GPIO_InitStruct.Speed = GPIO_SPEED_FREQ_LOW;
    HAL_GPIO_Init(GPIOB, &GPIO_InitStruct);
 80083ca:	480a      	ldr	r0, [pc, #40]	@ (80083f4 <HAL_TIM_MspPostInit+0x48>)
    __HAL_RCC_GPIOB_CLK_ENABLE();
 80083cc:	f042 0208 	orr.w	r2, r2, #8
 80083d0:	619a      	str	r2, [r3, #24]
 80083d2:	699b      	ldr	r3, [r3, #24]
    HAL_GPIO_Init(GPIOB, &GPIO_InitStruct);
 80083d4:	a902      	add	r1, sp, #8
    __HAL_RCC_GPIOB_CLK_ENABLE();
 80083d6:	f003 0308 	and.w	r3, r3, #8
 80083da:	9301      	str	r3, [sp, #4]
 80083dc:	9b01      	ldr	r3, [sp, #4]
    GPIO_InitStruct.Pin = GPIO_PIN_1;
 80083de:	2302      	movs	r3, #2
    GPIO_InitStruct.Mode = GPIO_MODE_AF_PP;
 80083e0:	e9cd 3302 	strd	r3, r3, [sp, #8]
    GPIO_InitStruct.Speed = GPIO_SPEED_FREQ_LOW;
 80083e4:	9305      	str	r3, [sp, #20]
    HAL_GPIO_Init(GPIOB, &GPIO_InitStruct);
 80083e6:	f001 f8d7 	bl	8009598 <HAL_GPIO_Init>
  /* USER CODE BEGIN TIM3_MspPostInit 1 */

  /* USER CODE END TIM3_MspPostInit 1 */
  }

}
 80083ea:	b006      	add	sp, #24
 80083ec:	bd10      	pop	{r4, pc}
 80083ee:	bf00      	nop
 80083f0:	40000400 	.word	0x40000400
 80083f4:	40010c00 	.word	0x40010c00

080083f8 <MX_TIM3_Init>:
{
 80083f8:	b510      	push	{r4, lr}
 80083fa:	b08e      	sub	sp, #56	@ 0x38
  TIM_ClockConfigTypeDef sClockSourceConfig = {0};
 80083fc:	2210      	movs	r2, #16
 80083fe:	2100      	movs	r1, #0
 8008400:	a803      	add	r0, sp, #12
 8008402:	f002 ff1d 	bl	800b240 <memset>
  TIM_MasterConfigTypeDef sMasterConfig = {0};
 8008406:	2400      	movs	r4, #0
  TIM_OC_InitTypeDef sConfigOC = {0};
 8008408:	221c      	movs	r2, #28
 800840a:	4621      	mov	r1, r4
 800840c:	eb0d 0002 	add.w	r0, sp, r2
  TIM_MasterConfigTypeDef sMasterConfig = {0};
 8008410:	e9cd 4401 	strd	r4, r4, [sp, #4]
  TIM_OC_InitTypeDef sConfigOC = {0};
 8008414:	f002 ff14 	bl	800b240 <memset>
  htim3.Init.Prescaler = 71;
 8008418:	2347      	movs	r3, #71	@ 0x47
  htim3.Instance = TIM3;
 800841a:	481d      	ldr	r0, [pc, #116]	@ (8008490 <MX_TIM3_Init+0x98>)
  htim3.Init.Prescaler = 71;
 800841c:	4a1d      	ldr	r2, [pc, #116]	@ (8008494 <MX_TIM3_Init+0x9c>)
  htim3.Init.CounterMode = TIM_COUNTERMODE_UP;
 800841e:	6084      	str	r4, [r0, #8]
  htim3.Init.Prescaler = 71;
 8008420:	e9c0 2300 	strd	r2, r3, [r0]
  htim3.Init.Period = 999;
 8008424:	f240 33e7 	movw	r3, #999	@ 0x3e7
  htim3.Init.AutoReloadPreload = TIM_AUTORELOAD_PRELOAD_DISABLE;
 8008428:	6184      	str	r4, [r0, #24]
  htim3.Init.ClockDivision = TIM_CLOCKDIVISION_DIV1;
 800842a:	e9c0 3403 	strd	r3, r4, [r0, #12]
  if (HAL_TIM_Base_Init(&htim3) != HAL_OK)
 800842e:	f002 f813 	bl	800a458 <HAL_TIM_Base_Init>
 8008432:	b108      	cbz	r0, 8008438 <MX_TIM3_Init+0x40>
    Error_Handler();
 8008434:	f7fe fcac 	bl	8006d90 <Error_Handler>
  sClockSourceConfig.ClockSource = TIM_CLOCKSOURCE_INTERNAL;
 8008438:	f44f 5380 	mov.w	r3, #4096	@ 0x1000
  if (HAL_TIM_ConfigClockSource(&htim3, &sClockSourceConfig) != HAL_OK)
 800843c:	4814      	ldr	r0, [pc, #80]	@ (8008490 <MX_TIM3_Init+0x98>)
 800843e:	a903      	add	r1, sp, #12
  sClockSourceConfig.ClockSource = TIM_CLOCKSOURCE_INTERNAL;
 8008440:	9303      	str	r3, [sp, #12]
  if (HAL_TIM_ConfigClockSource(&htim3, &sClockSourceConfig) != HAL_OK)
 8008442:	f002 f8ef 	bl	800a624 <HAL_TIM_ConfigClockSource>
 8008446:	b108      	cbz	r0, 800844c <MX_TIM3_Init+0x54>
    Error_Handler();
 8008448:	f7fe fca2 	bl	8006d90 <Error_Handler>
  if (HAL_TIM_PWM_Init(&htim3) != HAL_OK)
 800844c:	4810      	ldr	r0, [pc, #64]	@ (8008490 <MX_TIM3_Init+0x98>)
 800844e:	f002 f82f 	bl	800a4b0 <HAL_TIM_PWM_Init>
 8008452:	b108      	cbz	r0, 8008458 <MX_TIM3_Init+0x60>
    Error_Handler();
 8008454:	f7fe fc9c 	bl	8006d90 <Error_Handler>
  sMasterConfig.MasterOutputTrigger = TIM_TRGO_RESET;
 8008458:	2400      	movs	r4, #0
  if (HAL_TIMEx_MasterConfigSynchronization(&htim3, &sMasterConfig) != HAL_OK)
 800845a:	480d      	ldr	r0, [pc, #52]	@ (8008490 <MX_TIM3_Init+0x98>)
 800845c:	a901      	add	r1, sp, #4
  sMasterConfig.MasterSlaveMode = TIM_MASTERSLAVEMODE_DISABLE;
 800845e:	e9cd 4401 	strd	r4, r4, [sp, #4]
  if (HAL_TIMEx_MasterConfigSynchronization(&htim3, &sMasterConfig) != HAL_OK)
 8008462:	f002 f9d7 	bl	800a814 <HAL_TIMEx_MasterConfigSynchronization>
 8008466:	b108      	cbz	r0, 800846c <MX_TIM3_Init+0x74>
    Error_Handler();
 8008468:	f7fe fc92 	bl	8006d90 <Error_Handler>
  sConfigOC.OCMode = TIM_OCMODE_PWM1;
 800846c:	2360      	movs	r3, #96	@ 0x60
  if (HAL_TIM_PWM_ConfigChannel(&htim3, &sConfigOC, TIM_CHANNEL_4) != HAL_OK)
 800846e:	220c      	movs	r2, #12
 8008470:	4807      	ldr	r0, [pc, #28]	@ (8008490 <MX_TIM3_Init+0x98>)
 8008472:	a907      	add	r1, sp, #28
  sConfigOC.Pulse = 0;
 8008474:	e9cd 3407 	strd	r3, r4, [sp, #28]
  sConfigOC.OCPolarity = TIM_OCPOLARITY_HIGH;
 8008478:	9409      	str	r4, [sp, #36]	@ 0x24
  sConfigOC.OCFastMode = TIM_OCFAST_DISABLE;
 800847a:	940b      	str	r4, [sp, #44]	@ 0x2c
  if (HAL_TIM_PWM_ConfigChannel(&htim3, &sConfigOC, TIM_CHANNEL_4) != HAL_OK)
 800847c:	f002 f870 	bl	800a560 <HAL_TIM_PWM_ConfigChannel>
 8008480:	b108      	cbz	r0, 8008486 <MX_TIM3_Init+0x8e>
    Error_Handler();
 8008482:	f7fe fc85 	bl	8006d90 <Error_Handler>
  HAL_TIM_MspPostInit(&htim3);
 8008486:	4802      	ldr	r0, [pc, #8]	@ (8008490 <MX_TIM3_Init+0x98>)
 8008488:	f7ff ff90 	bl	80083ac <HAL_TIM_MspPostInit>
}
 800848c:	b00e      	add	sp, #56	@ 0x38
 800848e:	bd10      	pop	{r4, pc}
 8008490:	20001558 	.word	0x20001558
 8008494:	40000400 	.word	0x40000400

08008498 <tick_clear>:
 *
 * @param timer_ptr Pointer to the `tick_tock` structure to be cleared.
 */
void tick_clear(volatile tick_tock *timer_ptr)
{
    timer_ptr->counter = 0;
 8008498:	2300      	movs	r3, #0
 800849a:	6003      	str	r3, [r0, #0]
    timer_ptr->timeout_0_1s = 0;
 800849c:	7103      	strb	r3, [r0, #4]
    timer_ptr->timeout_0_2s = 0;
 800849e:	7143      	strb	r3, [r0, #5]
    timer_ptr->timeout_0_5s = 0;
 80084a0:	7183      	strb	r3, [r0, #6]
    timer_ptr->timeout_1s = 0;
 80084a2:	71c3      	strb	r3, [r0, #7]
    timer_ptr->timeout_2s = 0;
 80084a4:	7203      	strb	r3, [r0, #8]
    timer_ptr->timeout_3s = 0;
 80084a6:	7243      	strb	r3, [r0, #9]
    timer_ptr->timeout_4s = 0;
 80084a8:	7283      	strb	r3, [r0, #10]
    timer_ptr->timeout_6s = 0;
 80084aa:	72c3      	strb	r3, [r0, #11]
    timer_ptr->timeout_8s = 0;
 80084ac:	7303      	strb	r3, [r0, #12]
    timer_ptr->timeout_10s = 0;
 80084ae:	7343      	strb	r3, [r0, #13]
    timer_ptr->timeout_15s = 0;
 80084b0:	7383      	strb	r3, [r0, #14]
    timer_ptr->timeout_30s = 0;
 80084b2:	73c3      	strb	r3, [r0, #15]
    timer_ptr->timeout_1m = 0;
 80084b4:	7403      	strb	r3, [r0, #16]
    timer_ptr->timeout_5m = 0;
 80084b6:	7443      	strb	r3, [r0, #17]
    timer_ptr->timeout_10m = 0;
 80084b8:	7483      	strb	r3, [r0, #18]
}
 80084ba:	4770      	bx	lr

080084bc <tick_count>:
 */
void tick_count(volatile tick_tock *timer_ptr)
{
    timer_ptr->counter++;

    switch (timer_ptr->counter)
 80084bc:	f642 62e0 	movw	r2, #12000	@ 0x2ee0
    timer_ptr->counter++;
 80084c0:	6803      	ldr	r3, [r0, #0]
 80084c2:	3301      	adds	r3, #1
 80084c4:	6003      	str	r3, [r0, #0]
    switch (timer_ptr->counter)
 80084c6:	6803      	ldr	r3, [r0, #0]
 80084c8:	4293      	cmp	r3, r2
 80084ca:	d048      	beq.n	800855e <tick_count+0xa2>
 80084cc:	d817      	bhi.n	80084fe <tick_count+0x42>
 80084ce:	f5b3 6ffa 	cmp.w	r3, #2000	@ 0x7d0
 80084d2:	d038      	beq.n	8008546 <tick_count+0x8a>
 80084d4:	d808      	bhi.n	80084e8 <tick_count+0x2c>
 80084d6:	f5b3 7fc8 	cmp.w	r3, #400	@ 0x190
 80084da:	d02e      	beq.n	800853a <tick_count+0x7e>
 80084dc:	f5b3 7f7a 	cmp.w	r3, #1000	@ 0x3e8
 80084e0:	d02e      	beq.n	8008540 <tick_count+0x84>
 80084e2:	2bc8      	cmp	r3, #200	@ 0xc8
 80084e4:	d026      	beq.n	8008534 <tick_count+0x78>
 80084e6:	4770      	bx	lr
 80084e8:	f241 7270 	movw	r2, #6000	@ 0x1770
 80084ec:	4293      	cmp	r3, r2
 80084ee:	d030      	beq.n	8008552 <tick_count+0x96>
 80084f0:	f5b3 5ffa 	cmp.w	r3, #8000	@ 0x1f40
 80084f4:	d030      	beq.n	8008558 <tick_count+0x9c>
 80084f6:	f5b3 6f7a 	cmp.w	r3, #4000	@ 0xfa0
 80084fa:	d027      	beq.n	800854c <tick_count+0x90>
 80084fc:	4770      	bx	lr
 80084fe:	f64e 2260 	movw	r2, #60000	@ 0xea60
 8008502:	4293      	cmp	r3, r2
 8008504:	d037      	beq.n	8008576 <tick_count+0xba>
 8008506:	d80b      	bhi.n	8008520 <tick_count+0x64>
 8008508:	f644 6220 	movw	r2, #20000	@ 0x4e20
 800850c:	4293      	cmp	r3, r2
 800850e:	d02c      	beq.n	800856a <tick_count+0xae>
 8008510:	f247 5230 	movw	r2, #30000	@ 0x7530
 8008514:	4293      	cmp	r3, r2
 8008516:	d02b      	beq.n	8008570 <tick_count+0xb4>
 8008518:	f5b3 5f7a 	cmp.w	r3, #16000	@ 0x3e80
 800851c:	d022      	beq.n	8008564 <tick_count+0xa8>
 800851e:	4770      	bx	lr
 8008520:	4a1b      	ldr	r2, [pc, #108]	@ (8008590 <tick_count+0xd4>)
 8008522:	4293      	cmp	r3, r2
 8008524:	d02d      	beq.n	8008582 <tick_count+0xc6>
 8008526:	4a1b      	ldr	r2, [pc, #108]	@ (8008594 <tick_count+0xd8>)
 8008528:	4293      	cmp	r3, r2
 800852a:	d02d      	beq.n	8008588 <tick_count+0xcc>
 800852c:	4a1a      	ldr	r2, [pc, #104]	@ (8008598 <tick_count+0xdc>)
 800852e:	4293      	cmp	r3, r2
 8008530:	d024      	beq.n	800857c <tick_count+0xc0>
 8008532:	4770      	bx	lr
    {
        case 200:
            timer_ptr->timeout_0_1s = true;
 8008534:	2301      	movs	r3, #1
 8008536:	7103      	strb	r3, [r0, #4]
            break;
 8008538:	4770      	bx	lr
        case 400:
            timer_ptr->timeout_0_2s = true;
 800853a:	2301      	movs	r3, #1
 800853c:	7143      	strb	r3, [r0, #5]
            break;
 800853e:	4770      	bx	lr
        case 1000:
            timer_ptr->timeout_0_5s = true;
 8008540:	2301      	movs	r3, #1
 8008542:	7183      	strb	r3, [r0, #6]
            break;
 8008544:	4770      	bx	lr
        case 2000:
            timer_ptr->timeout_1s = true;
 8008546:	2301      	movs	r3, #1
 8008548:	71c3      	strb	r3, [r0, #7]
            break;
 800854a:	4770      	bx	lr
        case 4000:
            timer_ptr->timeout_2s = true;
 800854c:	2301      	movs	r3, #1
 800854e:	7203      	strb	r3, [r0, #8]
            break;
 8008550:	4770      	bx	lr
        case 6000:
            timer_ptr->timeout_3s = true;
 8008552:	2301      	movs	r3, #1
 8008554:	7243      	strb	r3, [r0, #9]
            break;
 8008556:	4770      	bx	lr
        case 8000:
            timer_ptr->timeout_4s = true;
 8008558:	2301      	movs	r3, #1
 800855a:	7283      	strb	r3, [r0, #10]
            break;
 800855c:	4770      	bx	lr
        case 12000:
            timer_ptr->timeout_6s = true;
 800855e:	2301      	movs	r3, #1
 8008560:	72c3      	strb	r3, [r0, #11]
            break;
 8008562:	4770      	bx	lr
        case 16000:
            timer_ptr->timeout_8s = true;
 8008564:	2301      	movs	r3, #1
 8008566:	7303      	strb	r3, [r0, #12]
            break;
 8008568:	4770      	bx	lr
        case 20000:
            timer_ptr->timeout_10s = true;
 800856a:	2301      	movs	r3, #1
 800856c:	7343      	strb	r3, [r0, #13]
            break;
 800856e:	4770      	bx	lr
        case 30000:
            timer_ptr->timeout_15s = true;
 8008570:	2301      	movs	r3, #1
 8008572:	7383      	strb	r3, [r0, #14]
            break;
 8008574:	4770      	bx	lr
        case 60000:
            timer_ptr->timeout_30s = true;
 8008576:	2301      	movs	r3, #1
 8008578:	73c3      	strb	r3, [r0, #15]
            break;
 800857a:	4770      	bx	lr
        case 120000:
            timer_ptr->timeout_1m = true;
 800857c:	2301      	movs	r3, #1
 800857e:	7403      	strb	r3, [r0, #16]
            break;
 8008580:	4770      	bx	lr
        case 600000:
            timer_ptr->timeout_5m = true;
 8008582:	2301      	movs	r3, #1
 8008584:	7443      	strb	r3, [r0, #17]
            break;
 8008586:	4770      	bx	lr
        case 1200000:
            timer_ptr->timeout_10m = true;
 8008588:	2301      	movs	r3, #1
 800858a:	7483      	strb	r3, [r0, #18]
            break;
        default:
            break;
    }
}
 800858c:	4770      	bx	lr
 800858e:	bf00      	nop
 8008590:	000927c0 	.word	0x000927c0
 8008594:	00124f80 	.word	0x00124f80
 8008598:	0001d4c0 	.word	0x0001d4c0

0800859c <huart3TransmitIT>:
		serialPort2TxCount--;
	}
}

static void huart3TransmitIT(uint8_t *pData, uint16_t Length)
{
 800859c:	460a      	mov	r2, r1
 800859e:	b508      	push	{r3, lr}
	UART_HandleTypeDef *huart = &huart3;
	if (HAL_UART_Transmit_IT(huart, pData, Length) == HAL_OK)
 80085a0:	4601      	mov	r1, r0
 80085a2:	4805      	ldr	r0, [pc, #20]	@ (80085b8 <huart3TransmitIT+0x1c>)
 80085a4:	f002 f9fd 	bl	800a9a2 <HAL_UART_Transmit_IT>
 80085a8:	4b04      	ldr	r3, [pc, #16]	@ (80085bc <huart3TransmitIT+0x20>)
	{
		serialPort1TxCount++; // now Modbus is on UART1
 80085aa:	681a      	ldr	r2, [r3, #0]
	if (HAL_UART_Transmit_IT(huart, pData, Length) == HAL_OK)
 80085ac:	b910      	cbnz	r0, 80085b4 <huart3TransmitIT+0x18>
		serialPort1TxCount++; // now Modbus is on UART1
 80085ae:	3201      	adds	r2, #1
	}
	else
	{
		serialPort1TxCount--;
 80085b0:	601a      	str	r2, [r3, #0]
	}
}
 80085b2:	bd08      	pop	{r3, pc}
		serialPort1TxCount--;
 80085b4:	3a01      	subs	r2, #1
 80085b6:	e7fb      	b.n	80085b0 <huart3TransmitIT+0x14>
 80085b8:	20001674 	.word	0x20001674
 80085bc:	20001714 	.word	0x20001714

080085c0 <huart1TransmitIT>:
{
 80085c0:	460a      	mov	r2, r1
 80085c2:	b508      	push	{r3, lr}
	if (HAL_UART_Transmit_IT(huart, pData, Length) == HAL_OK)
 80085c4:	4601      	mov	r1, r0
 80085c6:	4805      	ldr	r0, [pc, #20]	@ (80085dc <huart1TransmitIT+0x1c>)
 80085c8:	f002 f9eb 	bl	800a9a2 <HAL_UART_Transmit_IT>
 80085cc:	4b04      	ldr	r3, [pc, #16]	@ (80085e0 <huart1TransmitIT+0x20>)
		serialPort2TxCount++; // now CSMS is on UART3
 80085ce:	681a      	ldr	r2, [r3, #0]
	if (HAL_UART_Transmit_IT(huart, pData, Length) == HAL_OK)
 80085d0:	b910      	cbnz	r0, 80085d8 <huart1TransmitIT+0x18>
		serialPort2TxCount++; // now CSMS is on UART3
 80085d2:	3201      	adds	r2, #1
		serialPort2TxCount--;
 80085d4:	601a      	str	r2, [r3, #0]
}
 80085d6:	bd08      	pop	{r3, pc}
		serialPort2TxCount--;
 80085d8:	3a01      	subs	r2, #1
 80085da:	e7fb      	b.n	80085d4 <huart1TransmitIT+0x14>
 80085dc:	200016bc 	.word	0x200016bc
 80085e0:	20001708 	.word	0x20001708

080085e4 <MX_USART1_UART_Init>:
{
 80085e4:	b508      	push	{r3, lr}
  huart1.Init.BaudRate = 115200;
 80085e6:	f44f 33e1 	mov.w	r3, #115200	@ 0x1c200
  huart1.Instance = USART1;
 80085ea:	480c      	ldr	r0, [pc, #48]	@ (800861c <MX_USART1_UART_Init+0x38>)
  huart1.Init.BaudRate = 115200;
 80085ec:	4a0c      	ldr	r2, [pc, #48]	@ (8008620 <MX_USART1_UART_Init+0x3c>)
 80085ee:	e9c0 2300 	strd	r2, r3, [r0]
  huart1.Init.WordLength = UART_WORDLENGTH_8B;
 80085f2:	2300      	movs	r3, #0
  huart1.Init.Mode = UART_MODE_TX_RX;
 80085f4:	220c      	movs	r2, #12
  huart1.Init.StopBits = UART_STOPBITS_1;
 80085f6:	e9c0 3302 	strd	r3, r3, [r0, #8]
  huart1.Init.HwFlowCtl = UART_HWCONTROL_NONE;
 80085fa:	e9c0 2305 	strd	r2, r3, [r0, #20]
  huart1.Init.Parity = UART_PARITY_NONE;
 80085fe:	6103      	str	r3, [r0, #16]
  huart1.Init.OverSampling = UART_OVERSAMPLING_16;
 8008600:	61c3      	str	r3, [r0, #28]
  if (HAL_UART_Init(&huart1) != HAL_OK)
 8008602:	f002 f99f 	bl	800a944 <HAL_UART_Init>
 8008606:	b108      	cbz	r0, 800860c <MX_USART1_UART_Init+0x28>
    Error_Handler();
 8008608:	f7fe fbc2 	bl	8006d90 <Error_Handler>
}
 800860c:	e8bd 4008 	ldmia.w	sp!, {r3, lr}
  HAL_UART_Receive_IT(&huart1, (uint8_t*) &serialRxPort1, 1); // start uart rx process
 8008610:	2201      	movs	r2, #1
 8008612:	4904      	ldr	r1, [pc, #16]	@ (8008624 <MX_USART1_UART_Init+0x40>)
 8008614:	4801      	ldr	r0, [pc, #4]	@ (800861c <MX_USART1_UART_Init+0x38>)
 8008616:	f002 bc0a 	b.w	800ae2e <HAL_UART_Receive_IT>
 800861a:	bf00      	nop
 800861c:	200016bc 	.word	0x200016bc
 8008620:	40013800 	.word	0x40013800
 8008624:	20001718 	.word	0x20001718

08008628 <MX_USART3_UART_Init>:
{
 8008628:	b508      	push	{r3, lr}
  huart3.Init.BaudRate = 9600;
 800862a:	f44f 5316 	mov.w	r3, #9600	@ 0x2580
  huart3.Instance = USART3;
 800862e:	480c      	ldr	r0, [pc, #48]	@ (8008660 <MX_USART3_UART_Init+0x38>)
  huart3.Init.BaudRate = 9600;
 8008630:	4a0c      	ldr	r2, [pc, #48]	@ (8008664 <MX_USART3_UART_Init+0x3c>)
 8008632:	e9c0 2300 	strd	r2, r3, [r0]
  huart3.Init.WordLength = UART_WORDLENGTH_8B;
 8008636:	2300      	movs	r3, #0
  huart3.Init.Mode = UART_MODE_TX_RX;
 8008638:	220c      	movs	r2, #12
  huart3.Init.StopBits = UART_STOPBITS_1;
 800863a:	e9c0 3302 	strd	r3, r3, [r0, #8]
  huart3.Init.HwFlowCtl = UART_HWCONTROL_NONE;
 800863e:	e9c0 2305 	strd	r2, r3, [r0, #20]
  huart3.Init.Parity = UART_PARITY_NONE;
 8008642:	6103      	str	r3, [r0, #16]
  huart3.Init.OverSampling = UART_OVERSAMPLING_16;
 8008644:	61c3      	str	r3, [r0, #28]
  if (HAL_UART_Init(&huart3) != HAL_OK)
 8008646:	f002 f97d 	bl	800a944 <HAL_UART_Init>
 800864a:	b108      	cbz	r0, 8008650 <MX_USART3_UART_Init+0x28>
    Error_Handler();
 800864c:	f7fe fba0 	bl	8006d90 <Error_Handler>
}
 8008650:	e8bd 4008 	ldmia.w	sp!, {r3, lr}
  HAL_UART_Receive_IT(&huart3, (uint8_t*) &serialRxPort2, 1); // start uart rx process
 8008654:	2201      	movs	r2, #1
 8008656:	4904      	ldr	r1, [pc, #16]	@ (8008668 <MX_USART3_UART_Init+0x40>)
 8008658:	4801      	ldr	r0, [pc, #4]	@ (8008660 <MX_USART3_UART_Init+0x38>)
 800865a:	f002 bbe8 	b.w	800ae2e <HAL_UART_Receive_IT>
 800865e:	bf00      	nop
 8008660:	20001674 	.word	0x20001674
 8008664:	40004800 	.word	0x40004800
 8008668:	2000170c 	.word	0x2000170c

0800866c <HAL_UART_MspInit>:
  GPIO_InitTypeDef GPIO_InitStruct = {0};
 800866c:	2210      	movs	r2, #16
{
 800866e:	b510      	push	{r4, lr}
 8008670:	4604      	mov	r4, r0
 8008672:	b088      	sub	sp, #32
  GPIO_InitTypeDef GPIO_InitStruct = {0};
 8008674:	eb0d 0002 	add.w	r0, sp, r2
 8008678:	2100      	movs	r1, #0
 800867a:	f002 fde1 	bl	800b240 <memset>
  if(uartHandle->Instance==USART1)
 800867e:	6823      	ldr	r3, [r4, #0]
 8008680:	4a3a      	ldr	r2, [pc, #232]	@ (800876c <HAL_UART_MspInit+0x100>)
 8008682:	4293      	cmp	r3, r2
 8008684:	d136      	bne.n	80086f4 <HAL_UART_MspInit+0x88>
    __HAL_RCC_USART1_CLK_ENABLE();
 8008686:	4b3a      	ldr	r3, [pc, #232]	@ (8008770 <HAL_UART_MspInit+0x104>)
    GPIO_InitStruct.Mode = GPIO_MODE_AF_PP;
 8008688:	2140      	movs	r1, #64	@ 0x40
    __HAL_RCC_USART1_CLK_ENABLE();
 800868a:	699a      	ldr	r2, [r3, #24]
    HAL_GPIO_Init(GPIOB, &GPIO_InitStruct);
 800868c:	4839      	ldr	r0, [pc, #228]	@ (8008774 <HAL_UART_MspInit+0x108>)
    __HAL_RCC_USART1_CLK_ENABLE();
 800868e:	f442 4280 	orr.w	r2, r2, #16384	@ 0x4000
 8008692:	619a      	str	r2, [r3, #24]
 8008694:	699a      	ldr	r2, [r3, #24]
    GPIO_InitStruct.Mode = GPIO_MODE_INPUT;
 8008696:	2400      	movs	r4, #0
    __HAL_RCC_USART1_CLK_ENABLE();
 8008698:	f402 4280 	and.w	r2, r2, #16384	@ 0x4000
 800869c:	9200      	str	r2, [sp, #0]
 800869e:	9a00      	ldr	r2, [sp, #0]
    __HAL_RCC_GPIOB_CLK_ENABLE();
 80086a0:	699a      	ldr	r2, [r3, #24]
 80086a2:	f042 0208 	orr.w	r2, r2, #8
 80086a6:	619a      	str	r2, [r3, #24]
 80086a8:	699b      	ldr	r3, [r3, #24]
 80086aa:	f003 0308 	and.w	r3, r3, #8
 80086ae:	9301      	str	r3, [sp, #4]
 80086b0:	9b01      	ldr	r3, [sp, #4]
    GPIO_InitStruct.Mode = GPIO_MODE_AF_PP;
 80086b2:	2302      	movs	r3, #2
 80086b4:	e9cd 1304 	strd	r1, r3, [sp, #16]
    GPIO_InitStruct.Speed = GPIO_SPEED_FREQ_HIGH;
 80086b8:	2303      	movs	r3, #3
    HAL_GPIO_Init(GPIOB, &GPIO_InitStruct);
 80086ba:	a904      	add	r1, sp, #16
    GPIO_InitStruct.Speed = GPIO_SPEED_FREQ_HIGH;
 80086bc:	9307      	str	r3, [sp, #28]
    HAL_GPIO_Init(GPIOB, &GPIO_InitStruct);
 80086be:	f000 ff6b 	bl	8009598 <HAL_GPIO_Init>
    GPIO_InitStruct.Mode = GPIO_MODE_INPUT;
 80086c2:	2380      	movs	r3, #128	@ 0x80
    HAL_GPIO_Init(GPIOB, &GPIO_InitStruct);
 80086c4:	482b      	ldr	r0, [pc, #172]	@ (8008774 <HAL_UART_MspInit+0x108>)
 80086c6:	a904      	add	r1, sp, #16
    GPIO_InitStruct.Mode = GPIO_MODE_INPUT;
 80086c8:	e9cd 3404 	strd	r3, r4, [sp, #16]
    GPIO_InitStruct.Pull = GPIO_NOPULL;
 80086cc:	9406      	str	r4, [sp, #24]
    HAL_GPIO_Init(GPIOB, &GPIO_InitStruct);
 80086ce:	f000 ff63 	bl	8009598 <HAL_GPIO_Init>
    __HAL_AFIO_REMAP_USART1_ENABLE();
 80086d2:	4a29      	ldr	r2, [pc, #164]	@ (8008778 <HAL_UART_MspInit+0x10c>)
    HAL_NVIC_SetPriority(USART1_IRQn, 0, 0);
 80086d4:	2025      	movs	r0, #37	@ 0x25
    __HAL_AFIO_REMAP_USART1_ENABLE();
 80086d6:	6853      	ldr	r3, [r2, #4]
    HAL_NVIC_SetPriority(USART1_IRQn, 0, 0);
 80086d8:	4621      	mov	r1, r4
    __HAL_AFIO_REMAP_USART1_ENABLE();
 80086da:	f043 63e0 	orr.w	r3, r3, #117440512	@ 0x7000000
 80086de:	f043 0304 	orr.w	r3, r3, #4
 80086e2:	6053      	str	r3, [r2, #4]
    HAL_NVIC_SetPriority(USART1_IRQn, 0, 0);
 80086e4:	4622      	mov	r2, r4
 80086e6:	f000 fc61 	bl	8008fac <HAL_NVIC_SetPriority>
    HAL_NVIC_EnableIRQ(USART1_IRQn);
 80086ea:	2025      	movs	r0, #37	@ 0x25
    HAL_NVIC_EnableIRQ(USART3_IRQn);
 80086ec:	f000 fc8e 	bl	800900c <HAL_NVIC_EnableIRQ>
}
 80086f0:	b008      	add	sp, #32
 80086f2:	bd10      	pop	{r4, pc}
  else if(uartHandle->Instance==USART3)
 80086f4:	4a21      	ldr	r2, [pc, #132]	@ (800877c <HAL_UART_MspInit+0x110>)
 80086f6:	4293      	cmp	r3, r2
 80086f8:	d1fa      	bne.n	80086f0 <HAL_UART_MspInit+0x84>
    __HAL_RCC_USART3_CLK_ENABLE();
 80086fa:	4b1d      	ldr	r3, [pc, #116]	@ (8008770 <HAL_UART_MspInit+0x104>)
    HAL_GPIO_Init(GPIOC, &GPIO_InitStruct);
 80086fc:	4820      	ldr	r0, [pc, #128]	@ (8008780 <HAL_UART_MspInit+0x114>)
    __HAL_RCC_USART3_CLK_ENABLE();
 80086fe:	69da      	ldr	r2, [r3, #28]
    HAL_GPIO_Init(GPIOC, &GPIO_InitStruct);
 8008700:	a904      	add	r1, sp, #16
    __HAL_RCC_USART3_CLK_ENABLE();
 8008702:	f442 2280 	orr.w	r2, r2, #262144	@ 0x40000
 8008706:	61da      	str	r2, [r3, #28]
 8008708:	69da      	ldr	r2, [r3, #28]
    GPIO_InitStruct.Mode = GPIO_MODE_INPUT;
 800870a:	2400      	movs	r4, #0
    __HAL_RCC_USART3_CLK_ENABLE();
 800870c:	f402 2280 	and.w	r2, r2, #262144	@ 0x40000
 8008710:	9202      	str	r2, [sp, #8]
 8008712:	9a02      	ldr	r2, [sp, #8]
    __HAL_RCC_GPIOC_CLK_ENABLE();
 8008714:	699a      	ldr	r2, [r3, #24]
 8008716:	f042 0210 	orr.w	r2, r2, #16
 800871a:	619a      	str	r2, [r3, #24]
 800871c:	699b      	ldr	r3, [r3, #24]
    GPIO_InitStruct.Mode = GPIO_MODE_AF_PP;
 800871e:	f44f 6280 	mov.w	r2, #1024	@ 0x400
    __HAL_RCC_GPIOC_CLK_ENABLE();
 8008722:	f003 0310 	and.w	r3, r3, #16
 8008726:	9303      	str	r3, [sp, #12]
 8008728:	9b03      	ldr	r3, [sp, #12]
    GPIO_InitStruct.Mode = GPIO_MODE_AF_PP;
 800872a:	2302      	movs	r3, #2
 800872c:	e9cd 2304 	strd	r2, r3, [sp, #16]
    GPIO_InitStruct.Speed = GPIO_SPEED_FREQ_HIGH;
 8008730:	2303      	movs	r3, #3
 8008732:	9307      	str	r3, [sp, #28]
    HAL_GPIO_Init(GPIOC, &GPIO_InitStruct);
 8008734:	f000 ff30 	bl	8009598 <HAL_GPIO_Init>
    GPIO_InitStruct.Mode = GPIO_MODE_INPUT;
 8008738:	f44f 6300 	mov.w	r3, #2048	@ 0x800
    HAL_GPIO_Init(GPIOC, &GPIO_InitStruct);
 800873c:	4810      	ldr	r0, [pc, #64]	@ (8008780 <HAL_UART_MspInit+0x114>)
 800873e:	a904      	add	r1, sp, #16
    GPIO_InitStruct.Mode = GPIO_MODE_INPUT;
 8008740:	e9cd 3404 	strd	r3, r4, [sp, #16]
    GPIO_InitStruct.Pull = GPIO_NOPULL;
 8008744:	9406      	str	r4, [sp, #24]
    HAL_GPIO_Init(GPIOC, &GPIO_InitStruct);
 8008746:	f000 ff27 	bl	8009598 <HAL_GPIO_Init>
    __HAL_AFIO_REMAP_USART3_PARTIAL();
 800874a:	4a0b      	ldr	r2, [pc, #44]	@ (8008778 <HAL_UART_MspInit+0x10c>)
    HAL_NVIC_SetPriority(USART3_IRQn, 0, 0);
 800874c:	2027      	movs	r0, #39	@ 0x27
    __HAL_AFIO_REMAP_USART3_PARTIAL();
 800874e:	6853      	ldr	r3, [r2, #4]
    HAL_NVIC_SetPriority(USART3_IRQn, 0, 0);
 8008750:	4621      	mov	r1, r4
    __HAL_AFIO_REMAP_USART3_PARTIAL();
 8008752:	f023 0330 	bic.w	r3, r3, #48	@ 0x30
 8008756:	f043 63e0 	orr.w	r3, r3, #117440512	@ 0x7000000
 800875a:	f043 0310 	orr.w	r3, r3, #16
 800875e:	6053      	str	r3, [r2, #4]
    HAL_NVIC_SetPriority(USART3_IRQn, 0, 0);
 8008760:	4622      	mov	r2, r4
 8008762:	f000 fc23 	bl	8008fac <HAL_NVIC_SetPriority>
    HAL_NVIC_EnableIRQ(USART3_IRQn);
 8008766:	2027      	movs	r0, #39	@ 0x27
 8008768:	e7c0      	b.n	80086ec <HAL_UART_MspInit+0x80>
 800876a:	bf00      	nop
 800876c:	40013800 	.word	0x40013800
 8008770:	40021000 	.word	0x40021000
 8008774:	40010c00 	.word	0x40010c00
 8008778:	40010000 	.word	0x40010000
 800877c:	40004800 	.word	0x40004800
 8008780:	40011000 	.word	0x40011000

08008784 <transmitSerial>:

void transmitSerial(void)
{
 8008784:	b508      	push	{r3, lr}
	CSMS_transmitSerial(huart1TransmitIT);         // Now CSMS is on UART3
 8008786:	4804      	ldr	r0, [pc, #16]	@ (8008798 <transmitSerial+0x14>)
 8008788:	f7fc fd46 	bl	8005218 <CSMS_transmitSerial>
	ModbusRTU_transmitSerial(huart3TransmitIT);    // Now Modbus is on UART1
}
 800878c:	e8bd 4008 	ldmia.w	sp!, {r3, lr}
	ModbusRTU_transmitSerial(huart3TransmitIT);    // Now Modbus is on UART1
 8008790:	4802      	ldr	r0, [pc, #8]	@ (800879c <transmitSerial+0x18>)
 8008792:	f7fc bb49 	b.w	8004e28 <ModbusRTU_transmitSerial>
 8008796:	bf00      	nop
 8008798:	080085c1 	.word	0x080085c1
 800879c:	0800859d 	.word	0x0800859d

080087a0 <HAL_UART_RxCpltCallback>:

void HAL_UART_RxCpltCallback(UART_HandleTypeDef *huart)
{
 80087a0:	b538      	push	{r3, r4, r5, lr}
#if SERIAL_ACTIVE
	if (huart == &huart1) // CSMS now on UART1
 80087a2:	4b18      	ldr	r3, [pc, #96]	@ (8008804 <HAL_UART_RxCpltCallback+0x64>)
{
 80087a4:	4604      	mov	r4, r0
	if (huart == &huart1) // CSMS now on UART1
 80087a6:	4298      	cmp	r0, r3
 80087a8:	d11a      	bne.n	80087e0 <HAL_UART_RxCpltCallback+0x40>
	{
		serialRxPort1 = huart->Instance->DR;
 80087aa:	6803      	ldr	r3, [r0, #0]
 80087ac:	4d16      	ldr	r5, [pc, #88]	@ (8008808 <HAL_UART_RxCpltCallback+0x68>)
 80087ae:	685b      	ldr	r3, [r3, #4]

		CSMS_receiveSerial((char*) &serialRxPort1);
 80087b0:	4628      	mov	r0, r5
		serialRxPort1 = huart->Instance->DR;
 80087b2:	b2db      	uxtb	r3, r3
 80087b4:	702b      	strb	r3, [r5, #0]
		CSMS_receiveSerial((char*) &serialRxPort1);
 80087b6:	f7fc fd59 	bl	800526c <CSMS_receiveSerial>

		if(HAL_UART_Receive_IT(&huart1, (uint8_t*) &serialRxPort1, 1)!=HAL_OK)
 80087ba:	2201      	movs	r2, #1
 80087bc:	4629      	mov	r1, r5
 80087be:	4620      	mov	r0, r4
 80087c0:	f002 fb35 	bl	800ae2e <HAL_UART_Receive_IT>
 80087c4:	b138      	cbz	r0, 80087d6 <HAL_UART_RxCpltCallback+0x36>
		{
			HAL_UART_AbortReceive_IT(&huart1);
 80087c6:	4620      	mov	r0, r4
 80087c8:	f002 f90e 	bl	800a9e8 <HAL_UART_AbortReceive_IT>
			HAL_UART_Receive_IT(&huart1, (uint8_t*) &serialRxPort1, 1);
 80087cc:	2201      	movs	r2, #1
 80087ce:	4629      	mov	r1, r5
 80087d0:	4620      	mov	r0, r4
 80087d2:	f002 fb2c 	bl	800ae2e <HAL_UART_Receive_IT>
		}
		//HAL_UART_Receive_IT(&huart3, (uint8_t*) &serialRxPort1, 1);
		serialPort1RxCount++;
 80087d6:	4a0d      	ldr	r2, [pc, #52]	@ (800880c <HAL_UART_RxCpltCallback+0x6c>)
     {
		serialRxPort2 = huart->Instance->DR;

		ModbusRTU_receiveSerial((char*) &serialRxPort2);
		HAL_UART_Receive_IT(&huart3, (uint8_t*) &serialRxPort2, 1);
		serialPort2RxCount++;
 80087d8:	6813      	ldr	r3, [r2, #0]
 80087da:	3301      	adds	r3, #1
 80087dc:	6013      	str	r3, [r2, #0]

	}
}
 80087de:	bd38      	pop	{r3, r4, r5, pc}
	if (huart == &huart3) // Modbus now on UART3
 80087e0:	4b0b      	ldr	r3, [pc, #44]	@ (8008810 <HAL_UART_RxCpltCallback+0x70>)
 80087e2:	4298      	cmp	r0, r3
 80087e4:	d1fb      	bne.n	80087de <HAL_UART_RxCpltCallback+0x3e>
		serialRxPort2 = huart->Instance->DR;
 80087e6:	6803      	ldr	r3, [r0, #0]
 80087e8:	4d0a      	ldr	r5, [pc, #40]	@ (8008814 <HAL_UART_RxCpltCallback+0x74>)
 80087ea:	685b      	ldr	r3, [r3, #4]
		ModbusRTU_receiveSerial((char*) &serialRxPort2);
 80087ec:	4628      	mov	r0, r5
		serialRxPort2 = huart->Instance->DR;
 80087ee:	b2db      	uxtb	r3, r3
 80087f0:	702b      	strb	r3, [r5, #0]
		ModbusRTU_receiveSerial((char*) &serialRxPort2);
 80087f2:	f7fc fb7b 	bl	8004eec <ModbusRTU_receiveSerial>
		HAL_UART_Receive_IT(&huart3, (uint8_t*) &serialRxPort2, 1);
 80087f6:	2201      	movs	r2, #1
 80087f8:	4629      	mov	r1, r5
 80087fa:	4620      	mov	r0, r4
 80087fc:	f002 fb17 	bl	800ae2e <HAL_UART_Receive_IT>
		serialPort2RxCount++;
 8008800:	4a05      	ldr	r2, [pc, #20]	@ (8008818 <HAL_UART_RxCpltCallback+0x78>)
 8008802:	e7e9      	b.n	80087d8 <HAL_UART_RxCpltCallback+0x38>
 8008804:	200016bc 	.word	0x200016bc
 8008808:	20001718 	.word	0x20001718
 800880c:	20001710 	.word	0x20001710
 8008810:	20001674 	.word	0x20001674
 8008814:	2000170c 	.word	0x2000170c
 8008818:	20001704 	.word	0x20001704

0800881c <HAL_UART_TxCpltCallback>:
{
	if (huart == &huart1) // Modbus is now on UART1
	{
		// You can add Modbus transmission complete logic here if needed
	}
}
 800881c:	4770      	bx	lr
	...

08008820 <HAL_UART_ErrorCallback>:

void HAL_UART_ErrorCallback(UART_HandleTypeDef *huart)
{
	if (huart == &huart1)
 8008820:	4b10      	ldr	r3, [pc, #64]	@ (8008864 <HAL_UART_ErrorCallback+0x44>)
{
 8008822:	b084      	sub	sp, #16
	if (huart == &huart1)
 8008824:	4298      	cmp	r0, r3
 8008826:	d11a      	bne.n	800885e <HAL_UART_ErrorCallback+0x3e>
	    {
	        // Clear errors and restart
	        __HAL_UART_CLEAR_OREFLAG(huart);
 8008828:	2200      	movs	r2, #0
 800882a:	6803      	ldr	r3, [r0, #0]
 800882c:	9201      	str	r2, [sp, #4]
 800882e:	6819      	ldr	r1, [r3, #0]
 8008830:	9101      	str	r1, [sp, #4]
 8008832:	6859      	ldr	r1, [r3, #4]
 8008834:	9101      	str	r1, [sp, #4]
 8008836:	9901      	ldr	r1, [sp, #4]
	        __HAL_UART_CLEAR_NEFLAG(huart);
 8008838:	9202      	str	r2, [sp, #8]
 800883a:	6819      	ldr	r1, [r3, #0]
 800883c:	9102      	str	r1, [sp, #8]
 800883e:	6859      	ldr	r1, [r3, #4]
 8008840:	9102      	str	r1, [sp, #8]
 8008842:	9902      	ldr	r1, [sp, #8]
	        __HAL_UART_CLEAR_FEFLAG(huart);
 8008844:	9203      	str	r2, [sp, #12]
 8008846:	6819      	ldr	r1, [r3, #0]
 8008848:	9103      	str	r1, [sp, #12]
 800884a:	685b      	ldr	r3, [r3, #4]
	        huart->ErrorCode = HAL_UART_ERROR_NONE;
	        HAL_UART_Receive_IT(&huart3, (uint8_t*) &serialRxPort1, 1);
 800884c:	4906      	ldr	r1, [pc, #24]	@ (8008868 <HAL_UART_ErrorCallback+0x48>)
	        __HAL_UART_CLEAR_FEFLAG(huart);
 800884e:	9303      	str	r3, [sp, #12]
 8008850:	9b03      	ldr	r3, [sp, #12]
	        huart->ErrorCode = HAL_UART_ERROR_NONE;
 8008852:	6442      	str	r2, [r0, #68]	@ 0x44
	        HAL_UART_Receive_IT(&huart3, (uint8_t*) &serialRxPort1, 1);
 8008854:	2201      	movs	r2, #1
 8008856:	4805      	ldr	r0, [pc, #20]	@ (800886c <HAL_UART_ErrorCallback+0x4c>)
	    }
}
 8008858:	b004      	add	sp, #16
	        HAL_UART_Receive_IT(&huart3, (uint8_t*) &serialRxPort1, 1);
 800885a:	f002 bae8 	b.w	800ae2e <HAL_UART_Receive_IT>
}
 800885e:	b004      	add	sp, #16
 8008860:	4770      	bx	lr
 8008862:	bf00      	nop
 8008864:	200016bc 	.word	0x200016bc
 8008868:	20001718 	.word	0x20001718
 800886c:	20001674 	.word	0x20001674

08008870 <Reset_Handler>:
  .weak Reset_Handler
  .type Reset_Handler, %function
Reset_Handler:

/* Call the clock system initialization function.*/
    bl  SystemInit
 8008870:	f7ff fc9c 	bl	80081ac <SystemInit>

/* Copy the data segment initializers from flash to SRAM */
  ldr r0, =_sdata
 8008874:	480b      	ldr	r0, [pc, #44]	@ (80088a4 <LoopFillZerobss+0xe>)
  ldr r1, =_edata
 8008876:	490c      	ldr	r1, [pc, #48]	@ (80088a8 <LoopFillZerobss+0x12>)
  ldr r2, =_sidata
 8008878:	4a0c      	ldr	r2, [pc, #48]	@ (80088ac <LoopFillZerobss+0x16>)
  movs r3, #0
 800887a:	2300      	movs	r3, #0
  b LoopCopyDataInit
 800887c:	e002      	b.n	8008884 <LoopCopyDataInit>

0800887e <CopyDataInit>:

CopyDataInit:
  ldr r4, [r2, r3]
 800887e:	58d4      	ldr	r4, [r2, r3]
  str r4, [r0, r3]
 8008880:	50c4      	str	r4, [r0, r3]
  adds r3, r3, #4
 8008882:	3304      	adds	r3, #4

08008884 <LoopCopyDataInit>:

LoopCopyDataInit:
  adds r4, r0, r3
 8008884:	18c4      	adds	r4, r0, r3
  cmp r4, r1
 8008886:	428c      	cmp	r4, r1
  bcc CopyDataInit
 8008888:	d3f9      	bcc.n	800887e <CopyDataInit>
  
/* Zero fill the bss segment. */
  ldr r2, =_sbss
 800888a:	4a09      	ldr	r2, [pc, #36]	@ (80088b0 <LoopFillZerobss+0x1a>)
  ldr r4, =_ebss
 800888c:	4c09      	ldr	r4, [pc, #36]	@ (80088b4 <LoopFillZerobss+0x1e>)
  movs r3, #0
 800888e:	2300      	movs	r3, #0
  b LoopFillZerobss
 8008890:	e001      	b.n	8008896 <LoopFillZerobss>

08008892 <FillZerobss>:

FillZerobss:
  str  r3, [r2]
 8008892:	6013      	str	r3, [r2, #0]
  adds r2, r2, #4
 8008894:	3204      	adds	r2, #4

08008896 <LoopFillZerobss>:

LoopFillZerobss:
  cmp r2, r4
 8008896:	42a2      	cmp	r2, r4
  bcc FillZerobss
 8008898:	d3fb      	bcc.n	8008892 <FillZerobss>

/* Call static constructors */
    bl __libc_init_array
 800889a:	f002 fd25 	bl	800b2e8 <__libc_init_array>
/* Call the application's entry point.*/
  bl main
 800889e:	f7fe f8d7 	bl	8006a50 <main>
  bx lr
 80088a2:	4770      	bx	lr
  ldr r0, =_sdata
 80088a4:	20000000 	.word	0x20000000
  ldr r1, =_edata
 80088a8:	20000070 	.word	0x20000070
  ldr r2, =_sidata
 80088ac:	0800bc04 	.word	0x0800bc04
  ldr r2, =_sbss
 80088b0:	20000070 	.word	0x20000070
  ldr r4, =_ebss
 80088b4:	2000188c 	.word	0x2000188c

080088b8 <CAN1_RX1_IRQHandler>:
 * @retval : None
*/
    .section .text.Default_Handler,"ax",%progbits
Default_Handler:
Infinite_Loop:
  b Infinite_Loop
 80088b8:	e7fe      	b.n	80088b8 <CAN1_RX1_IRQHandler>
	...

080088bc <HAL_InitTick>:
  *       implementation  in user file.
  * @param TickPriority Tick interrupt priority.
  * @retval HAL status
  */
__weak HAL_StatusTypeDef HAL_InitTick(uint32_t TickPriority)
{
 80088bc:	b538      	push	{r3, r4, r5, lr}
  /* Configure the SysTick to have interrupt in 1ms time basis*/
  if (HAL_SYSTICK_Config(SystemCoreClock / (1000U / uwTickFreq)) > 0U)
 80088be:	4b0e      	ldr	r3, [pc, #56]	@ (80088f8 <HAL_InitTick+0x3c>)
{
 80088c0:	4605      	mov	r5, r0
  if (HAL_SYSTICK_Config(SystemCoreClock / (1000U / uwTickFreq)) > 0U)
 80088c2:	781a      	ldrb	r2, [r3, #0]
 80088c4:	f44f 737a 	mov.w	r3, #1000	@ 0x3e8
 80088c8:	fbb3 f3f2 	udiv	r3, r3, r2
 80088cc:	4a0b      	ldr	r2, [pc, #44]	@ (80088fc <HAL_InitTick+0x40>)
 80088ce:	6810      	ldr	r0, [r2, #0]
 80088d0:	fbb0 f0f3 	udiv	r0, r0, r3
 80088d4:	f000 fbba 	bl	800904c <HAL_SYSTICK_Config>
 80088d8:	4604      	mov	r4, r0
 80088da:	b958      	cbnz	r0, 80088f4 <HAL_InitTick+0x38>
  {
    return HAL_ERROR;
  }

  /* Configure the SysTick IRQ priority */
  if (TickPriority < (1UL << __NVIC_PRIO_BITS))
 80088dc:	2d0f      	cmp	r5, #15
 80088de:	d809      	bhi.n	80088f4 <HAL_InitTick+0x38>
  {
    HAL_NVIC_SetPriority(SysTick_IRQn, TickPriority, 0U);
 80088e0:	4602      	mov	r2, r0
 80088e2:	4629      	mov	r1, r5
 80088e4:	f04f 30ff 	mov.w	r0, #4294967295
 80088e8:	f000 fb60 	bl	8008fac <HAL_NVIC_SetPriority>
    uwTickPrio = TickPriority;
 80088ec:	4620      	mov	r0, r4
 80088ee:	4b04      	ldr	r3, [pc, #16]	@ (8008900 <HAL_InitTick+0x44>)
 80088f0:	601d      	str	r5, [r3, #0]
    return HAL_ERROR;
  }

  /* Return function status */
  return HAL_OK;
}
 80088f2:	bd38      	pop	{r3, r4, r5, pc}
    return HAL_ERROR;
 80088f4:	2001      	movs	r0, #1
 80088f6:	e7fc      	b.n	80088f2 <HAL_InitTick+0x36>
 80088f8:	2000000c 	.word	0x2000000c
 80088fc:	20000008 	.word	0x20000008
 8008900:	20000010 	.word	0x20000010

08008904 <HAL_Init>:
  __HAL_FLASH_PREFETCH_BUFFER_ENABLE();
 8008904:	4a07      	ldr	r2, [pc, #28]	@ (8008924 <HAL_Init+0x20>)
{
 8008906:	b508      	push	{r3, lr}
  __HAL_FLASH_PREFETCH_BUFFER_ENABLE();
 8008908:	6813      	ldr	r3, [r2, #0]
  HAL_NVIC_SetPriorityGrouping(NVIC_PRIORITYGROUP_4);
 800890a:	2003      	movs	r0, #3
  __HAL_FLASH_PREFETCH_BUFFER_ENABLE();
 800890c:	f043 0310 	orr.w	r3, r3, #16
 8008910:	6013      	str	r3, [r2, #0]
  HAL_NVIC_SetPriorityGrouping(NVIC_PRIORITYGROUP_4);
 8008912:	f000 fb39 	bl	8008f88 <HAL_NVIC_SetPriorityGrouping>
  HAL_InitTick(TICK_INT_PRIORITY);
 8008916:	200f      	movs	r0, #15
 8008918:	f7ff ffd0 	bl	80088bc <HAL_InitTick>
  HAL_MspInit();
 800891c:	f7ff fbb4 	bl	8008088 <HAL_MspInit>
}
 8008920:	2000      	movs	r0, #0
 8008922:	bd08      	pop	{r3, pc}
 8008924:	40022000 	.word	0x40022000

08008928 <HAL_IncTick>:
  *      implementations in user file.
  * @retval None
  */
__weak void HAL_IncTick(void)
{
  uwTick += uwTickFreq;
 8008928:	4a03      	ldr	r2, [pc, #12]	@ (8008938 <HAL_IncTick+0x10>)
 800892a:	4b04      	ldr	r3, [pc, #16]	@ (800893c <HAL_IncTick+0x14>)
 800892c:	6811      	ldr	r1, [r2, #0]
 800892e:	781b      	ldrb	r3, [r3, #0]
 8008930:	440b      	add	r3, r1
 8008932:	6013      	str	r3, [r2, #0]
}
 8008934:	4770      	bx	lr
 8008936:	bf00      	nop
 8008938:	2000171c 	.word	0x2000171c
 800893c:	2000000c 	.word	0x2000000c

08008940 <HAL_GetTick>:
  *       implementations in user file.
  * @retval tick value
  */
__weak uint32_t HAL_GetTick(void)
{
  return uwTick;
 8008940:	4b01      	ldr	r3, [pc, #4]	@ (8008948 <HAL_GetTick+0x8>)
 8008942:	6818      	ldr	r0, [r3, #0]
}
 8008944:	4770      	bx	lr
 8008946:	bf00      	nop
 8008948:	2000171c 	.word	0x2000171c

0800894c <HAL_Delay>:
  *       implementations in user file.
  * @param Delay specifies the delay time length, in milliseconds.
  * @retval None
  */
__weak void HAL_Delay(uint32_t Delay)
{
 800894c:	b538      	push	{r3, r4, r5, lr}
 800894e:	4604      	mov	r4, r0
  uint32_t tickstart = HAL_GetTick();
 8008950:	f7ff fff6 	bl	8008940 <HAL_GetTick>
 8008954:	4605      	mov	r5, r0
  uint32_t wait = Delay;

  /* Add a freq to guarantee minimum wait */
  if (wait < HAL_MAX_DELAY)
 8008956:	1c63      	adds	r3, r4, #1
  {
    wait += (uint32_t)(uwTickFreq);
 8008958:	bf1e      	ittt	ne
 800895a:	4b04      	ldrne	r3, [pc, #16]	@ (800896c <HAL_Delay+0x20>)
 800895c:	781b      	ldrbne	r3, [r3, #0]
 800895e:	18e4      	addne	r4, r4, r3
  }

  while ((HAL_GetTick() - tickstart) < wait)
 8008960:	f7ff ffee 	bl	8008940 <HAL_GetTick>
 8008964:	1b43      	subs	r3, r0, r5
 8008966:	42a3      	cmp	r3, r4
 8008968:	d3fa      	bcc.n	8008960 <HAL_Delay+0x14>
  {
  }
}
 800896a:	bd38      	pop	{r3, r4, r5, pc}
 800896c:	2000000c 	.word	0x2000000c

08008970 <ADC_DMAConvCplt>:
  * @retval None
  */
void ADC_DMAConvCplt(DMA_HandleTypeDef *hdma)
{
  /* Retrieve ADC handle corresponding to current DMA handle */
  ADC_HandleTypeDef* hadc = ( ADC_HandleTypeDef* )((DMA_HandleTypeDef* )hdma)->Parent;
 8008970:	6a43      	ldr	r3, [r0, #36]	@ 0x24
{
 8008972:	b510      	push	{r4, lr}
 
  /* Update state machine on conversion status if not in error state */
  if (HAL_IS_BIT_CLR(hadc->State, HAL_ADC_STATE_ERROR_INTERNAL | HAL_ADC_STATE_ERROR_DMA))
 8008974:	6a9a      	ldr	r2, [r3, #40]	@ 0x28
 8008976:	f012 0f50 	tst.w	r2, #80	@ 0x50
 800897a:	d11b      	bne.n	80089b4 <ADC_DMAConvCplt+0x44>
  {
    /* Update ADC state machine */
    SET_BIT(hadc->State, HAL_ADC_STATE_REG_EOC);
 800897c:	6a9a      	ldr	r2, [r3, #40]	@ 0x28
 800897e:	f442 7200 	orr.w	r2, r2, #512	@ 0x200
 8008982:	629a      	str	r2, [r3, #40]	@ 0x28
    /* Determine whether any further conversion upcoming on group regular     */
    /* by external trigger, continuous mode or scan sequence on going.        */
    /* Note: On STM32F1 devices, in case of sequencer enabled                 */
    /*       (several ranks selected), end of conversion flag is raised       */
    /*       at the end of the sequence.                                      */
    if(ADC_IS_SOFTWARE_START_REGULAR(hadc)        && 
 8008984:	681a      	ldr	r2, [r3, #0]
 8008986:	6892      	ldr	r2, [r2, #8]
 8008988:	f402 2260 	and.w	r2, r2, #917504	@ 0xe0000
 800898c:	f5b2 2f60 	cmp.w	r2, #917504	@ 0xe0000
 8008990:	d10c      	bne.n	80089ac <ADC_DMAConvCplt+0x3c>
 8008992:	7b1a      	ldrb	r2, [r3, #12]
 8008994:	b952      	cbnz	r2, 80089ac <ADC_DMAConvCplt+0x3c>
       (hadc->Init.ContinuousConvMode == DISABLE)   )
    {
      /* Set ADC state */
      CLEAR_BIT(hadc->State, HAL_ADC_STATE_REG_BUSY);   
 8008996:	6a9a      	ldr	r2, [r3, #40]	@ 0x28
 8008998:	f422 7280 	bic.w	r2, r2, #256	@ 0x100
 800899c:	629a      	str	r2, [r3, #40]	@ 0x28
      
      if (HAL_IS_BIT_CLR(hadc->State, HAL_ADC_STATE_INJ_BUSY))
 800899e:	6a9a      	ldr	r2, [r3, #40]	@ 0x28
 80089a0:	04d2      	lsls	r2, r2, #19
      {
        SET_BIT(hadc->State, HAL_ADC_STATE_READY);
 80089a2:	bf5e      	ittt	pl
 80089a4:	6a9a      	ldrpl	r2, [r3, #40]	@ 0x28
 80089a6:	f042 0201 	orrpl.w	r2, r2, #1
 80089aa:	629a      	strpl	r2, [r3, #40]	@ 0x28
    
    /* Conversion complete callback */
#if (USE_HAL_ADC_REGISTER_CALLBACKS == 1)
    hadc->ConvCpltCallback(hadc);
#else
    HAL_ADC_ConvCpltCallback(hadc);
 80089ac:	4618      	mov	r0, r3
 80089ae:	f7fd f8ff 	bl	8005bb0 <HAL_ADC_ConvCpltCallback>
  else
  {
    /* Call DMA error callback */
    hadc->DMA_Handle->XferErrorCallback(hdma);
  }
}
 80089b2:	bd10      	pop	{r4, pc}
    hadc->DMA_Handle->XferErrorCallback(hdma);
 80089b4:	6a1b      	ldr	r3, [r3, #32]
}
 80089b6:	e8bd 4010 	ldmia.w	sp!, {r4, lr}
    hadc->DMA_Handle->XferErrorCallback(hdma);
 80089ba:	6b1b      	ldr	r3, [r3, #48]	@ 0x30
 80089bc:	4718      	bx	r3

080089be <HAL_ADC_ConvHalfCpltCallback>:
__weak void HAL_ADC_ConvHalfCpltCallback(ADC_HandleTypeDef* hadc)
 80089be:	4770      	bx	lr

080089c0 <ADC_DMAHalfConvCplt>:
  * @brief  DMA half transfer complete callback. 
  * @param  hdma: pointer to DMA handle.
  * @retval None
  */
void ADC_DMAHalfConvCplt(DMA_HandleTypeDef *hdma)   
{
 80089c0:	b508      	push	{r3, lr}
  
  /* Half conversion callback */
#if (USE_HAL_ADC_REGISTER_CALLBACKS == 1)
    hadc->ConvHalfCpltCallback(hadc);
#else
  HAL_ADC_ConvHalfCpltCallback(hadc);
 80089c2:	6a40      	ldr	r0, [r0, #36]	@ 0x24
 80089c4:	f7ff fffb 	bl	80089be <HAL_ADC_ConvHalfCpltCallback>
#endif /* USE_HAL_ADC_REGISTER_CALLBACKS */
}
 80089c8:	bd08      	pop	{r3, pc}

080089ca <HAL_ADC_LevelOutOfWindowCallback>:
__weak void HAL_ADC_LevelOutOfWindowCallback(ADC_HandleTypeDef* hadc)
 80089ca:	4770      	bx	lr

080089cc <HAL_ADC_IRQHandler>:
  uint32_t tmp_sr = hadc->Instance->SR;
 80089cc:	6803      	ldr	r3, [r0, #0]
{
 80089ce:	b570      	push	{r4, r5, r6, lr}
  uint32_t tmp_sr = hadc->Instance->SR;
 80089d0:	681d      	ldr	r5, [r3, #0]
  uint32_t tmp_cr1 = hadc->Instance->CR1;
 80089d2:	685e      	ldr	r6, [r3, #4]
{
 80089d4:	4604      	mov	r4, r0
  if((tmp_cr1 & ADC_IT_EOC) == ADC_IT_EOC)
 80089d6:	06b0      	lsls	r0, r6, #26
 80089d8:	d526      	bpl.n	8008a28 <HAL_ADC_IRQHandler+0x5c>
    if((tmp_sr & ADC_FLAG_EOC) == ADC_FLAG_EOC)
 80089da:	07a9      	lsls	r1, r5, #30
 80089dc:	d524      	bpl.n	8008a28 <HAL_ADC_IRQHandler+0x5c>
      if (HAL_IS_BIT_CLR(hadc->State, HAL_ADC_STATE_ERROR_INTERNAL))
 80089de:	6aa2      	ldr	r2, [r4, #40]	@ 0x28
 80089e0:	06d2      	lsls	r2, r2, #27
        SET_BIT(hadc->State, HAL_ADC_STATE_REG_EOC); 
 80089e2:	bf5e      	ittt	pl
 80089e4:	6aa2      	ldrpl	r2, [r4, #40]	@ 0x28
 80089e6:	f442 7200 	orrpl.w	r2, r2, #512	@ 0x200
 80089ea:	62a2      	strpl	r2, [r4, #40]	@ 0x28
      if(ADC_IS_SOFTWARE_START_REGULAR(hadc)        && 
 80089ec:	689a      	ldr	r2, [r3, #8]
 80089ee:	f402 2260 	and.w	r2, r2, #917504	@ 0xe0000
 80089f2:	f5b2 2f60 	cmp.w	r2, #917504	@ 0xe0000
 80089f6:	d110      	bne.n	8008a1a <HAL_ADC_IRQHandler+0x4e>
 80089f8:	7b22      	ldrb	r2, [r4, #12]
 80089fa:	b972      	cbnz	r2, 8008a1a <HAL_ADC_IRQHandler+0x4e>
        __HAL_ADC_DISABLE_IT(hadc, ADC_IT_EOC);
 80089fc:	685a      	ldr	r2, [r3, #4]
 80089fe:	f022 0220 	bic.w	r2, r2, #32
 8008a02:	605a      	str	r2, [r3, #4]
        CLEAR_BIT(hadc->State, HAL_ADC_STATE_REG_BUSY);   
 8008a04:	6aa3      	ldr	r3, [r4, #40]	@ 0x28
 8008a06:	f423 7380 	bic.w	r3, r3, #256	@ 0x100
 8008a0a:	62a3      	str	r3, [r4, #40]	@ 0x28
        if (HAL_IS_BIT_CLR(hadc->State, HAL_ADC_STATE_INJ_BUSY))
 8008a0c:	6aa3      	ldr	r3, [r4, #40]	@ 0x28
 8008a0e:	04d8      	lsls	r0, r3, #19
          SET_BIT(hadc->State, HAL_ADC_STATE_READY);
 8008a10:	bf5e      	ittt	pl
 8008a12:	6aa3      	ldrpl	r3, [r4, #40]	@ 0x28
 8008a14:	f043 0301 	orrpl.w	r3, r3, #1
 8008a18:	62a3      	strpl	r3, [r4, #40]	@ 0x28
      HAL_ADC_ConvCpltCallback(hadc);
 8008a1a:	4620      	mov	r0, r4
 8008a1c:	f7fd f8c8 	bl	8005bb0 <HAL_ADC_ConvCpltCallback>
      __HAL_ADC_CLEAR_FLAG(hadc, ADC_FLAG_STRT | ADC_FLAG_EOC);
 8008a20:	f06f 0212 	mvn.w	r2, #18
 8008a24:	6823      	ldr	r3, [r4, #0]
 8008a26:	601a      	str	r2, [r3, #0]
  if((tmp_cr1 & ADC_IT_JEOC) == ADC_IT_JEOC)
 8008a28:	0631      	lsls	r1, r6, #24
 8008a2a:	d530      	bpl.n	8008a8e <HAL_ADC_IRQHandler+0xc2>
    if((tmp_sr & ADC_FLAG_JEOC) == ADC_FLAG_JEOC)
 8008a2c:	076a      	lsls	r2, r5, #29
 8008a2e:	d52e      	bpl.n	8008a8e <HAL_ADC_IRQHandler+0xc2>
      if (HAL_IS_BIT_CLR(hadc->State, HAL_ADC_STATE_ERROR_INTERNAL))
 8008a30:	6aa3      	ldr	r3, [r4, #40]	@ 0x28
 8008a32:	06db      	lsls	r3, r3, #27
        SET_BIT(hadc->State, HAL_ADC_STATE_INJ_EOC);
 8008a34:	bf5e      	ittt	pl
 8008a36:	6aa3      	ldrpl	r3, [r4, #40]	@ 0x28
 8008a38:	f443 5300 	orrpl.w	r3, r3, #8192	@ 0x2000
 8008a3c:	62a3      	strpl	r3, [r4, #40]	@ 0x28
      if(ADC_IS_SOFTWARE_START_INJECTED(hadc)                     || 
 8008a3e:	6823      	ldr	r3, [r4, #0]
 8008a40:	689a      	ldr	r2, [r3, #8]
 8008a42:	f402 42e0 	and.w	r2, r2, #28672	@ 0x7000
 8008a46:	f5b2 4fe0 	cmp.w	r2, #28672	@ 0x7000
 8008a4a:	d00a      	beq.n	8008a62 <HAL_ADC_IRQHandler+0x96>
         (HAL_IS_BIT_CLR(hadc->Instance->CR1, ADC_CR1_JAUTO) &&     
 8008a4c:	685a      	ldr	r2, [r3, #4]
      if(ADC_IS_SOFTWARE_START_INJECTED(hadc)                     || 
 8008a4e:	0550      	lsls	r0, r2, #21
 8008a50:	d416      	bmi.n	8008a80 <HAL_ADC_IRQHandler+0xb4>
         (ADC_IS_SOFTWARE_START_REGULAR(hadc)        &&
 8008a52:	689a      	ldr	r2, [r3, #8]
 8008a54:	f402 2260 	and.w	r2, r2, #917504	@ 0xe0000
         (HAL_IS_BIT_CLR(hadc->Instance->CR1, ADC_CR1_JAUTO) &&     
 8008a58:	f5b2 2f60 	cmp.w	r2, #917504	@ 0xe0000
 8008a5c:	d110      	bne.n	8008a80 <HAL_ADC_IRQHandler+0xb4>
         (ADC_IS_SOFTWARE_START_REGULAR(hadc)        &&
 8008a5e:	7b22      	ldrb	r2, [r4, #12]
 8008a60:	b972      	cbnz	r2, 8008a80 <HAL_ADC_IRQHandler+0xb4>
        __HAL_ADC_DISABLE_IT(hadc, ADC_IT_JEOC);
 8008a62:	685a      	ldr	r2, [r3, #4]
 8008a64:	f022 0280 	bic.w	r2, r2, #128	@ 0x80
 8008a68:	605a      	str	r2, [r3, #4]
        CLEAR_BIT(hadc->State, HAL_ADC_STATE_INJ_BUSY);   
 8008a6a:	6aa3      	ldr	r3, [r4, #40]	@ 0x28
 8008a6c:	f423 5380 	bic.w	r3, r3, #4096	@ 0x1000
 8008a70:	62a3      	str	r3, [r4, #40]	@ 0x28
        if (HAL_IS_BIT_CLR(hadc->State, HAL_ADC_STATE_REG_BUSY))
 8008a72:	6aa3      	ldr	r3, [r4, #40]	@ 0x28
 8008a74:	05d9      	lsls	r1, r3, #23
          SET_BIT(hadc->State, HAL_ADC_STATE_READY);
 8008a76:	bf5e      	ittt	pl
 8008a78:	6aa3      	ldrpl	r3, [r4, #40]	@ 0x28
 8008a7a:	f043 0301 	orrpl.w	r3, r3, #1
 8008a7e:	62a3      	strpl	r3, [r4, #40]	@ 0x28
      HAL_ADCEx_InjectedConvCpltCallback(hadc);
 8008a80:	4620      	mov	r0, r4
 8008a82:	f000 fa7f 	bl	8008f84 <HAL_ADCEx_InjectedConvCpltCallback>
      __HAL_ADC_CLEAR_FLAG(hadc, (ADC_FLAG_JSTRT | ADC_FLAG_JEOC));
 8008a86:	f06f 020c 	mvn.w	r2, #12
 8008a8a:	6823      	ldr	r3, [r4, #0]
 8008a8c:	601a      	str	r2, [r3, #0]
  if((tmp_cr1 & ADC_IT_AWD) == ADC_IT_AWD)
 8008a8e:	0672      	lsls	r2, r6, #25
 8008a90:	d50c      	bpl.n	8008aac <HAL_ADC_IRQHandler+0xe0>
    if((tmp_sr & ADC_FLAG_AWD) == ADC_FLAG_AWD)
 8008a92:	07eb      	lsls	r3, r5, #31
 8008a94:	d50a      	bpl.n	8008aac <HAL_ADC_IRQHandler+0xe0>
      SET_BIT(hadc->State, HAL_ADC_STATE_AWD1);
 8008a96:	6aa3      	ldr	r3, [r4, #40]	@ 0x28
      HAL_ADC_LevelOutOfWindowCallback(hadc);
 8008a98:	4620      	mov	r0, r4
      SET_BIT(hadc->State, HAL_ADC_STATE_AWD1);
 8008a9a:	f443 3380 	orr.w	r3, r3, #65536	@ 0x10000
 8008a9e:	62a3      	str	r3, [r4, #40]	@ 0x28
      HAL_ADC_LevelOutOfWindowCallback(hadc);
 8008aa0:	f7ff ff93 	bl	80089ca <HAL_ADC_LevelOutOfWindowCallback>
      __HAL_ADC_CLEAR_FLAG(hadc, ADC_FLAG_AWD);
 8008aa4:	f06f 0201 	mvn.w	r2, #1
 8008aa8:	6823      	ldr	r3, [r4, #0]
 8008aaa:	601a      	str	r2, [r3, #0]
}
 8008aac:	bd70      	pop	{r4, r5, r6, pc}

08008aae <HAL_ADC_ErrorCallback>:
__weak void HAL_ADC_ErrorCallback(ADC_HandleTypeDef *hadc)
 8008aae:	4770      	bx	lr

08008ab0 <ADC_DMAError>:
  * @retval None
  */
void ADC_DMAError(DMA_HandleTypeDef *hdma)   
{
  /* Retrieve ADC handle corresponding to current DMA handle */
  ADC_HandleTypeDef* hadc = ( ADC_HandleTypeDef* )((DMA_HandleTypeDef* )hdma)->Parent;
 8008ab0:	6a40      	ldr	r0, [r0, #36]	@ 0x24
{
 8008ab2:	b508      	push	{r3, lr}
  
  /* Set ADC state */
  SET_BIT(hadc->State, HAL_ADC_STATE_ERROR_DMA);
 8008ab4:	6a83      	ldr	r3, [r0, #40]	@ 0x28
 8008ab6:	f043 0340 	orr.w	r3, r3, #64	@ 0x40
 8008aba:	6283      	str	r3, [r0, #40]	@ 0x28
  
  /* Set ADC error code to DMA error */
  SET_BIT(hadc->ErrorCode, HAL_ADC_ERROR_DMA);
 8008abc:	6ac3      	ldr	r3, [r0, #44]	@ 0x2c
 8008abe:	f043 0304 	orr.w	r3, r3, #4
 8008ac2:	62c3      	str	r3, [r0, #44]	@ 0x2c
  
  /* Error callback */
#if (USE_HAL_ADC_REGISTER_CALLBACKS == 1)
  hadc->ErrorCallback(hadc);
#else
  HAL_ADC_ErrorCallback(hadc);
 8008ac4:	f7ff fff3 	bl	8008aae <HAL_ADC_ErrorCallback>
#endif /* USE_HAL_ADC_REGISTER_CALLBACKS */
}
 8008ac8:	bd08      	pop	{r3, pc}
	...

08008acc <HAL_ADC_ConfigChannel>:
  __IO uint32_t wait_loop_index = 0U;
 8008acc:	2300      	movs	r3, #0
{ 
 8008ace:	b573      	push	{r0, r1, r4, r5, r6, lr}
  __IO uint32_t wait_loop_index = 0U;
 8008ad0:	9301      	str	r3, [sp, #4]
  __HAL_LOCK(hadc);
 8008ad2:	f890 3024 	ldrb.w	r3, [r0, #36]	@ 0x24
{ 
 8008ad6:	4604      	mov	r4, r0
  __HAL_LOCK(hadc);
 8008ad8:	2b01      	cmp	r3, #1
 8008ada:	d06c      	beq.n	8008bb6 <HAL_ADC_ConfigChannel+0xea>
 8008adc:	2301      	movs	r3, #1
 8008ade:	f880 3024 	strb.w	r3, [r0, #36]	@ 0x24
  if (sConfig->Rank < 7U)
 8008ae2:	684d      	ldr	r5, [r1, #4]
    MODIFY_REG(hadc->Instance->SQR3                        ,
 8008ae4:	6802      	ldr	r2, [r0, #0]
  if (sConfig->Rank < 7U)
 8008ae6:	2d06      	cmp	r5, #6
    MODIFY_REG(hadc->Instance->SQR3                        ,
 8008ae8:	6808      	ldr	r0, [r1, #0]
 8008aea:	eb05 0385 	add.w	r3, r5, r5, lsl #2
  if (sConfig->Rank < 7U)
 8008aee:	d822      	bhi.n	8008b36 <HAL_ADC_ConfigChannel+0x6a>
    MODIFY_REG(hadc->Instance->SQR3                        ,
 8008af0:	261f      	movs	r6, #31
 8008af2:	6b55      	ldr	r5, [r2, #52]	@ 0x34
 8008af4:	3b05      	subs	r3, #5
 8008af6:	409e      	lsls	r6, r3
 8008af8:	ea25 0506 	bic.w	r5, r5, r6
 8008afc:	fa00 f303 	lsl.w	r3, r0, r3
 8008b00:	432b      	orrs	r3, r5
 8008b02:	6353      	str	r3, [r2, #52]	@ 0x34
  if (sConfig->Channel >= ADC_CHANNEL_10)
 8008b04:	2809      	cmp	r0, #9
    MODIFY_REG(hadc->Instance->SMPR1                             ,
 8008b06:	688b      	ldr	r3, [r1, #8]
 8008b08:	eb00 0540 	add.w	r5, r0, r0, lsl #1
 8008b0c:	f04f 0107 	mov.w	r1, #7
  if (sConfig->Channel >= ADC_CHANNEL_10)
 8008b10:	d929      	bls.n	8008b66 <HAL_ADC_ConfigChannel+0x9a>
    MODIFY_REG(hadc->Instance->SMPR1                             ,
 8008b12:	68d6      	ldr	r6, [r2, #12]
 8008b14:	3d1e      	subs	r5, #30
 8008b16:	40a9      	lsls	r1, r5
 8008b18:	ea26 0101 	bic.w	r1, r6, r1
 8008b1c:	40ab      	lsls	r3, r5
 8008b1e:	430b      	orrs	r3, r1
 8008b20:	60d3      	str	r3, [r2, #12]
  if ((sConfig->Channel == ADC_CHANNEL_TEMPSENSOR) ||
 8008b22:	f1a0 0310 	sub.w	r3, r0, #16
 8008b26:	2b01      	cmp	r3, #1
 8008b28:	d925      	bls.n	8008b76 <HAL_ADC_ConfigChannel+0xaa>
  HAL_StatusTypeDef tmp_hal_status = HAL_OK;
 8008b2a:	2000      	movs	r0, #0
  __HAL_UNLOCK(hadc);
 8008b2c:	2300      	movs	r3, #0
 8008b2e:	f884 3024 	strb.w	r3, [r4, #36]	@ 0x24
}
 8008b32:	b002      	add	sp, #8
 8008b34:	bd70      	pop	{r4, r5, r6, pc}
  else if (sConfig->Rank < 13U)
 8008b36:	2d0c      	cmp	r5, #12
 8008b38:	f04f 051f 	mov.w	r5, #31
 8008b3c:	d809      	bhi.n	8008b52 <HAL_ADC_ConfigChannel+0x86>
    MODIFY_REG(hadc->Instance->SQR2                        ,
 8008b3e:	6b16      	ldr	r6, [r2, #48]	@ 0x30
 8008b40:	3b23      	subs	r3, #35	@ 0x23
 8008b42:	409d      	lsls	r5, r3
 8008b44:	ea26 0505 	bic.w	r5, r6, r5
 8008b48:	fa00 f303 	lsl.w	r3, r0, r3
 8008b4c:	432b      	orrs	r3, r5
 8008b4e:	6313      	str	r3, [r2, #48]	@ 0x30
 8008b50:	e7d8      	b.n	8008b04 <HAL_ADC_ConfigChannel+0x38>
    MODIFY_REG(hadc->Instance->SQR1                        ,
 8008b52:	6ad6      	ldr	r6, [r2, #44]	@ 0x2c
 8008b54:	3b41      	subs	r3, #65	@ 0x41
 8008b56:	409d      	lsls	r5, r3
 8008b58:	ea26 0505 	bic.w	r5, r6, r5
 8008b5c:	fa00 f303 	lsl.w	r3, r0, r3
 8008b60:	432b      	orrs	r3, r5
 8008b62:	62d3      	str	r3, [r2, #44]	@ 0x2c
 8008b64:	e7ce      	b.n	8008b04 <HAL_ADC_ConfigChannel+0x38>
    MODIFY_REG(hadc->Instance->SMPR2                             ,
 8008b66:	6910      	ldr	r0, [r2, #16]
 8008b68:	40a9      	lsls	r1, r5
 8008b6a:	ea20 0101 	bic.w	r1, r0, r1
 8008b6e:	40ab      	lsls	r3, r5
 8008b70:	430b      	orrs	r3, r1
 8008b72:	6113      	str	r3, [r2, #16]
  if ((sConfig->Channel == ADC_CHANNEL_TEMPSENSOR) ||
 8008b74:	e7d9      	b.n	8008b2a <HAL_ADC_ConfigChannel+0x5e>
    if (hadc->Instance == ADC1)
 8008b76:	4b11      	ldr	r3, [pc, #68]	@ (8008bbc <HAL_ADC_ConfigChannel+0xf0>)
 8008b78:	429a      	cmp	r2, r3
 8008b7a:	d116      	bne.n	8008baa <HAL_ADC_ConfigChannel+0xde>
      if (READ_BIT(hadc->Instance->CR2, ADC_CR2_TSVREFE) == RESET)
 8008b7c:	6893      	ldr	r3, [r2, #8]
 8008b7e:	021b      	lsls	r3, r3, #8
 8008b80:	d4d3      	bmi.n	8008b2a <HAL_ADC_ConfigChannel+0x5e>
        SET_BIT(hadc->Instance->CR2, ADC_CR2_TSVREFE);
 8008b82:	6893      	ldr	r3, [r2, #8]
        if (sConfig->Channel == ADC_CHANNEL_TEMPSENSOR)
 8008b84:	2810      	cmp	r0, #16
        SET_BIT(hadc->Instance->CR2, ADC_CR2_TSVREFE);
 8008b86:	f443 0300 	orr.w	r3, r3, #8388608	@ 0x800000
 8008b8a:	6093      	str	r3, [r2, #8]
        if (sConfig->Channel == ADC_CHANNEL_TEMPSENSOR)
 8008b8c:	d1cd      	bne.n	8008b2a <HAL_ADC_ConfigChannel+0x5e>
          wait_loop_index = (ADC_TEMPSENSOR_DELAY_US * (SystemCoreClock / 1000000U));
 8008b8e:	4b0c      	ldr	r3, [pc, #48]	@ (8008bc0 <HAL_ADC_ConfigChannel+0xf4>)
 8008b90:	4a0c      	ldr	r2, [pc, #48]	@ (8008bc4 <HAL_ADC_ConfigChannel+0xf8>)
 8008b92:	681b      	ldr	r3, [r3, #0]
 8008b94:	fbb3 f3f2 	udiv	r3, r3, r2
 8008b98:	220a      	movs	r2, #10
 8008b9a:	4353      	muls	r3, r2
            wait_loop_index--;
 8008b9c:	9301      	str	r3, [sp, #4]
          while(wait_loop_index != 0U)
 8008b9e:	9b01      	ldr	r3, [sp, #4]
 8008ba0:	2b00      	cmp	r3, #0
 8008ba2:	d0c2      	beq.n	8008b2a <HAL_ADC_ConfigChannel+0x5e>
            wait_loop_index--;
 8008ba4:	9b01      	ldr	r3, [sp, #4]
 8008ba6:	3b01      	subs	r3, #1
 8008ba8:	e7f8      	b.n	8008b9c <HAL_ADC_ConfigChannel+0xd0>
      SET_BIT(hadc->State, HAL_ADC_STATE_ERROR_CONFIG);
 8008baa:	6aa3      	ldr	r3, [r4, #40]	@ 0x28
      tmp_hal_status = HAL_ERROR;
 8008bac:	2001      	movs	r0, #1
      SET_BIT(hadc->State, HAL_ADC_STATE_ERROR_CONFIG);
 8008bae:	f043 0320 	orr.w	r3, r3, #32
 8008bb2:	62a3      	str	r3, [r4, #40]	@ 0x28
      tmp_hal_status = HAL_ERROR;
 8008bb4:	e7ba      	b.n	8008b2c <HAL_ADC_ConfigChannel+0x60>
  __HAL_LOCK(hadc);
 8008bb6:	2002      	movs	r0, #2
 8008bb8:	e7bb      	b.n	8008b32 <HAL_ADC_ConfigChannel+0x66>
 8008bba:	bf00      	nop
 8008bbc:	40012400 	.word	0x40012400
 8008bc0:	20000008 	.word	0x20000008
 8008bc4:	000f4240 	.word	0x000f4240

08008bc8 <ADC_Enable>:
  __IO uint32_t wait_loop_index = 0U;
 8008bc8:	2300      	movs	r3, #0
{
 8008bca:	b537      	push	{r0, r1, r2, r4, r5, lr}
  __IO uint32_t wait_loop_index = 0U;
 8008bcc:	9301      	str	r3, [sp, #4]
  if (ADC_IS_ENABLE(hadc) == RESET)
 8008bce:	6803      	ldr	r3, [r0, #0]
{
 8008bd0:	4604      	mov	r4, r0
  if (ADC_IS_ENABLE(hadc) == RESET)
 8008bd2:	689a      	ldr	r2, [r3, #8]
 8008bd4:	07d2      	lsls	r2, r2, #31
 8008bd6:	d502      	bpl.n	8008bde <ADC_Enable+0x16>
  return HAL_OK;
 8008bd8:	2000      	movs	r0, #0
}
 8008bda:	b003      	add	sp, #12
 8008bdc:	bd30      	pop	{r4, r5, pc}
    __HAL_ADC_ENABLE(hadc);
 8008bde:	689a      	ldr	r2, [r3, #8]
 8008be0:	f042 0201 	orr.w	r2, r2, #1
 8008be4:	609a      	str	r2, [r3, #8]
    wait_loop_index = (ADC_STAB_DELAY_US * (SystemCoreClock / 1000000U));
 8008be6:	4b14      	ldr	r3, [pc, #80]	@ (8008c38 <ADC_Enable+0x70>)
 8008be8:	4a14      	ldr	r2, [pc, #80]	@ (8008c3c <ADC_Enable+0x74>)
 8008bea:	681b      	ldr	r3, [r3, #0]
 8008bec:	fbb3 f3f2 	udiv	r3, r3, r2
      wait_loop_index--;
 8008bf0:	9301      	str	r3, [sp, #4]
    while(wait_loop_index != 0U)
 8008bf2:	9b01      	ldr	r3, [sp, #4]
 8008bf4:	b9e3      	cbnz	r3, 8008c30 <ADC_Enable+0x68>
    tickstart = HAL_GetTick();
 8008bf6:	f7ff fea3 	bl	8008940 <HAL_GetTick>
 8008bfa:	4605      	mov	r5, r0
    while(ADC_IS_ENABLE(hadc) == RESET)
 8008bfc:	6823      	ldr	r3, [r4, #0]
 8008bfe:	689b      	ldr	r3, [r3, #8]
 8008c00:	07db      	lsls	r3, r3, #31
 8008c02:	d4e9      	bmi.n	8008bd8 <ADC_Enable+0x10>
      if((HAL_GetTick() - tickstart) > ADC_ENABLE_TIMEOUT)
 8008c04:	f7ff fe9c 	bl	8008940 <HAL_GetTick>
 8008c08:	1b40      	subs	r0, r0, r5
 8008c0a:	2802      	cmp	r0, #2
 8008c0c:	d9f6      	bls.n	8008bfc <ADC_Enable+0x34>
        if(ADC_IS_ENABLE(hadc) == RESET)
 8008c0e:	6823      	ldr	r3, [r4, #0]
 8008c10:	689b      	ldr	r3, [r3, #8]
 8008c12:	f013 0301 	ands.w	r3, r3, #1
 8008c16:	d1f1      	bne.n	8008bfc <ADC_Enable+0x34>
          SET_BIT(hadc->State, HAL_ADC_STATE_ERROR_INTERNAL);
 8008c18:	6aa2      	ldr	r2, [r4, #40]	@ 0x28
          return HAL_ERROR;
 8008c1a:	2001      	movs	r0, #1
          SET_BIT(hadc->State, HAL_ADC_STATE_ERROR_INTERNAL);
 8008c1c:	f042 0210 	orr.w	r2, r2, #16
 8008c20:	62a2      	str	r2, [r4, #40]	@ 0x28
          SET_BIT(hadc->ErrorCode, HAL_ADC_ERROR_INTERNAL);
 8008c22:	6ae2      	ldr	r2, [r4, #44]	@ 0x2c
          __HAL_UNLOCK(hadc);
 8008c24:	f884 3024 	strb.w	r3, [r4, #36]	@ 0x24
          SET_BIT(hadc->ErrorCode, HAL_ADC_ERROR_INTERNAL);
 8008c28:	f042 0201 	orr.w	r2, r2, #1
 8008c2c:	62e2      	str	r2, [r4, #44]	@ 0x2c
          return HAL_ERROR;
 8008c2e:	e7d4      	b.n	8008bda <ADC_Enable+0x12>
      wait_loop_index--;
 8008c30:	9b01      	ldr	r3, [sp, #4]
 8008c32:	3b01      	subs	r3, #1
 8008c34:	e7dc      	b.n	8008bf0 <ADC_Enable+0x28>
 8008c36:	bf00      	nop
 8008c38:	20000008 	.word	0x20000008
 8008c3c:	000f4240 	.word	0x000f4240

08008c40 <HAL_ADC_Start_DMA>:
{
 8008c40:	e92d 41f0 	stmdb	sp!, {r4, r5, r6, r7, r8, lr}
  if(ADC_MULTIMODE_IS_ENABLE(hadc) == RESET)
 8008c44:	4b40      	ldr	r3, [pc, #256]	@ (8008d48 <HAL_ADC_Start_DMA+0x108>)
{
 8008c46:	4690      	mov	r8, r2
  if(ADC_MULTIMODE_IS_ENABLE(hadc) == RESET)
 8008c48:	6802      	ldr	r2, [r0, #0]
{
 8008c4a:	4604      	mov	r4, r0
  if(ADC_MULTIMODE_IS_ENABLE(hadc) == RESET)
 8008c4c:	429a      	cmp	r2, r3
{
 8008c4e:	460f      	mov	r7, r1
  if(ADC_MULTIMODE_IS_ENABLE(hadc) == RESET)
 8008c50:	d002      	beq.n	8008c58 <HAL_ADC_Start_DMA+0x18>
 8008c52:	493e      	ldr	r1, [pc, #248]	@ (8008d4c <HAL_ADC_Start_DMA+0x10c>)
 8008c54:	428a      	cmp	r2, r1
 8008c56:	d103      	bne.n	8008c60 <HAL_ADC_Start_DMA+0x20>
 8008c58:	685b      	ldr	r3, [r3, #4]
 8008c5a:	f413 2f70 	tst.w	r3, #983040	@ 0xf0000
 8008c5e:	d16e      	bne.n	8008d3e <HAL_ADC_Start_DMA+0xfe>
    __HAL_LOCK(hadc);
 8008c60:	f894 3024 	ldrb.w	r3, [r4, #36]	@ 0x24
 8008c64:	2b01      	cmp	r3, #1
 8008c66:	d06c      	beq.n	8008d42 <HAL_ADC_Start_DMA+0x102>
 8008c68:	2301      	movs	r3, #1
    tmp_hal_status = ADC_Enable(hadc);
 8008c6a:	4620      	mov	r0, r4
    __HAL_LOCK(hadc);
 8008c6c:	f884 3024 	strb.w	r3, [r4, #36]	@ 0x24
    tmp_hal_status = ADC_Enable(hadc);
 8008c70:	f7ff ffaa 	bl	8008bc8 <ADC_Enable>
    if (tmp_hal_status == HAL_OK)
 8008c74:	4606      	mov	r6, r0
 8008c76:	2800      	cmp	r0, #0
 8008c78:	d15d      	bne.n	8008d36 <HAL_ADC_Start_DMA+0xf6>
      ADC_STATE_CLR_SET(hadc->State,
 8008c7a:	6aa5      	ldr	r5, [r4, #40]	@ 0x28
    if (ADC_NONMULTIMODE_OR_MULTIMODEMASTER(hadc))
 8008c7c:	6821      	ldr	r1, [r4, #0]
 8008c7e:	4b33      	ldr	r3, [pc, #204]	@ (8008d4c <HAL_ADC_Start_DMA+0x10c>)
      ADC_STATE_CLR_SET(hadc->State,
 8008c80:	f425 6570 	bic.w	r5, r5, #3840	@ 0xf00
 8008c84:	f025 0501 	bic.w	r5, r5, #1
 8008c88:	f445 7580 	orr.w	r5, r5, #256	@ 0x100
    if (ADC_NONMULTIMODE_OR_MULTIMODEMASTER(hadc))
 8008c8c:	4299      	cmp	r1, r3
      ADC_STATE_CLR_SET(hadc->State,
 8008c8e:	62a5      	str	r5, [r4, #40]	@ 0x28
    if (ADC_NONMULTIMODE_OR_MULTIMODEMASTER(hadc))
 8008c90:	d104      	bne.n	8008c9c <HAL_ADC_Start_DMA+0x5c>
 8008c92:	4a2d      	ldr	r2, [pc, #180]	@ (8008d48 <HAL_ADC_Start_DMA+0x108>)
 8008c94:	6853      	ldr	r3, [r2, #4]
 8008c96:	f413 2f70 	tst.w	r3, #983040	@ 0xf0000
 8008c9a:	d13e      	bne.n	8008d1a <HAL_ADC_Start_DMA+0xda>
      CLEAR_BIT(hadc->State, HAL_ADC_STATE_MULTIMODE_SLAVE);
 8008c9c:	6aa3      	ldr	r3, [r4, #40]	@ 0x28
 8008c9e:	f423 1380 	bic.w	r3, r3, #1048576	@ 0x100000
 8008ca2:	62a3      	str	r3, [r4, #40]	@ 0x28
      if (READ_BIT(hadc->Instance->CR1, ADC_CR1_JAUTO) != RESET)
 8008ca4:	684b      	ldr	r3, [r1, #4]
 8008ca6:	055a      	lsls	r2, r3, #21
 8008ca8:	d505      	bpl.n	8008cb6 <HAL_ADC_Start_DMA+0x76>
        ADC_STATE_CLR_SET(hadc->State, HAL_ADC_STATE_INJ_EOC, HAL_ADC_STATE_INJ_BUSY);  
 8008caa:	6aa3      	ldr	r3, [r4, #40]	@ 0x28
 8008cac:	f423 5340 	bic.w	r3, r3, #12288	@ 0x3000
 8008cb0:	f443 5380 	orr.w	r3, r3, #4096	@ 0x1000
 8008cb4:	62a3      	str	r3, [r4, #40]	@ 0x28
      if (HAL_IS_BIT_SET(hadc->State, HAL_ADC_STATE_INJ_BUSY))
 8008cb6:	6aa3      	ldr	r3, [r4, #40]	@ 0x28
      hadc->DMA_Handle->XferCpltCallback = ADC_DMAConvCplt;
 8008cb8:	6a20      	ldr	r0, [r4, #32]
      if (HAL_IS_BIT_SET(hadc->State, HAL_ADC_STATE_INJ_BUSY))
 8008cba:	f413 5380 	ands.w	r3, r3, #4096	@ 0x1000
        CLEAR_BIT(hadc->ErrorCode, (HAL_ADC_ERROR_OVR | HAL_ADC_ERROR_DMA));         
 8008cbe:	bf18      	it	ne
 8008cc0:	6ae3      	ldrne	r3, [r4, #44]	@ 0x2c
      HAL_DMA_Start_IT(hadc->DMA_Handle, (uint32_t)&hadc->Instance->DR, (uint32_t)pData, Length);
 8008cc2:	463a      	mov	r2, r7
        CLEAR_BIT(hadc->ErrorCode, (HAL_ADC_ERROR_OVR | HAL_ADC_ERROR_DMA));         
 8008cc4:	bf18      	it	ne
 8008cc6:	f023 0306 	bicne.w	r3, r3, #6
        ADC_CLEAR_ERRORCODE(hadc);
 8008cca:	62e3      	str	r3, [r4, #44]	@ 0x2c
      __HAL_UNLOCK(hadc);
 8008ccc:	2300      	movs	r3, #0
 8008cce:	f884 3024 	strb.w	r3, [r4, #36]	@ 0x24
      hadc->DMA_Handle->XferCpltCallback = ADC_DMAConvCplt;
 8008cd2:	4b1f      	ldr	r3, [pc, #124]	@ (8008d50 <HAL_ADC_Start_DMA+0x110>)
      HAL_DMA_Start_IT(hadc->DMA_Handle, (uint32_t)&hadc->Instance->DR, (uint32_t)pData, Length);
 8008cd4:	314c      	adds	r1, #76	@ 0x4c
      hadc->DMA_Handle->XferCpltCallback = ADC_DMAConvCplt;
 8008cd6:	6283      	str	r3, [r0, #40]	@ 0x28
      hadc->DMA_Handle->XferHalfCpltCallback = ADC_DMAHalfConvCplt;
 8008cd8:	4b1e      	ldr	r3, [pc, #120]	@ (8008d54 <HAL_ADC_Start_DMA+0x114>)
 8008cda:	62c3      	str	r3, [r0, #44]	@ 0x2c
      hadc->DMA_Handle->XferErrorCallback = ADC_DMAError;
 8008cdc:	4b1e      	ldr	r3, [pc, #120]	@ (8008d58 <HAL_ADC_Start_DMA+0x118>)
 8008cde:	6303      	str	r3, [r0, #48]	@ 0x30
      __HAL_ADC_CLEAR_FLAG(hadc, ADC_FLAG_EOC);
 8008ce0:	f06f 0302 	mvn.w	r3, #2
 8008ce4:	f841 3c4c 	str.w	r3, [r1, #-76]
      SET_BIT(hadc->Instance->CR2, ADC_CR2_DMA);
 8008ce8:	f851 3c44 	ldr.w	r3, [r1, #-68]
 8008cec:	f443 7380 	orr.w	r3, r3, #256	@ 0x100
 8008cf0:	f841 3c44 	str.w	r3, [r1, #-68]
      HAL_DMA_Start_IT(hadc->DMA_Handle, (uint32_t)&hadc->Instance->DR, (uint32_t)pData, Length);
 8008cf4:	4643      	mov	r3, r8
 8008cf6:	f000 f9ed 	bl	80090d4 <HAL_DMA_Start_IT>
      if (ADC_IS_SOFTWARE_START_REGULAR(hadc))
 8008cfa:	6823      	ldr	r3, [r4, #0]
 8008cfc:	689a      	ldr	r2, [r3, #8]
 8008cfe:	f402 2260 	and.w	r2, r2, #917504	@ 0xe0000
 8008d02:	f5b2 2f60 	cmp.w	r2, #917504	@ 0xe0000
        SET_BIT(hadc->Instance->CR2, (ADC_CR2_SWSTART | ADC_CR2_EXTTRIG));
 8008d06:	689a      	ldr	r2, [r3, #8]
 8008d08:	bf0c      	ite	eq
 8008d0a:	f442 02a0 	orreq.w	r2, r2, #5242880	@ 0x500000
        SET_BIT(hadc->Instance->CR2, ADC_CR2_EXTTRIG);
 8008d0e:	f442 1280 	orrne.w	r2, r2, #1048576	@ 0x100000
 8008d12:	609a      	str	r2, [r3, #8]
}
 8008d14:	4630      	mov	r0, r6
 8008d16:	e8bd 81f0 	ldmia.w	sp!, {r4, r5, r6, r7, r8, pc}
      SET_BIT(hadc->State, HAL_ADC_STATE_MULTIMODE_SLAVE);
 8008d1a:	6aa3      	ldr	r3, [r4, #40]	@ 0x28
 8008d1c:	f443 1380 	orr.w	r3, r3, #1048576	@ 0x100000
 8008d20:	62a3      	str	r3, [r4, #40]	@ 0x28
      if (ADC_MULTIMODE_AUTO_INJECTED(hadc))
 8008d22:	6853      	ldr	r3, [r2, #4]
 8008d24:	055b      	lsls	r3, r3, #21
        ADC_STATE_CLR_SET(hadc->State, HAL_ADC_STATE_INJ_EOC, HAL_ADC_STATE_INJ_BUSY);
 8008d26:	bf41      	itttt	mi
 8008d28:	6aa0      	ldrmi	r0, [r4, #40]	@ 0x28
 8008d2a:	f420 5040 	bicmi.w	r0, r0, #12288	@ 0x3000
 8008d2e:	f440 5080 	orrmi.w	r0, r0, #4096	@ 0x1000
 8008d32:	62a0      	strmi	r0, [r4, #40]	@ 0x28
 8008d34:	e7bf      	b.n	8008cb6 <HAL_ADC_Start_DMA+0x76>
      __HAL_UNLOCK(hadc);
 8008d36:	2300      	movs	r3, #0
 8008d38:	f884 3024 	strb.w	r3, [r4, #36]	@ 0x24
 8008d3c:	e7ea      	b.n	8008d14 <HAL_ADC_Start_DMA+0xd4>
    tmp_hal_status = HAL_ERROR;
 8008d3e:	2601      	movs	r6, #1
 8008d40:	e7e8      	b.n	8008d14 <HAL_ADC_Start_DMA+0xd4>
    __HAL_LOCK(hadc);
 8008d42:	2602      	movs	r6, #2
 8008d44:	e7e6      	b.n	8008d14 <HAL_ADC_Start_DMA+0xd4>
 8008d46:	bf00      	nop
 8008d48:	40012400 	.word	0x40012400
 8008d4c:	40012800 	.word	0x40012800
 8008d50:	08008971 	.word	0x08008971
 8008d54:	080089c1 	.word	0x080089c1
 8008d58:	08008ab1 	.word	0x08008ab1

08008d5c <ADC_ConversionStop_Disable>:
{
 8008d5c:	b538      	push	{r3, r4, r5, lr}
  if (ADC_IS_ENABLE(hadc) != RESET)
 8008d5e:	6803      	ldr	r3, [r0, #0]
{
 8008d60:	4604      	mov	r4, r0
  if (ADC_IS_ENABLE(hadc) != RESET)
 8008d62:	689a      	ldr	r2, [r3, #8]
 8008d64:	07d1      	lsls	r1, r2, #31
 8008d66:	d401      	bmi.n	8008d6c <ADC_ConversionStop_Disable+0x10>
  return HAL_OK;
 8008d68:	2000      	movs	r0, #0
}
 8008d6a:	bd38      	pop	{r3, r4, r5, pc}
    __HAL_ADC_DISABLE(hadc);
 8008d6c:	689a      	ldr	r2, [r3, #8]
 8008d6e:	f022 0201 	bic.w	r2, r2, #1
 8008d72:	609a      	str	r2, [r3, #8]
    tickstart = HAL_GetTick();
 8008d74:	f7ff fde4 	bl	8008940 <HAL_GetTick>
 8008d78:	4605      	mov	r5, r0
    while(ADC_IS_ENABLE(hadc) != RESET)
 8008d7a:	6823      	ldr	r3, [r4, #0]
 8008d7c:	689b      	ldr	r3, [r3, #8]
 8008d7e:	07db      	lsls	r3, r3, #31
 8008d80:	d5f2      	bpl.n	8008d68 <ADC_ConversionStop_Disable+0xc>
      if((HAL_GetTick() - tickstart) > ADC_DISABLE_TIMEOUT)
 8008d82:	f7ff fddd 	bl	8008940 <HAL_GetTick>
 8008d86:	1b40      	subs	r0, r0, r5
 8008d88:	2802      	cmp	r0, #2
 8008d8a:	d9f6      	bls.n	8008d7a <ADC_ConversionStop_Disable+0x1e>
        if(ADC_IS_ENABLE(hadc) != RESET)
 8008d8c:	6823      	ldr	r3, [r4, #0]
 8008d8e:	689b      	ldr	r3, [r3, #8]
 8008d90:	07da      	lsls	r2, r3, #31
 8008d92:	d5f2      	bpl.n	8008d7a <ADC_ConversionStop_Disable+0x1e>
          SET_BIT(hadc->State, HAL_ADC_STATE_ERROR_INTERNAL);
 8008d94:	6aa3      	ldr	r3, [r4, #40]	@ 0x28
          return HAL_ERROR;
 8008d96:	2001      	movs	r0, #1
          SET_BIT(hadc->State, HAL_ADC_STATE_ERROR_INTERNAL);
 8008d98:	f043 0310 	orr.w	r3, r3, #16
 8008d9c:	62a3      	str	r3, [r4, #40]	@ 0x28
          SET_BIT(hadc->ErrorCode, HAL_ADC_ERROR_INTERNAL);
 8008d9e:	6ae3      	ldr	r3, [r4, #44]	@ 0x2c
 8008da0:	f043 0301 	orr.w	r3, r3, #1
 8008da4:	62e3      	str	r3, [r4, #44]	@ 0x2c
          return HAL_ERROR;
 8008da6:	e7e0      	b.n	8008d6a <ADC_ConversionStop_Disable+0xe>

08008da8 <HAL_ADC_Init>:
{
 8008da8:	b5f8      	push	{r3, r4, r5, r6, r7, lr}
  if(hadc == NULL)
 8008daa:	4604      	mov	r4, r0
 8008dac:	2800      	cmp	r0, #0
 8008dae:	d06d      	beq.n	8008e8c <HAL_ADC_Init+0xe4>
  if (hadc->State == HAL_ADC_STATE_RESET)
 8008db0:	6a83      	ldr	r3, [r0, #40]	@ 0x28
 8008db2:	b923      	cbnz	r3, 8008dbe <HAL_ADC_Init+0x16>
    ADC_CLEAR_ERRORCODE(hadc);
 8008db4:	62c3      	str	r3, [r0, #44]	@ 0x2c
    hadc->Lock = HAL_UNLOCKED;
 8008db6:	f880 3024 	strb.w	r3, [r0, #36]	@ 0x24
    HAL_ADC_MspInit(hadc);
 8008dba:	f7fc fe7f 	bl	8005abc <HAL_ADC_MspInit>
  tmp_hal_status = ADC_ConversionStop_Disable(hadc);
 8008dbe:	4620      	mov	r0, r4
 8008dc0:	f7ff ffcc 	bl	8008d5c <ADC_ConversionStop_Disable>
  if (HAL_IS_BIT_CLR(hadc->State, HAL_ADC_STATE_ERROR_INTERNAL) &&
 8008dc4:	6aa3      	ldr	r3, [r4, #40]	@ 0x28
 8008dc6:	f013 0310 	ands.w	r3, r3, #16
 8008dca:	d161      	bne.n	8008e90 <HAL_ADC_Init+0xe8>
 8008dcc:	2800      	cmp	r0, #0
 8008dce:	d15f      	bne.n	8008e90 <HAL_ADC_Init+0xe8>
    ADC_STATE_CLR_SET(hadc->State,
 8008dd0:	6aa2      	ldr	r2, [r4, #40]	@ 0x28
    tmp_cr2 |= (hadc->Init.DataAlign                                          |
 8008dd2:	6861      	ldr	r1, [r4, #4]
    ADC_STATE_CLR_SET(hadc->State,
 8008dd4:	f422 5288 	bic.w	r2, r2, #4352	@ 0x1100
 8008dd8:	f022 0202 	bic.w	r2, r2, #2
 8008ddc:	f042 0202 	orr.w	r2, r2, #2
    tmp_cr2 |= (hadc->Init.DataAlign                                          |
 8008de0:	69e5      	ldr	r5, [r4, #28]
    tmp_cr1 |= (ADC_CR1_SCAN_SET(hadc->Init.ScanConvMode));
 8008de2:	68a6      	ldr	r6, [r4, #8]
    ADC_STATE_CLR_SET(hadc->State,
 8008de4:	62a2      	str	r2, [r4, #40]	@ 0x28
                ADC_CR2_CONTINUOUS((uint32_t)hadc->Init.ContinuousConvMode)   );
 8008de6:	7b22      	ldrb	r2, [r4, #12]
    tmp_cr2 |= (hadc->Init.DataAlign                                          |
 8008de8:	4329      	orrs	r1, r5
    tmp_cr1 |= (ADC_CR1_SCAN_SET(hadc->Init.ScanConvMode));
 8008dea:	f5b6 7f80 	cmp.w	r6, #256	@ 0x100
                ADC_CFGR_EXTSEL(hadc, hadc->Init.ExternalTrigConv)            |
 8008dee:	ea41 0142 	orr.w	r1, r1, r2, lsl #1
    tmp_cr1 |= (ADC_CR1_SCAN_SET(hadc->Init.ScanConvMode));
 8008df2:	d036      	beq.n	8008e62 <HAL_ADC_Init+0xba>
 8008df4:	1e77      	subs	r7, r6, #1
 8008df6:	427d      	negs	r5, r7
 8008df8:	417d      	adcs	r5, r7
 8008dfa:	022d      	lsls	r5, r5, #8
    if (hadc->Init.DiscontinuousConvMode == ENABLE)
 8008dfc:	7d27      	ldrb	r7, [r4, #20]
 8008dfe:	2f01      	cmp	r7, #1
 8008e00:	d106      	bne.n	8008e10 <HAL_ADC_Init+0x68>
      if (hadc->Init.ContinuousConvMode == DISABLE)
 8008e02:	bb82      	cbnz	r2, 8008e66 <HAL_ADC_Init+0xbe>
        SET_BIT(tmp_cr1, ADC_CR1_DISCEN                                            |
 8008e04:	69a2      	ldr	r2, [r4, #24]
 8008e06:	3a01      	subs	r2, #1
 8008e08:	ea45 3242 	orr.w	r2, r5, r2, lsl #13
 8008e0c:	f442 6500 	orr.w	r5, r2, #2048	@ 0x800
      MODIFY_REG(hadc->Instance->CR1,
 8008e10:	6822      	ldr	r2, [r4, #0]
    if (ADC_CR1_SCAN_SET(hadc->Init.ScanConvMode) == ADC_SCAN_ENABLE)
 8008e12:	f5b6 7f80 	cmp.w	r6, #256	@ 0x100
      MODIFY_REG(hadc->Instance->CR1,
 8008e16:	6857      	ldr	r7, [r2, #4]
 8008e18:	f427 4769 	bic.w	r7, r7, #59648	@ 0xe900
 8008e1c:	ea45 0507 	orr.w	r5, r5, r7
 8008e20:	6055      	str	r5, [r2, #4]
      MODIFY_REG(hadc->Instance->CR2,
 8008e22:	6897      	ldr	r7, [r2, #8]
 8008e24:	4d1d      	ldr	r5, [pc, #116]	@ (8008e9c <HAL_ADC_Init+0xf4>)
 8008e26:	ea05 0507 	and.w	r5, r5, r7
 8008e2a:	ea45 0501 	orr.w	r5, r5, r1
 8008e2e:	6095      	str	r5, [r2, #8]
    if (ADC_CR1_SCAN_SET(hadc->Init.ScanConvMode) == ADC_SCAN_ENABLE)
 8008e30:	d001      	beq.n	8008e36 <HAL_ADC_Init+0x8e>
 8008e32:	2e01      	cmp	r6, #1
 8008e34:	d102      	bne.n	8008e3c <HAL_ADC_Init+0x94>
      tmp_sqr1 = ADC_SQR1_L_SHIFT(hadc->Init.NbrOfConversion);
 8008e36:	6923      	ldr	r3, [r4, #16]
 8008e38:	3b01      	subs	r3, #1
 8008e3a:	051b      	lsls	r3, r3, #20
    MODIFY_REG(hadc->Instance->SQR1,
 8008e3c:	6ad5      	ldr	r5, [r2, #44]	@ 0x2c
 8008e3e:	f425 0570 	bic.w	r5, r5, #15728640	@ 0xf00000
 8008e42:	432b      	orrs	r3, r5
 8008e44:	62d3      	str	r3, [r2, #44]	@ 0x2c
    if (READ_BIT(hadc->Instance->CR2, ~(ADC_CR2_ADON | ADC_CR2_DMA |
 8008e46:	6892      	ldr	r2, [r2, #8]
 8008e48:	4b15      	ldr	r3, [pc, #84]	@ (8008ea0 <HAL_ADC_Init+0xf8>)
 8008e4a:	4013      	ands	r3, r2
 8008e4c:	4299      	cmp	r1, r3
 8008e4e:	d113      	bne.n	8008e78 <HAL_ADC_Init+0xd0>
      ADC_CLEAR_ERRORCODE(hadc);
 8008e50:	2300      	movs	r3, #0
 8008e52:	62e3      	str	r3, [r4, #44]	@ 0x2c
      ADC_STATE_CLR_SET(hadc->State,
 8008e54:	6aa3      	ldr	r3, [r4, #40]	@ 0x28
 8008e56:	f023 0303 	bic.w	r3, r3, #3
 8008e5a:	f043 0301 	orr.w	r3, r3, #1
 8008e5e:	62a3      	str	r3, [r4, #40]	@ 0x28
}
 8008e60:	bdf8      	pop	{r3, r4, r5, r6, r7, pc}
    tmp_cr1 |= (ADC_CR1_SCAN_SET(hadc->Init.ScanConvMode));
 8008e62:	4635      	mov	r5, r6
 8008e64:	e7ca      	b.n	8008dfc <HAL_ADC_Init+0x54>
        SET_BIT(hadc->State, HAL_ADC_STATE_ERROR_CONFIG);
 8008e66:	6aa2      	ldr	r2, [r4, #40]	@ 0x28
 8008e68:	f042 0220 	orr.w	r2, r2, #32
 8008e6c:	62a2      	str	r2, [r4, #40]	@ 0x28
        SET_BIT(hadc->ErrorCode, HAL_ADC_ERROR_INTERNAL);
 8008e6e:	6ae2      	ldr	r2, [r4, #44]	@ 0x2c
 8008e70:	f042 0201 	orr.w	r2, r2, #1
 8008e74:	62e2      	str	r2, [r4, #44]	@ 0x2c
 8008e76:	e7cb      	b.n	8008e10 <HAL_ADC_Init+0x68>
      ADC_STATE_CLR_SET(hadc->State,
 8008e78:	6aa3      	ldr	r3, [r4, #40]	@ 0x28
 8008e7a:	f023 0312 	bic.w	r3, r3, #18
 8008e7e:	f043 0310 	orr.w	r3, r3, #16
 8008e82:	62a3      	str	r3, [r4, #40]	@ 0x28
      SET_BIT(hadc->ErrorCode, HAL_ADC_ERROR_INTERNAL);
 8008e84:	6ae3      	ldr	r3, [r4, #44]	@ 0x2c
 8008e86:	f043 0301 	orr.w	r3, r3, #1
 8008e8a:	62e3      	str	r3, [r4, #44]	@ 0x2c
    return HAL_ERROR;
 8008e8c:	2001      	movs	r0, #1
 8008e8e:	e7e7      	b.n	8008e60 <HAL_ADC_Init+0xb8>
    SET_BIT(hadc->State, HAL_ADC_STATE_ERROR_INTERNAL);
 8008e90:	6aa3      	ldr	r3, [r4, #40]	@ 0x28
 8008e92:	f043 0310 	orr.w	r3, r3, #16
 8008e96:	62a3      	str	r3, [r4, #40]	@ 0x28
    tmp_hal_status = HAL_ERROR;
 8008e98:	e7f8      	b.n	8008e8c <HAL_ADC_Init+0xe4>
 8008e9a:	bf00      	nop
 8008e9c:	ffe1f7fd 	.word	0xffe1f7fd
 8008ea0:	ff1f0efe 	.word	0xff1f0efe

08008ea4 <HAL_ADCEx_Calibration_Start>:
  */
HAL_StatusTypeDef HAL_ADCEx_Calibration_Start(ADC_HandleTypeDef* hadc)
{
  HAL_StatusTypeDef tmp_hal_status = HAL_OK;
  uint32_t tickstart;
  __IO uint32_t wait_loop_index = 0U;
 8008ea4:	2300      	movs	r3, #0
{
 8008ea6:	b573      	push	{r0, r1, r4, r5, r6, lr}
  __IO uint32_t wait_loop_index = 0U;
 8008ea8:	9301      	str	r3, [sp, #4]
  
  /* Check the parameters */
  assert_param(IS_ADC_ALL_INSTANCE(hadc->Instance));

  /* Process locked */
  __HAL_LOCK(hadc);
 8008eaa:	f890 3024 	ldrb.w	r3, [r0, #36]	@ 0x24
{
 8008eae:	4604      	mov	r4, r0
  __HAL_LOCK(hadc);
 8008eb0:	2b01      	cmp	r3, #1
 8008eb2:	d062      	beq.n	8008f7a <HAL_ADCEx_Calibration_Start+0xd6>
 8008eb4:	2301      	movs	r3, #1
 8008eb6:	f880 3024 	strb.w	r3, [r0, #36]	@ 0x24
    
   /* 1. Disable ADC peripheral                                                 */
   tmp_hal_status = ADC_ConversionStop_Disable(hadc);
 8008eba:	f7ff ff4f 	bl	8008d5c <ADC_ConversionStop_Disable>
  
   /* 2. Calibration prerequisite delay before starting the calibration.       */
   /*    - ADC must be enabled for at least two ADC clock cycles               */
   tmp_hal_status = ADC_Enable(hadc);
 8008ebe:	4620      	mov	r0, r4
 8008ec0:	f7ff fe82 	bl	8008bc8 <ADC_Enable>

   /* Check if ADC is effectively enabled */
   if (tmp_hal_status == HAL_OK)
 8008ec4:	4605      	mov	r5, r0
 8008ec6:	2800      	cmp	r0, #0
 8008ec8:	d12f      	bne.n	8008f2a <HAL_ADCEx_Calibration_Start+0x86>
   {
     /* Set ADC state */
     ADC_STATE_CLR_SET(hadc->State,
 8008eca:	6aa3      	ldr	r3, [r4, #40]	@ 0x28
    
    /* Hardware prerequisite: delay before starting the calibration.          */
    /*  - Computation of CPU clock cycles corresponding to ADC clock cycles.  */
    /*  - Wait for the expected ADC clock cycles delay */
    wait_loop_index = ((SystemCoreClock
                        / HAL_RCCEx_GetPeriphCLKFreq(RCC_PERIPHCLK_ADC))
 8008ecc:	2002      	movs	r0, #2
     ADC_STATE_CLR_SET(hadc->State,
 8008ece:	f423 5388 	bic.w	r3, r3, #4352	@ 0x1100
 8008ed2:	f023 0302 	bic.w	r3, r3, #2
 8008ed6:	f043 0302 	orr.w	r3, r3, #2
 8008eda:	62a3      	str	r3, [r4, #40]	@ 0x28
                        / HAL_RCCEx_GetPeriphCLKFreq(RCC_PERIPHCLK_ADC))
 8008edc:	4b28      	ldr	r3, [pc, #160]	@ (8008f80 <HAL_ADCEx_Calibration_Start+0xdc>)
 8008ede:	681e      	ldr	r6, [r3, #0]
 8008ee0:	f000 ff40 	bl	8009d64 <HAL_RCCEx_GetPeriphCLKFreq>
 8008ee4:	fbb6 f6f0 	udiv	r6, r6, r0
                       * ADC_PRECALIBRATION_DELAY_ADCCLOCKCYCLES        );
 8008ee8:	0076      	lsls	r6, r6, #1
    wait_loop_index = ((SystemCoreClock
 8008eea:	9601      	str	r6, [sp, #4]

    while(wait_loop_index != 0U)
 8008eec:	9b01      	ldr	r3, [sp, #4]
 8008eee:	bb03      	cbnz	r3, 8008f32 <HAL_ADCEx_Calibration_Start+0x8e>
    {
      wait_loop_index--;
    }

    /* 3. Resets ADC calibration registers */  
    SET_BIT(hadc->Instance->CR2, ADC_CR2_RSTCAL);
 8008ef0:	6822      	ldr	r2, [r4, #0]
 8008ef2:	6893      	ldr	r3, [r2, #8]
 8008ef4:	f043 0308 	orr.w	r3, r3, #8
 8008ef8:	6093      	str	r3, [r2, #8]
    
    tickstart = HAL_GetTick();  
 8008efa:	f7ff fd21 	bl	8008940 <HAL_GetTick>
 8008efe:	4606      	mov	r6, r0

    /* Wait for calibration reset completion */
    while(HAL_IS_BIT_SET(hadc->Instance->CR2, ADC_CR2_RSTCAL))
 8008f00:	6823      	ldr	r3, [r4, #0]
 8008f02:	689a      	ldr	r2, [r3, #8]
 8008f04:	0711      	lsls	r1, r2, #28
 8008f06:	d418      	bmi.n	8008f3a <HAL_ADCEx_Calibration_Start+0x96>
        }
      }
    }
    
    /* 4. Start ADC calibration */
    SET_BIT(hadc->Instance->CR2, ADC_CR2_CAL);
 8008f08:	689a      	ldr	r2, [r3, #8]
 8008f0a:	f042 0204 	orr.w	r2, r2, #4
 8008f0e:	609a      	str	r2, [r3, #8]
    
    tickstart = HAL_GetTick();  
 8008f10:	f7ff fd16 	bl	8008940 <HAL_GetTick>
 8008f14:	4606      	mov	r6, r0

    /* Wait for calibration completion */
    while(HAL_IS_BIT_SET(hadc->Instance->CR2, ADC_CR2_CAL))
 8008f16:	6823      	ldr	r3, [r4, #0]
 8008f18:	689b      	ldr	r3, [r3, #8]
 8008f1a:	075b      	lsls	r3, r3, #29
 8008f1c:	d423      	bmi.n	8008f66 <HAL_ADCEx_Calibration_Start+0xc2>
        }
      }
    }
    
    /* Set ADC state */
    ADC_STATE_CLR_SET(hadc->State,
 8008f1e:	6aa3      	ldr	r3, [r4, #40]	@ 0x28
 8008f20:	f023 0303 	bic.w	r3, r3, #3
 8008f24:	f043 0301 	orr.w	r3, r3, #1
 8008f28:	62a3      	str	r3, [r4, #40]	@ 0x28
                      HAL_ADC_STATE_BUSY_INTERNAL,
                      HAL_ADC_STATE_READY);
  }
  
  /* Process unlocked */
  __HAL_UNLOCK(hadc);
 8008f2a:	2300      	movs	r3, #0
 8008f2c:	f884 3024 	strb.w	r3, [r4, #36]	@ 0x24
  
  /* Return function status */
  return tmp_hal_status;
 8008f30:	e016      	b.n	8008f60 <HAL_ADCEx_Calibration_Start+0xbc>
      wait_loop_index--;
 8008f32:	9b01      	ldr	r3, [sp, #4]
 8008f34:	3b01      	subs	r3, #1
 8008f36:	9301      	str	r3, [sp, #4]
 8008f38:	e7d8      	b.n	8008eec <HAL_ADCEx_Calibration_Start+0x48>
      if((HAL_GetTick() - tickstart) > ADC_CALIBRATION_TIMEOUT)
 8008f3a:	f7ff fd01 	bl	8008940 <HAL_GetTick>
 8008f3e:	1b80      	subs	r0, r0, r6
 8008f40:	280a      	cmp	r0, #10
 8008f42:	d9dd      	bls.n	8008f00 <HAL_ADCEx_Calibration_Start+0x5c>
        if(HAL_IS_BIT_SET(hadc->Instance->CR2, ADC_CR2_RSTCAL))
 8008f44:	6823      	ldr	r3, [r4, #0]
 8008f46:	689b      	ldr	r3, [r3, #8]
 8008f48:	0718      	lsls	r0, r3, #28
 8008f4a:	d5d9      	bpl.n	8008f00 <HAL_ADCEx_Calibration_Start+0x5c>
          ADC_STATE_CLR_SET(hadc->State,
 8008f4c:	6aa3      	ldr	r3, [r4, #40]	@ 0x28
          return HAL_ERROR;
 8008f4e:	2501      	movs	r5, #1
          ADC_STATE_CLR_SET(hadc->State,
 8008f50:	f023 0312 	bic.w	r3, r3, #18
 8008f54:	f043 0310 	orr.w	r3, r3, #16
 8008f58:	62a3      	str	r3, [r4, #40]	@ 0x28
          __HAL_UNLOCK(hadc);
 8008f5a:	2300      	movs	r3, #0
 8008f5c:	f884 3024 	strb.w	r3, [r4, #36]	@ 0x24
}
 8008f60:	4628      	mov	r0, r5
 8008f62:	b002      	add	sp, #8
 8008f64:	bd70      	pop	{r4, r5, r6, pc}
      if((HAL_GetTick() - tickstart) > ADC_CALIBRATION_TIMEOUT)
 8008f66:	f7ff fceb 	bl	8008940 <HAL_GetTick>
 8008f6a:	1b80      	subs	r0, r0, r6
 8008f6c:	280a      	cmp	r0, #10
 8008f6e:	d9d2      	bls.n	8008f16 <HAL_ADCEx_Calibration_Start+0x72>
        if(HAL_IS_BIT_SET(hadc->Instance->CR2, ADC_CR2_CAL))
 8008f70:	6823      	ldr	r3, [r4, #0]
 8008f72:	689b      	ldr	r3, [r3, #8]
 8008f74:	075a      	lsls	r2, r3, #29
 8008f76:	d5ce      	bpl.n	8008f16 <HAL_ADCEx_Calibration_Start+0x72>
 8008f78:	e7e8      	b.n	8008f4c <HAL_ADCEx_Calibration_Start+0xa8>
  __HAL_LOCK(hadc);
 8008f7a:	2502      	movs	r5, #2
 8008f7c:	e7f0      	b.n	8008f60 <HAL_ADCEx_Calibration_Start+0xbc>
 8008f7e:	bf00      	nop
 8008f80:	20000008 	.word	0x20000008

08008f84 <HAL_ADCEx_InjectedConvCpltCallback>:
  /* Prevent unused argument(s) compilation warning */
  UNUSED(hadc);
  /* NOTE : This function Should not be modified, when the callback is needed,
            the HAL_ADCEx_InjectedConvCpltCallback could be implemented in the user file
  */
}
 8008f84:	4770      	bx	lr
	...

08008f88 <HAL_NVIC_SetPriorityGrouping>:
__STATIC_INLINE void __NVIC_SetPriorityGrouping(uint32_t PriorityGroup)
{
  uint32_t reg_value;
  uint32_t PriorityGroupTmp = (PriorityGroup & (uint32_t)0x07UL);             /* only values 0..7 are used          */

  reg_value  =  SCB->AIRCR;                                                   /* read old register configuration    */
 8008f88:	4907      	ldr	r1, [pc, #28]	@ (8008fa8 <HAL_NVIC_SetPriorityGrouping+0x20>)
  reg_value &= ~((uint32_t)(SCB_AIRCR_VECTKEY_Msk | SCB_AIRCR_PRIGROUP_Msk)); /* clear bits to change               */
  reg_value  =  (reg_value                                   |
                ((uint32_t)0x5FAUL << SCB_AIRCR_VECTKEY_Pos) |
                (PriorityGroupTmp << SCB_AIRCR_PRIGROUP_Pos) );               /* Insert write key and priority group */
 8008f8a:	0203      	lsls	r3, r0, #8
  reg_value  =  SCB->AIRCR;                                                   /* read old register configuration    */
 8008f8c:	68ca      	ldr	r2, [r1, #12]
                (PriorityGroupTmp << SCB_AIRCR_PRIGROUP_Pos) );               /* Insert write key and priority group */
 8008f8e:	f403 63e0 	and.w	r3, r3, #1792	@ 0x700
  reg_value &= ~((uint32_t)(SCB_AIRCR_VECTKEY_Msk | SCB_AIRCR_PRIGROUP_Msk)); /* clear bits to change               */
 8008f92:	f422 62e0 	bic.w	r2, r2, #1792	@ 0x700
 8008f96:	0412      	lsls	r2, r2, #16
 8008f98:	0c12      	lsrs	r2, r2, #16
                ((uint32_t)0x5FAUL << SCB_AIRCR_VECTKEY_Pos) |
 8008f9a:	4313      	orrs	r3, r2
  reg_value  =  (reg_value                                   |
 8008f9c:	f043 63bf 	orr.w	r3, r3, #100139008	@ 0x5f80000
 8008fa0:	f443 3300 	orr.w	r3, r3, #131072	@ 0x20000
  SCB->AIRCR =  reg_value;
 8008fa4:	60cb      	str	r3, [r1, #12]
  /* Check the parameters */
  assert_param(IS_NVIC_PRIORITY_GROUP(PriorityGroup));
  
  /* Set the PRIGROUP[10:8] bits according to the PriorityGroup parameter value */
  NVIC_SetPriorityGrouping(PriorityGroup);
}
 8008fa6:	4770      	bx	lr
 8008fa8:	e000ed00 	.word	0xe000ed00

08008fac <HAL_NVIC_SetPriority>:
  \details Reads the priority grouping field from the NVIC Interrupt Controller.
  \return                Priority grouping field (SCB->AIRCR [10:8] PRIGROUP field).
 */
__STATIC_INLINE uint32_t __NVIC_GetPriorityGrouping(void)
{
  return ((uint32_t)((SCB->AIRCR & SCB_AIRCR_PRIGROUP_Msk) >> SCB_AIRCR_PRIGROUP_Pos));
 8008fac:	4b15      	ldr	r3, [pc, #84]	@ (8009004 <HAL_NVIC_SetPriority+0x58>)
  *         This parameter can be a value between 0 and 15
  *         A lower priority value indicates a higher priority.          
  * @retval None
  */
void HAL_NVIC_SetPriority(IRQn_Type IRQn, uint32_t PreemptPriority, uint32_t SubPriority)
{ 
 8008fae:	b530      	push	{r4, r5, lr}
 8008fb0:	68dc      	ldr	r4, [r3, #12]
 8008fb2:	f3c4 2402 	ubfx	r4, r4, #8, #3
{
  uint32_t PriorityGroupTmp = (PriorityGroup & (uint32_t)0x07UL);   /* only values 0..7 are used          */
  uint32_t PreemptPriorityBits;
  uint32_t SubPriorityBits;

  PreemptPriorityBits = ((7UL - PriorityGroupTmp) > (uint32_t)(__NVIC_PRIO_BITS)) ? (uint32_t)(__NVIC_PRIO_BITS) : (uint32_t)(7UL - PriorityGroupTmp);
 8008fb6:	f1c4 0307 	rsb	r3, r4, #7
  SubPriorityBits     = ((PriorityGroupTmp + (uint32_t)(__NVIC_PRIO_BITS)) < (uint32_t)7UL) ? (uint32_t)0UL : (uint32_t)((PriorityGroupTmp - 7UL) + (uint32_t)(__NVIC_PRIO_BITS));
 8008fba:	1d25      	adds	r5, r4, #4
  PreemptPriorityBits = ((7UL - PriorityGroupTmp) > (uint32_t)(__NVIC_PRIO_BITS)) ? (uint32_t)(__NVIC_PRIO_BITS) : (uint32_t)(7UL - PriorityGroupTmp);
 8008fbc:	2b04      	cmp	r3, #4
 8008fbe:	bf28      	it	cs
 8008fc0:	2304      	movcs	r3, #4
  SubPriorityBits     = ((PriorityGroupTmp + (uint32_t)(__NVIC_PRIO_BITS)) < (uint32_t)7UL) ? (uint32_t)0UL : (uint32_t)((PriorityGroupTmp - 7UL) + (uint32_t)(__NVIC_PRIO_BITS));
 8008fc2:	2d06      	cmp	r5, #6

  return (
           ((PreemptPriority & (uint32_t)((1UL << (PreemptPriorityBits)) - 1UL)) << SubPriorityBits) |
 8008fc4:	f04f 35ff 	mov.w	r5, #4294967295
  SubPriorityBits     = ((PriorityGroupTmp + (uint32_t)(__NVIC_PRIO_BITS)) < (uint32_t)7UL) ? (uint32_t)0UL : (uint32_t)((PriorityGroupTmp - 7UL) + (uint32_t)(__NVIC_PRIO_BITS));
 8008fc8:	bf94      	ite	ls
 8008fca:	2400      	movls	r4, #0
 8008fcc:	3c03      	subhi	r4, #3
           ((PreemptPriority & (uint32_t)((1UL << (PreemptPriorityBits)) - 1UL)) << SubPriorityBits) |
 8008fce:	fa05 f303 	lsl.w	r3, r5, r3
 8008fd2:	ea21 0303 	bic.w	r3, r1, r3
           ((SubPriority     & (uint32_t)((1UL << (SubPriorityBits    )) - 1UL)))
 8008fd6:	40a5      	lsls	r5, r4
 8008fd8:	ea22 0205 	bic.w	r2, r2, r5
           ((PreemptPriority & (uint32_t)((1UL << (PreemptPriorityBits)) - 1UL)) << SubPriorityBits) |
 8008fdc:	40a3      	lsls	r3, r4
  if ((int32_t)(IRQn) >= 0)
 8008fde:	2800      	cmp	r0, #0
           ((PreemptPriority & (uint32_t)((1UL << (PreemptPriorityBits)) - 1UL)) << SubPriorityBits) |
 8008fe0:	ea43 0302 	orr.w	r3, r3, r2
    NVIC->IP[((uint32_t)IRQn)]               = (uint8_t)((priority << (8U - __NVIC_PRIO_BITS)) & (uint32_t)0xFFUL);
 8008fe4:	bfac      	ite	ge
 8008fe6:	f100 4060 	addge.w	r0, r0, #3758096384	@ 0xe0000000
    SCB->SHP[(((uint32_t)IRQn) & 0xFUL)-4UL] = (uint8_t)((priority << (8U - __NVIC_PRIO_BITS)) & (uint32_t)0xFFUL);
 8008fea:	4a07      	ldrlt	r2, [pc, #28]	@ (8009008 <HAL_NVIC_SetPriority+0x5c>)
    NVIC->IP[((uint32_t)IRQn)]               = (uint8_t)((priority << (8U - __NVIC_PRIO_BITS)) & (uint32_t)0xFFUL);
 8008fec:	ea4f 1303 	mov.w	r3, r3, lsl #4
 8008ff0:	b2db      	uxtb	r3, r3
 8008ff2:	bfab      	itete	ge
 8008ff4:	f500 4061 	addge.w	r0, r0, #57600	@ 0xe100
    SCB->SHP[(((uint32_t)IRQn) & 0xFUL)-4UL] = (uint8_t)((priority << (8U - __NVIC_PRIO_BITS)) & (uint32_t)0xFFUL);
 8008ff8:	f000 000f 	andlt.w	r0, r0, #15
    NVIC->IP[((uint32_t)IRQn)]               = (uint8_t)((priority << (8U - __NVIC_PRIO_BITS)) & (uint32_t)0xFFUL);
 8008ffc:	f880 3300 	strbge.w	r3, [r0, #768]	@ 0x300
    SCB->SHP[(((uint32_t)IRQn) & 0xFUL)-4UL] = (uint8_t)((priority << (8U - __NVIC_PRIO_BITS)) & (uint32_t)0xFFUL);
 8009000:	5413      	strblt	r3, [r2, r0]
  assert_param(IS_NVIC_PREEMPTION_PRIORITY(PreemptPriority));
  
  prioritygroup = NVIC_GetPriorityGrouping();
  
  NVIC_SetPriority(IRQn, NVIC_EncodePriority(prioritygroup, PreemptPriority, SubPriority));
}
 8009002:	bd30      	pop	{r4, r5, pc}
 8009004:	e000ed00 	.word	0xe000ed00
 8009008:	e000ed14 	.word	0xe000ed14

0800900c <HAL_NVIC_EnableIRQ>:
  if ((int32_t)(IRQn) >= 0)
 800900c:	2800      	cmp	r0, #0
 800900e:	db07      	blt.n	8009020 <HAL_NVIC_EnableIRQ+0x14>
    NVIC->ISER[(((uint32_t)IRQn) >> 5UL)] = (uint32_t)(1UL << (((uint32_t)IRQn) & 0x1FUL));
 8009010:	2301      	movs	r3, #1
 8009012:	0941      	lsrs	r1, r0, #5
 8009014:	4a03      	ldr	r2, [pc, #12]	@ (8009024 <HAL_NVIC_EnableIRQ+0x18>)
 8009016:	f000 001f 	and.w	r0, r0, #31
 800901a:	4083      	lsls	r3, r0
 800901c:	f842 3021 	str.w	r3, [r2, r1, lsl #2]
  /* Check the parameters */
  assert_param(IS_NVIC_DEVICE_IRQ(IRQn));

  /* Enable interrupt */
  NVIC_EnableIRQ(IRQn);
}
 8009020:	4770      	bx	lr
 8009022:	bf00      	nop
 8009024:	e000e100 	.word	0xe000e100

08009028 <HAL_NVIC_SystemReset>:
  \details Acts as a special kind of Data Memory Barrier.
           It completes when all explicit memory accesses before this instruction complete.
 */
__STATIC_FORCEINLINE void __DSB(void)
{
  __ASM volatile ("dsb 0xF":::"memory");
 8009028:	f3bf 8f4f 	dsb	sy
__NO_RETURN __STATIC_INLINE void __NVIC_SystemReset(void)
{
  __DSB();                                                          /* Ensure all outstanding memory accesses included
                                                                       buffered write are completed before reset */
  SCB->AIRCR  = (uint32_t)((0x5FAUL << SCB_AIRCR_VECTKEY_Pos)    |
                           (SCB->AIRCR & SCB_AIRCR_PRIGROUP_Msk) |
 800902c:	4905      	ldr	r1, [pc, #20]	@ (8009044 <HAL_NVIC_SystemReset+0x1c>)
  SCB->AIRCR  = (uint32_t)((0x5FAUL << SCB_AIRCR_VECTKEY_Pos)    |
 800902e:	4b06      	ldr	r3, [pc, #24]	@ (8009048 <HAL_NVIC_SystemReset+0x20>)
                           (SCB->AIRCR & SCB_AIRCR_PRIGROUP_Msk) |
 8009030:	68ca      	ldr	r2, [r1, #12]
 8009032:	f402 62e0 	and.w	r2, r2, #1792	@ 0x700
  SCB->AIRCR  = (uint32_t)((0x5FAUL << SCB_AIRCR_VECTKEY_Pos)    |
 8009036:	4313      	orrs	r3, r2
 8009038:	60cb      	str	r3, [r1, #12]
 800903a:	f3bf 8f4f 	dsb	sy
                            SCB_AIRCR_SYSRESETREQ_Msk    );         /* Keep priority group unchanged */
  __DSB();                                                          /* Ensure completion of memory access */

  for(;;)                                                           /* wait until reset */
  {
    __NOP();
 800903e:	bf00      	nop
  for(;;)                                                           /* wait until reset */
 8009040:	e7fd      	b.n	800903e <HAL_NVIC_SystemReset+0x16>
 8009042:	bf00      	nop
 8009044:	e000ed00 	.word	0xe000ed00
 8009048:	05fa0004 	.word	0x05fa0004

0800904c <HAL_SYSTICK_Config>:
           function <b>SysTick_Config</b> is not included. In this case, the file <b><i>device</i>.h</b>
           must contain a vendor-specific implementation of this function.
 */
__STATIC_INLINE uint32_t SysTick_Config(uint32_t ticks)
{
  if ((ticks - 1UL) > SysTick_LOAD_RELOAD_Msk)
 800904c:	3801      	subs	r0, #1
 800904e:	f1b0 7f80 	cmp.w	r0, #16777216	@ 0x1000000
 8009052:	d20b      	bcs.n	800906c <HAL_SYSTICK_Config+0x20>
  {
    return (1UL);                                                   /* Reload value impossible */
  }

  SysTick->LOAD  = (uint32_t)(ticks - 1UL);                         /* set reload register */
 8009054:	f04f 23e0 	mov.w	r3, #3758153728	@ 0xe000e000
    SCB->SHP[(((uint32_t)IRQn) & 0xFUL)-4UL] = (uint8_t)((priority << (8U - __NVIC_PRIO_BITS)) & (uint32_t)0xFFUL);
 8009058:	21f0      	movs	r1, #240	@ 0xf0
 800905a:	4a05      	ldr	r2, [pc, #20]	@ (8009070 <HAL_SYSTICK_Config+0x24>)
  SysTick->LOAD  = (uint32_t)(ticks - 1UL);                         /* set reload register */
 800905c:	6158      	str	r0, [r3, #20]
    SCB->SHP[(((uint32_t)IRQn) & 0xFUL)-4UL] = (uint8_t)((priority << (8U - __NVIC_PRIO_BITS)) & (uint32_t)0xFFUL);
 800905e:	f882 1023 	strb.w	r1, [r2, #35]	@ 0x23
  NVIC_SetPriority (SysTick_IRQn, (1UL << __NVIC_PRIO_BITS) - 1UL); /* set Priority for Systick Interrupt */
  SysTick->VAL   = 0UL;                                             /* Load the SysTick Counter Value */
 8009062:	2000      	movs	r0, #0
  SysTick->CTRL  = SysTick_CTRL_CLKSOURCE_Msk |
 8009064:	2207      	movs	r2, #7
  SysTick->VAL   = 0UL;                                             /* Load the SysTick Counter Value */
 8009066:	6198      	str	r0, [r3, #24]
  SysTick->CTRL  = SysTick_CTRL_CLKSOURCE_Msk |
 8009068:	611a      	str	r2, [r3, #16]
                   SysTick_CTRL_TICKINT_Msk   |
                   SysTick_CTRL_ENABLE_Msk;                         /* Enable SysTick IRQ and SysTick Timer */
  return (0UL);                                                     /* Function successful */
 800906a:	4770      	bx	lr
    return (1UL);                                                   /* Reload value impossible */
 800906c:	2001      	movs	r0, #1
  *                  - 1  Function failed.
  */
uint32_t HAL_SYSTICK_Config(uint32_t TicksNumb)
{
   return SysTick_Config(TicksNumb);
}
 800906e:	4770      	bx	lr
 8009070:	e000ed00 	.word	0xe000ed00

08009074 <HAL_DMA_Init>:
HAL_StatusTypeDef HAL_DMA_Init(DMA_HandleTypeDef *hdma)
{
  uint32_t tmp = 0U;

  /* Check the DMA handle allocation */
  if(hdma == NULL)
 8009074:	4603      	mov	r3, r0
{
 8009076:	b510      	push	{r4, lr}
  if(hdma == NULL)
 8009078:	b330      	cbz	r0, 80090c8 <HAL_DMA_Init+0x54>
    hdma->ChannelIndex = (((uint32_t)hdma->Instance - (uint32_t)DMA2_Channel1) / ((uint32_t)DMA2_Channel2 - (uint32_t)DMA2_Channel1)) << 2;
    hdma->DmaBaseAddress = DMA2;
  }
#else
  /* DMA1 */
  hdma->ChannelIndex = (((uint32_t)hdma->Instance - (uint32_t)DMA1_Channel1) / ((uint32_t)DMA1_Channel2 - (uint32_t)DMA1_Channel1)) << 2;
 800907a:	6801      	ldr	r1, [r0, #0]
 800907c:	2014      	movs	r0, #20
 800907e:	4a13      	ldr	r2, [pc, #76]	@ (80090cc <HAL_DMA_Init+0x58>)
 8009080:	440a      	add	r2, r1
 8009082:	fbb2 f2f0 	udiv	r2, r2, r0
 8009086:	0092      	lsls	r2, r2, #2
 8009088:	641a      	str	r2, [r3, #64]	@ 0x40
  hdma->DmaBaseAddress = DMA1;
 800908a:	4a11      	ldr	r2, [pc, #68]	@ (80090d0 <HAL_DMA_Init+0x5c>)
 800908c:	63da      	str	r2, [r3, #60]	@ 0x3c
#endif /* DMA2 */

  /* Change DMA peripheral state */
  hdma->State = HAL_DMA_STATE_BUSY;
 800908e:	2202      	movs	r2, #2
 8009090:	f883 2021 	strb.w	r2, [r3, #33]	@ 0x21
  tmp &= ((uint32_t)~(DMA_CCR_PL    | DMA_CCR_MSIZE  | DMA_CCR_PSIZE  | \
                      DMA_CCR_MINC  | DMA_CCR_PINC   | DMA_CCR_CIRC   | \
                      DMA_CCR_DIR));

  /* Prepare the DMA Channel configuration */
  tmp |=  hdma->Init.Direction        |
 8009094:	e9d3 2401 	ldrd	r2, r4, [r3, #4]
 8009098:	4322      	orrs	r2, r4
          hdma->Init.PeriphInc           | hdma->Init.MemInc           |
 800909a:	68dc      	ldr	r4, [r3, #12]
  tmp = hdma->Instance->CCR;
 800909c:	6808      	ldr	r0, [r1, #0]
          hdma->Init.PeriphInc           | hdma->Init.MemInc           |
 800909e:	4322      	orrs	r2, r4
 80090a0:	691c      	ldr	r4, [r3, #16]
  tmp &= ((uint32_t)~(DMA_CCR_PL    | DMA_CCR_MSIZE  | DMA_CCR_PSIZE  | \
 80090a2:	f36f 100d 	bfc	r0, #4, #10
          hdma->Init.PeriphInc           | hdma->Init.MemInc           |
 80090a6:	4322      	orrs	r2, r4
          hdma->Init.PeriphDataAlignment | hdma->Init.MemDataAlignment |
 80090a8:	695c      	ldr	r4, [r3, #20]
 80090aa:	4322      	orrs	r2, r4
 80090ac:	699c      	ldr	r4, [r3, #24]
 80090ae:	4322      	orrs	r2, r4
          hdma->Init.Mode                | hdma->Init.Priority;
 80090b0:	69dc      	ldr	r4, [r3, #28]
 80090b2:	4322      	orrs	r2, r4
  tmp |=  hdma->Init.Direction        |
 80090b4:	4302      	orrs	r2, r0

  /* Write to DMA Channel CR register */
  hdma->Instance->CCR = tmp;
 80090b6:	600a      	str	r2, [r1, #0]

  /* Initialise the error code */
  hdma->ErrorCode = HAL_DMA_ERROR_NONE;
 80090b8:	2000      	movs	r0, #0

  /* Initialize the DMA state*/
  hdma->State = HAL_DMA_STATE_READY;
 80090ba:	2201      	movs	r2, #1
  hdma->ErrorCode = HAL_DMA_ERROR_NONE;
 80090bc:	6398      	str	r0, [r3, #56]	@ 0x38
  /* Allocate lock resource and initialize it */
  hdma->Lock = HAL_UNLOCKED;
 80090be:	f883 0020 	strb.w	r0, [r3, #32]
  hdma->State = HAL_DMA_STATE_READY;
 80090c2:	f883 2021 	strb.w	r2, [r3, #33]	@ 0x21

  return HAL_OK;
}
 80090c6:	bd10      	pop	{r4, pc}
    return HAL_ERROR;
 80090c8:	2001      	movs	r0, #1
 80090ca:	e7fc      	b.n	80090c6 <HAL_DMA_Init+0x52>
 80090cc:	bffdfff8 	.word	0xbffdfff8
 80090d0:	40020000 	.word	0x40020000

080090d4 <HAL_DMA_Start_IT>:
  * @param  DstAddress: The destination memory Buffer address
  * @param  DataLength: The length of data to be transferred from source to destination
  * @retval HAL status
  */
HAL_StatusTypeDef HAL_DMA_Start_IT(DMA_HandleTypeDef *hdma, uint32_t SrcAddress, uint32_t DstAddress, uint32_t DataLength)
{
 80090d4:	b5f0      	push	{r4, r5, r6, r7, lr}

  /* Check the parameters */
  assert_param(IS_DMA_BUFFER_SIZE(DataLength));

  /* Process locked */
  __HAL_LOCK(hdma);
 80090d6:	f890 4020 	ldrb.w	r4, [r0, #32]
 80090da:	2c01      	cmp	r4, #1
 80090dc:	d034      	beq.n	8009148 <HAL_DMA_Start_IT+0x74>
 80090de:	2401      	movs	r4, #1
 80090e0:	f880 4020 	strb.w	r4, [r0, #32]
  
  if(HAL_DMA_STATE_READY == hdma->State)
 80090e4:	f890 4021 	ldrb.w	r4, [r0, #33]	@ 0x21
 80090e8:	2c01      	cmp	r4, #1
 80090ea:	b2e5      	uxtb	r5, r4
 80090ec:	f04f 0400 	mov.w	r4, #0
 80090f0:	d128      	bne.n	8009144 <HAL_DMA_Start_IT+0x70>
  {
    /* Change DMA peripheral state */
    hdma->State = HAL_DMA_STATE_BUSY;
 80090f2:	2602      	movs	r6, #2
 80090f4:	f880 6021 	strb.w	r6, [r0, #33]	@ 0x21
    hdma->ErrorCode = HAL_DMA_ERROR_NONE;
 80090f8:	6384      	str	r4, [r0, #56]	@ 0x38
    
    /* Disable the peripheral */
    __HAL_DMA_DISABLE(hdma);
 80090fa:	6804      	ldr	r4, [r0, #0]
 80090fc:	6826      	ldr	r6, [r4, #0]
 80090fe:	f026 0601 	bic.w	r6, r6, #1
 8009102:	6026      	str	r6, [r4, #0]
  * @retval HAL status
  */
static void DMA_SetConfig(DMA_HandleTypeDef *hdma, uint32_t SrcAddress, uint32_t DstAddress, uint32_t DataLength)
{
  /* Clear all flags */
  hdma->DmaBaseAddress->IFCR = (DMA_ISR_GIF1 << hdma->ChannelIndex);
 8009104:	e9d0 670f 	ldrd	r6, r7, [r0, #60]	@ 0x3c
 8009108:	40bd      	lsls	r5, r7
 800910a:	6075      	str	r5, [r6, #4]

  /* Configure DMA Channel data length */
  hdma->Instance->CNDTR = DataLength;
 800910c:	6063      	str	r3, [r4, #4]

  /* Memory to Peripheral */
  if((hdma->Init.Direction) == DMA_MEMORY_TO_PERIPH)
 800910e:	6843      	ldr	r3, [r0, #4]
 8009110:	2b10      	cmp	r3, #16
    if(NULL != hdma->XferHalfCpltCallback)
 8009112:	6ac3      	ldr	r3, [r0, #44]	@ 0x2c
  {
    /* Configure DMA Channel destination address */
    hdma->Instance->CPAR = DstAddress;
 8009114:	bf0b      	itete	eq
 8009116:	60a2      	streq	r2, [r4, #8]
  }
  /* Peripheral to Memory */
  else
  {
    /* Configure DMA Channel source address */
    hdma->Instance->CPAR = SrcAddress;
 8009118:	60a1      	strne	r1, [r4, #8]
    hdma->Instance->CMAR = SrcAddress;
 800911a:	60e1      	streq	r1, [r4, #12]

    /* Configure DMA Channel destination address */
    hdma->Instance->CMAR = DstAddress;
 800911c:	60e2      	strne	r2, [r4, #12]
    if(NULL != hdma->XferHalfCpltCallback)
 800911e:	b14b      	cbz	r3, 8009134 <HAL_DMA_Start_IT+0x60>
      __HAL_DMA_ENABLE_IT(hdma, (DMA_IT_TC | DMA_IT_HT | DMA_IT_TE));
 8009120:	6823      	ldr	r3, [r4, #0]
 8009122:	f043 030e 	orr.w	r3, r3, #14
  HAL_StatusTypeDef status = HAL_OK;
 8009126:	2000      	movs	r0, #0
      __HAL_DMA_ENABLE_IT(hdma, (DMA_IT_TC | DMA_IT_TE));
 8009128:	6023      	str	r3, [r4, #0]
    __HAL_DMA_ENABLE(hdma);
 800912a:	6823      	ldr	r3, [r4, #0]
 800912c:	f043 0301 	orr.w	r3, r3, #1
 8009130:	6023      	str	r3, [r4, #0]
}
 8009132:	bdf0      	pop	{r4, r5, r6, r7, pc}
      __HAL_DMA_DISABLE_IT(hdma, DMA_IT_HT);
 8009134:	6823      	ldr	r3, [r4, #0]
 8009136:	f023 0304 	bic.w	r3, r3, #4
 800913a:	6023      	str	r3, [r4, #0]
      __HAL_DMA_ENABLE_IT(hdma, (DMA_IT_TC | DMA_IT_TE));
 800913c:	6823      	ldr	r3, [r4, #0]
 800913e:	f043 030a 	orr.w	r3, r3, #10
 8009142:	e7f0      	b.n	8009126 <HAL_DMA_Start_IT+0x52>
    __HAL_UNLOCK(hdma); 
 8009144:	f880 4020 	strb.w	r4, [r0, #32]
  __HAL_LOCK(hdma);
 8009148:	2002      	movs	r0, #2
 800914a:	e7f2      	b.n	8009132 <HAL_DMA_Start_IT+0x5e>

0800914c <HAL_DMA_Abort>:
  if(hdma->State != HAL_DMA_STATE_BUSY)
 800914c:	f890 2021 	ldrb.w	r2, [r0, #33]	@ 0x21
{
 8009150:	4603      	mov	r3, r0
  if(hdma->State != HAL_DMA_STATE_BUSY)
 8009152:	2a02      	cmp	r2, #2
 8009154:	d006      	beq.n	8009164 <HAL_DMA_Abort+0x18>
    hdma->ErrorCode = HAL_DMA_ERROR_NO_XFER;
 8009156:	2204      	movs	r2, #4
 8009158:	6382      	str	r2, [r0, #56]	@ 0x38
    return HAL_ERROR;
 800915a:	2001      	movs	r0, #1
    __HAL_UNLOCK(hdma);
 800915c:	2200      	movs	r2, #0
 800915e:	f883 2020 	strb.w	r2, [r3, #32]
}
 8009162:	4770      	bx	lr
    __HAL_DMA_DISABLE_IT(hdma, (DMA_IT_TC | DMA_IT_HT | DMA_IT_TE));
 8009164:	6802      	ldr	r2, [r0, #0]
    hdma->DmaBaseAddress->IFCR = (DMA_ISR_GIF1 << hdma->ChannelIndex);
 8009166:	6bc0      	ldr	r0, [r0, #60]	@ 0x3c
    __HAL_DMA_DISABLE_IT(hdma, (DMA_IT_TC | DMA_IT_HT | DMA_IT_TE));
 8009168:	6811      	ldr	r1, [r2, #0]
 800916a:	f021 010e 	bic.w	r1, r1, #14
 800916e:	6011      	str	r1, [r2, #0]
    __HAL_DMA_DISABLE(hdma);
 8009170:	6811      	ldr	r1, [r2, #0]
 8009172:	f021 0101 	bic.w	r1, r1, #1
 8009176:	6011      	str	r1, [r2, #0]
    hdma->DmaBaseAddress->IFCR = (DMA_ISR_GIF1 << hdma->ChannelIndex);
 8009178:	2101      	movs	r1, #1
 800917a:	6c1a      	ldr	r2, [r3, #64]	@ 0x40
 800917c:	fa01 f202 	lsl.w	r2, r1, r2
 8009180:	6042      	str	r2, [r0, #4]
  return status; 
 8009182:	2000      	movs	r0, #0
  hdma->State = HAL_DMA_STATE_READY;
 8009184:	f883 1021 	strb.w	r1, [r3, #33]	@ 0x21
  return status; 
 8009188:	e7e8      	b.n	800915c <HAL_DMA_Abort+0x10>
	...

0800918c <HAL_DMA_Abort_IT>:
{  
 800918c:	b508      	push	{r3, lr}
  if(HAL_DMA_STATE_BUSY != hdma->State)
 800918e:	f890 3021 	ldrb.w	r3, [r0, #33]	@ 0x21
 8009192:	2b02      	cmp	r3, #2
 8009194:	d003      	beq.n	800919e <HAL_DMA_Abort_IT+0x12>
    hdma->ErrorCode = HAL_DMA_ERROR_NO_XFER;
 8009196:	2304      	movs	r3, #4
 8009198:	6383      	str	r3, [r0, #56]	@ 0x38
    status = HAL_ERROR;
 800919a:	2001      	movs	r0, #1
}
 800919c:	bd08      	pop	{r3, pc}
    __HAL_DMA_DISABLE_IT(hdma, (DMA_IT_TC | DMA_IT_HT | DMA_IT_TE));
 800919e:	6803      	ldr	r3, [r0, #0]
 80091a0:	681a      	ldr	r2, [r3, #0]
 80091a2:	f022 020e 	bic.w	r2, r2, #14
 80091a6:	601a      	str	r2, [r3, #0]
    __HAL_DMA_DISABLE(hdma);
 80091a8:	681a      	ldr	r2, [r3, #0]
 80091aa:	f022 0201 	bic.w	r2, r2, #1
 80091ae:	601a      	str	r2, [r3, #0]
    __HAL_DMA_CLEAR_FLAG(hdma, __HAL_DMA_GET_GI_FLAG_INDEX(hdma));
 80091b0:	4a17      	ldr	r2, [pc, #92]	@ (8009210 <HAL_DMA_Abort_IT+0x84>)
 80091b2:	4293      	cmp	r3, r2
 80091b4:	d01f      	beq.n	80091f6 <HAL_DMA_Abort_IT+0x6a>
 80091b6:	3214      	adds	r2, #20
 80091b8:	4293      	cmp	r3, r2
 80091ba:	d01e      	beq.n	80091fa <HAL_DMA_Abort_IT+0x6e>
 80091bc:	3214      	adds	r2, #20
 80091be:	4293      	cmp	r3, r2
 80091c0:	d01d      	beq.n	80091fe <HAL_DMA_Abort_IT+0x72>
 80091c2:	3214      	adds	r2, #20
 80091c4:	4293      	cmp	r3, r2
 80091c6:	d01d      	beq.n	8009204 <HAL_DMA_Abort_IT+0x78>
 80091c8:	3214      	adds	r2, #20
 80091ca:	4293      	cmp	r3, r2
 80091cc:	d01d      	beq.n	800920a <HAL_DMA_Abort_IT+0x7e>
 80091ce:	3214      	adds	r2, #20
 80091d0:	4293      	cmp	r3, r2
 80091d2:	bf14      	ite	ne
 80091d4:	f04f 7380 	movne.w	r3, #16777216	@ 0x1000000
 80091d8:	f44f 1380 	moveq.w	r3, #1048576	@ 0x100000
 80091dc:	4a0d      	ldr	r2, [pc, #52]	@ (8009214 <HAL_DMA_Abort_IT+0x88>)
 80091de:	6053      	str	r3, [r2, #4]
    hdma->State = HAL_DMA_STATE_READY;
 80091e0:	2301      	movs	r3, #1
 80091e2:	f880 3021 	strb.w	r3, [r0, #33]	@ 0x21
    __HAL_UNLOCK(hdma);
 80091e6:	2300      	movs	r3, #0
 80091e8:	f880 3020 	strb.w	r3, [r0, #32]
    if(hdma->XferAbortCallback != NULL)
 80091ec:	6b43      	ldr	r3, [r0, #52]	@ 0x34
 80091ee:	b103      	cbz	r3, 80091f2 <HAL_DMA_Abort_IT+0x66>
      hdma->XferAbortCallback(hdma);
 80091f0:	4798      	blx	r3
  HAL_StatusTypeDef status = HAL_OK;
 80091f2:	2000      	movs	r0, #0
 80091f4:	e7d2      	b.n	800919c <HAL_DMA_Abort_IT+0x10>
    __HAL_DMA_CLEAR_FLAG(hdma, __HAL_DMA_GET_GI_FLAG_INDEX(hdma));
 80091f6:	2301      	movs	r3, #1
 80091f8:	e7f0      	b.n	80091dc <HAL_DMA_Abort_IT+0x50>
 80091fa:	2310      	movs	r3, #16
 80091fc:	e7ee      	b.n	80091dc <HAL_DMA_Abort_IT+0x50>
 80091fe:	f44f 7380 	mov.w	r3, #256	@ 0x100
 8009202:	e7eb      	b.n	80091dc <HAL_DMA_Abort_IT+0x50>
 8009204:	f44f 5380 	mov.w	r3, #4096	@ 0x1000
 8009208:	e7e8      	b.n	80091dc <HAL_DMA_Abort_IT+0x50>
 800920a:	f44f 3380 	mov.w	r3, #65536	@ 0x10000
 800920e:	e7e5      	b.n	80091dc <HAL_DMA_Abort_IT+0x50>
 8009210:	40020008 	.word	0x40020008
 8009214:	40020000 	.word	0x40020000

08009218 <HAL_DMA_IRQHandler>:
{
 8009218:	b470      	push	{r4, r5, r6}
  if (((flag_it & (DMA_FLAG_HT1 << hdma->ChannelIndex)) != RESET) && ((source_it & DMA_IT_HT) != RESET))
 800921a:	2504      	movs	r5, #4
  uint32_t flag_it = hdma->DmaBaseAddress->ISR;
 800921c:	6bc6      	ldr	r6, [r0, #60]	@ 0x3c
  if (((flag_it & (DMA_FLAG_HT1 << hdma->ChannelIndex)) != RESET) && ((source_it & DMA_IT_HT) != RESET))
 800921e:	6c02      	ldr	r2, [r0, #64]	@ 0x40
  uint32_t flag_it = hdma->DmaBaseAddress->ISR;
 8009220:	6834      	ldr	r4, [r6, #0]
  uint32_t source_it = hdma->Instance->CCR;
 8009222:	6803      	ldr	r3, [r0, #0]
  if (((flag_it & (DMA_FLAG_HT1 << hdma->ChannelIndex)) != RESET) && ((source_it & DMA_IT_HT) != RESET))
 8009224:	4095      	lsls	r5, r2
 8009226:	4225      	tst	r5, r4
  uint32_t source_it = hdma->Instance->CCR;
 8009228:	6819      	ldr	r1, [r3, #0]
  if (((flag_it & (DMA_FLAG_HT1 << hdma->ChannelIndex)) != RESET) && ((source_it & DMA_IT_HT) != RESET))
 800922a:	d032      	beq.n	8009292 <HAL_DMA_IRQHandler+0x7a>
 800922c:	074d      	lsls	r5, r1, #29
 800922e:	d530      	bpl.n	8009292 <HAL_DMA_IRQHandler+0x7a>
    if((hdma->Instance->CCR & DMA_CCR_CIRC) == 0U)
 8009230:	681a      	ldr	r2, [r3, #0]
 8009232:	0696      	lsls	r6, r2, #26
      __HAL_DMA_DISABLE_IT(hdma, DMA_IT_HT);
 8009234:	bf5e      	ittt	pl
 8009236:	681a      	ldrpl	r2, [r3, #0]
 8009238:	f022 0204 	bicpl.w	r2, r2, #4
 800923c:	601a      	strpl	r2, [r3, #0]
    __HAL_DMA_CLEAR_FLAG(hdma, __HAL_DMA_GET_HT_FLAG_INDEX(hdma));
 800923e:	4a3e      	ldr	r2, [pc, #248]	@ (8009338 <HAL_DMA_IRQHandler+0x120>)
 8009240:	4293      	cmp	r3, r2
 8009242:	d019      	beq.n	8009278 <HAL_DMA_IRQHandler+0x60>
 8009244:	3214      	adds	r2, #20
 8009246:	4293      	cmp	r3, r2
 8009248:	d018      	beq.n	800927c <HAL_DMA_IRQHandler+0x64>
 800924a:	3214      	adds	r2, #20
 800924c:	4293      	cmp	r3, r2
 800924e:	d017      	beq.n	8009280 <HAL_DMA_IRQHandler+0x68>
 8009250:	3214      	adds	r2, #20
 8009252:	4293      	cmp	r3, r2
 8009254:	d017      	beq.n	8009286 <HAL_DMA_IRQHandler+0x6e>
 8009256:	3214      	adds	r2, #20
 8009258:	4293      	cmp	r3, r2
 800925a:	d017      	beq.n	800928c <HAL_DMA_IRQHandler+0x74>
 800925c:	3214      	adds	r2, #20
 800925e:	4293      	cmp	r3, r2
 8009260:	bf14      	ite	ne
 8009262:	f04f 6380 	movne.w	r3, #67108864	@ 0x4000000
 8009266:	f44f 0380 	moveq.w	r3, #4194304	@ 0x400000
 800926a:	4a34      	ldr	r2, [pc, #208]	@ (800933c <HAL_DMA_IRQHandler+0x124>)
 800926c:	6053      	str	r3, [r2, #4]
    if(hdma->XferHalfCpltCallback != NULL)
 800926e:	6ac3      	ldr	r3, [r0, #44]	@ 0x2c
    if (hdma->XferErrorCallback != NULL)
 8009270:	2b00      	cmp	r3, #0
 8009272:	d05e      	beq.n	8009332 <HAL_DMA_IRQHandler+0x11a>
}
 8009274:	bc70      	pop	{r4, r5, r6}
      hdma->XferErrorCallback(hdma);
 8009276:	4718      	bx	r3
    __HAL_DMA_CLEAR_FLAG(hdma, __HAL_DMA_GET_HT_FLAG_INDEX(hdma));
 8009278:	2304      	movs	r3, #4
 800927a:	e7f6      	b.n	800926a <HAL_DMA_IRQHandler+0x52>
 800927c:	2340      	movs	r3, #64	@ 0x40
 800927e:	e7f4      	b.n	800926a <HAL_DMA_IRQHandler+0x52>
 8009280:	f44f 6380 	mov.w	r3, #1024	@ 0x400
 8009284:	e7f1      	b.n	800926a <HAL_DMA_IRQHandler+0x52>
 8009286:	f44f 4380 	mov.w	r3, #16384	@ 0x4000
 800928a:	e7ee      	b.n	800926a <HAL_DMA_IRQHandler+0x52>
 800928c:	f44f 2380 	mov.w	r3, #262144	@ 0x40000
 8009290:	e7eb      	b.n	800926a <HAL_DMA_IRQHandler+0x52>
  else if (((flag_it & (DMA_FLAG_TC1 << hdma->ChannelIndex)) != RESET) && ((source_it & DMA_IT_TC) != RESET))
 8009292:	2502      	movs	r5, #2
 8009294:	4095      	lsls	r5, r2
 8009296:	4225      	tst	r5, r4
 8009298:	d035      	beq.n	8009306 <HAL_DMA_IRQHandler+0xee>
 800929a:	078d      	lsls	r5, r1, #30
 800929c:	d533      	bpl.n	8009306 <HAL_DMA_IRQHandler+0xee>
    if((hdma->Instance->CCR & DMA_CCR_CIRC) == 0U)
 800929e:	681a      	ldr	r2, [r3, #0]
 80092a0:	0694      	lsls	r4, r2, #26
 80092a2:	d406      	bmi.n	80092b2 <HAL_DMA_IRQHandler+0x9a>
      __HAL_DMA_DISABLE_IT(hdma, DMA_IT_TE | DMA_IT_TC);  
 80092a4:	681a      	ldr	r2, [r3, #0]
 80092a6:	f022 020a 	bic.w	r2, r2, #10
 80092aa:	601a      	str	r2, [r3, #0]
      hdma->State = HAL_DMA_STATE_READY;
 80092ac:	2201      	movs	r2, #1
 80092ae:	f880 2021 	strb.w	r2, [r0, #33]	@ 0x21
      __HAL_DMA_CLEAR_FLAG(hdma, __HAL_DMA_GET_TC_FLAG_INDEX(hdma));
 80092b2:	4a21      	ldr	r2, [pc, #132]	@ (8009338 <HAL_DMA_IRQHandler+0x120>)
 80092b4:	4293      	cmp	r3, r2
 80092b6:	d019      	beq.n	80092ec <HAL_DMA_IRQHandler+0xd4>
 80092b8:	3214      	adds	r2, #20
 80092ba:	4293      	cmp	r3, r2
 80092bc:	d018      	beq.n	80092f0 <HAL_DMA_IRQHandler+0xd8>
 80092be:	3214      	adds	r2, #20
 80092c0:	4293      	cmp	r3, r2
 80092c2:	d017      	beq.n	80092f4 <HAL_DMA_IRQHandler+0xdc>
 80092c4:	3214      	adds	r2, #20
 80092c6:	4293      	cmp	r3, r2
 80092c8:	d017      	beq.n	80092fa <HAL_DMA_IRQHandler+0xe2>
 80092ca:	3214      	adds	r2, #20
 80092cc:	4293      	cmp	r3, r2
 80092ce:	d017      	beq.n	8009300 <HAL_DMA_IRQHandler+0xe8>
 80092d0:	3214      	adds	r2, #20
 80092d2:	4293      	cmp	r3, r2
 80092d4:	bf14      	ite	ne
 80092d6:	f04f 7300 	movne.w	r3, #33554432	@ 0x2000000
 80092da:	f44f 1300 	moveq.w	r3, #2097152	@ 0x200000
 80092de:	4a17      	ldr	r2, [pc, #92]	@ (800933c <HAL_DMA_IRQHandler+0x124>)
 80092e0:	6053      	str	r3, [r2, #4]
    __HAL_UNLOCK(hdma);
 80092e2:	2300      	movs	r3, #0
 80092e4:	f880 3020 	strb.w	r3, [r0, #32]
    if(hdma->XferCpltCallback != NULL)
 80092e8:	6a83      	ldr	r3, [r0, #40]	@ 0x28
 80092ea:	e7c1      	b.n	8009270 <HAL_DMA_IRQHandler+0x58>
      __HAL_DMA_CLEAR_FLAG(hdma, __HAL_DMA_GET_TC_FLAG_INDEX(hdma));
 80092ec:	2302      	movs	r3, #2
 80092ee:	e7f6      	b.n	80092de <HAL_DMA_IRQHandler+0xc6>
 80092f0:	2320      	movs	r3, #32
 80092f2:	e7f4      	b.n	80092de <HAL_DMA_IRQHandler+0xc6>
 80092f4:	f44f 7300 	mov.w	r3, #512	@ 0x200
 80092f8:	e7f1      	b.n	80092de <HAL_DMA_IRQHandler+0xc6>
 80092fa:	f44f 5300 	mov.w	r3, #8192	@ 0x2000
 80092fe:	e7ee      	b.n	80092de <HAL_DMA_IRQHandler+0xc6>
 8009300:	f44f 3300 	mov.w	r3, #131072	@ 0x20000
 8009304:	e7eb      	b.n	80092de <HAL_DMA_IRQHandler+0xc6>
  else if (( RESET != (flag_it & (DMA_FLAG_TE1 << hdma->ChannelIndex))) && (RESET != (source_it & DMA_IT_TE)))
 8009306:	2508      	movs	r5, #8
 8009308:	4095      	lsls	r5, r2
 800930a:	4225      	tst	r5, r4
 800930c:	d011      	beq.n	8009332 <HAL_DMA_IRQHandler+0x11a>
 800930e:	0709      	lsls	r1, r1, #28
 8009310:	d50f      	bpl.n	8009332 <HAL_DMA_IRQHandler+0x11a>
    __HAL_DMA_DISABLE_IT(hdma, (DMA_IT_TC | DMA_IT_HT | DMA_IT_TE));
 8009312:	6819      	ldr	r1, [r3, #0]
 8009314:	f021 010e 	bic.w	r1, r1, #14
 8009318:	6019      	str	r1, [r3, #0]
    hdma->DmaBaseAddress->IFCR = (DMA_ISR_GIF1 << hdma->ChannelIndex);
 800931a:	2301      	movs	r3, #1
 800931c:	fa03 f202 	lsl.w	r2, r3, r2
 8009320:	6072      	str	r2, [r6, #4]
    hdma->ErrorCode = HAL_DMA_ERROR_TE;
 8009322:	6383      	str	r3, [r0, #56]	@ 0x38
    hdma->State = HAL_DMA_STATE_READY;
 8009324:	f880 3021 	strb.w	r3, [r0, #33]	@ 0x21
    __HAL_UNLOCK(hdma);
 8009328:	2300      	movs	r3, #0
 800932a:	f880 3020 	strb.w	r3, [r0, #32]
    if (hdma->XferErrorCallback != NULL)
 800932e:	6b03      	ldr	r3, [r0, #48]	@ 0x30
 8009330:	e79e      	b.n	8009270 <HAL_DMA_IRQHandler+0x58>
}
 8009332:	bc70      	pop	{r4, r5, r6}
 8009334:	4770      	bx	lr
 8009336:	bf00      	nop
 8009338:	40020008 	.word	0x40020008
 800933c:	40020000 	.word	0x40020000

08009340 <FLASH_SetErrorCode>:
  uint32_t flags = 0U;
  
#if defined(FLASH_BANK2_END)
  if(__HAL_FLASH_GET_FLAG(FLASH_FLAG_WRPERR) || __HAL_FLASH_GET_FLAG(FLASH_FLAG_WRPERR_BANK2))
#else
  if(__HAL_FLASH_GET_FLAG(FLASH_FLAG_WRPERR))
 8009340:	4a11      	ldr	r2, [pc, #68]	@ (8009388 <FLASH_SetErrorCode+0x48>)
 8009342:	68d3      	ldr	r3, [r2, #12]
 8009344:	f013 0310 	ands.w	r3, r3, #16
 8009348:	d005      	beq.n	8009356 <FLASH_SetErrorCode+0x16>
#endif /* FLASH_BANK2_END */
  {
    pFlash.ErrorCode |= HAL_FLASH_ERROR_WRP;
 800934a:	4910      	ldr	r1, [pc, #64]	@ (800938c <FLASH_SetErrorCode+0x4c>)
 800934c:	69cb      	ldr	r3, [r1, #28]
 800934e:	f043 0302 	orr.w	r3, r3, #2
 8009352:	61cb      	str	r3, [r1, #28]
#if defined(FLASH_BANK2_END)
    flags |= FLASH_FLAG_WRPERR | FLASH_FLAG_WRPERR_BANK2;
#else
    flags |= FLASH_FLAG_WRPERR;
 8009354:	2310      	movs	r3, #16
#endif /* FLASH_BANK2_END */
  }
#if defined(FLASH_BANK2_END)
  if(__HAL_FLASH_GET_FLAG(FLASH_FLAG_PGERR) || __HAL_FLASH_GET_FLAG(FLASH_FLAG_PGERR_BANK2))
#else
  if(__HAL_FLASH_GET_FLAG(FLASH_FLAG_PGERR))
 8009356:	68d2      	ldr	r2, [r2, #12]
 8009358:	0750      	lsls	r0, r2, #29
 800935a:	d506      	bpl.n	800936a <FLASH_SetErrorCode+0x2a>
#endif /* FLASH_BANK2_END */
  {
    pFlash.ErrorCode |= HAL_FLASH_ERROR_PROG;
 800935c:	490b      	ldr	r1, [pc, #44]	@ (800938c <FLASH_SetErrorCode+0x4c>)
#if defined(FLASH_BANK2_END)
    flags |= FLASH_FLAG_PGERR | FLASH_FLAG_PGERR_BANK2;
#else
    flags |= FLASH_FLAG_PGERR;
 800935e:	f043 0304 	orr.w	r3, r3, #4
    pFlash.ErrorCode |= HAL_FLASH_ERROR_PROG;
 8009362:	69ca      	ldr	r2, [r1, #28]
 8009364:	f042 0201 	orr.w	r2, r2, #1
 8009368:	61ca      	str	r2, [r1, #28]
#endif /* FLASH_BANK2_END */
  }
  if(__HAL_FLASH_GET_FLAG(FLASH_FLAG_OPTVERR))
 800936a:	4a07      	ldr	r2, [pc, #28]	@ (8009388 <FLASH_SetErrorCode+0x48>)
 800936c:	69d1      	ldr	r1, [r2, #28]
 800936e:	07c9      	lsls	r1, r1, #31
 8009370:	d508      	bpl.n	8009384 <FLASH_SetErrorCode+0x44>
  {
    pFlash.ErrorCode |= HAL_FLASH_ERROR_OPTV;
 8009372:	4806      	ldr	r0, [pc, #24]	@ (800938c <FLASH_SetErrorCode+0x4c>)
 8009374:	69c1      	ldr	r1, [r0, #28]
 8009376:	f041 0104 	orr.w	r1, r1, #4
 800937a:	61c1      	str	r1, [r0, #28]
  __HAL_FLASH_CLEAR_FLAG(FLASH_FLAG_OPTVERR);
 800937c:	69d1      	ldr	r1, [r2, #28]
 800937e:	f021 0101 	bic.w	r1, r1, #1
 8009382:	61d1      	str	r1, [r2, #28]
  }

  /* Clear FLASH error pending bits */
  __HAL_FLASH_CLEAR_FLAG(flags);
 8009384:	60d3      	str	r3, [r2, #12]
}  
 8009386:	4770      	bx	lr
 8009388:	40022000 	.word	0x40022000
 800938c:	20001720 	.word	0x20001720

08009390 <HAL_FLASH_Unlock>:
  if(READ_BIT(FLASH->CR, FLASH_CR_LOCK) != RESET)
 8009390:	4b06      	ldr	r3, [pc, #24]	@ (80093ac <HAL_FLASH_Unlock+0x1c>)
 8009392:	6918      	ldr	r0, [r3, #16]
 8009394:	f010 0080 	ands.w	r0, r0, #128	@ 0x80
 8009398:	d007      	beq.n	80093aa <HAL_FLASH_Unlock+0x1a>
    WRITE_REG(FLASH->KEYR, FLASH_KEY1);
 800939a:	4a05      	ldr	r2, [pc, #20]	@ (80093b0 <HAL_FLASH_Unlock+0x20>)
 800939c:	605a      	str	r2, [r3, #4]
    WRITE_REG(FLASH->KEYR, FLASH_KEY2);
 800939e:	f102 3288 	add.w	r2, r2, #2290649224	@ 0x88888888
 80093a2:	605a      	str	r2, [r3, #4]
    if(READ_BIT(FLASH->CR, FLASH_CR_LOCK) != RESET)
 80093a4:	6918      	ldr	r0, [r3, #16]
 80093a6:	f3c0 10c0 	ubfx	r0, r0, #7, #1
}
 80093aa:	4770      	bx	lr
 80093ac:	40022000 	.word	0x40022000
 80093b0:	45670123 	.word	0x45670123

080093b4 <HAL_FLASH_Lock>:
  SET_BIT(FLASH->CR, FLASH_CR_LOCK);
 80093b4:	4a03      	ldr	r2, [pc, #12]	@ (80093c4 <HAL_FLASH_Lock+0x10>)
}
 80093b6:	2000      	movs	r0, #0
  SET_BIT(FLASH->CR, FLASH_CR_LOCK);
 80093b8:	6913      	ldr	r3, [r2, #16]
 80093ba:	f043 0380 	orr.w	r3, r3, #128	@ 0x80
 80093be:	6113      	str	r3, [r2, #16]
}
 80093c0:	4770      	bx	lr
 80093c2:	bf00      	nop
 80093c4:	40022000 	.word	0x40022000

080093c8 <HAL_FLASH_GetError>:
   return pFlash.ErrorCode;
 80093c8:	4b01      	ldr	r3, [pc, #4]	@ (80093d0 <HAL_FLASH_GetError+0x8>)
 80093ca:	69d8      	ldr	r0, [r3, #28]
}
 80093cc:	4770      	bx	lr
 80093ce:	bf00      	nop
 80093d0:	20001720 	.word	0x20001720

080093d4 <FLASH_WaitForLastOperation>:
{
 80093d4:	b570      	push	{r4, r5, r6, lr}
 80093d6:	4605      	mov	r5, r0
  uint32_t tickstart = HAL_GetTick();
 80093d8:	f7ff fab2 	bl	8008940 <HAL_GetTick>
 80093dc:	4606      	mov	r6, r0
  while(__HAL_FLASH_GET_FLAG(FLASH_FLAG_BSY)) 
 80093de:	4c11      	ldr	r4, [pc, #68]	@ (8009424 <FLASH_WaitForLastOperation+0x50>)
 80093e0:	68e3      	ldr	r3, [r4, #12]
 80093e2:	07d8      	lsls	r0, r3, #31
 80093e4:	d412      	bmi.n	800940c <FLASH_WaitForLastOperation+0x38>
  if (__HAL_FLASH_GET_FLAG(FLASH_FLAG_EOP))
 80093e6:	68e3      	ldr	r3, [r4, #12]
 80093e8:	0699      	lsls	r1, r3, #26
    __HAL_FLASH_CLEAR_FLAG(FLASH_FLAG_EOP);
 80093ea:	bf44      	itt	mi
 80093ec:	2320      	movmi	r3, #32
 80093ee:	60e3      	strmi	r3, [r4, #12]
  if(__HAL_FLASH_GET_FLAG(FLASH_FLAG_WRPERR)  || 
 80093f0:	68e3      	ldr	r3, [r4, #12]
 80093f2:	06da      	lsls	r2, r3, #27
 80093f4:	d406      	bmi.n	8009404 <FLASH_WaitForLastOperation+0x30>
     __HAL_FLASH_GET_FLAG(FLASH_FLAG_OPTVERR) || 
 80093f6:	69e3      	ldr	r3, [r4, #28]
  if(__HAL_FLASH_GET_FLAG(FLASH_FLAG_WRPERR)  || 
 80093f8:	07db      	lsls	r3, r3, #31
 80093fa:	d403      	bmi.n	8009404 <FLASH_WaitForLastOperation+0x30>
     __HAL_FLASH_GET_FLAG(FLASH_FLAG_PGERR))
 80093fc:	68e0      	ldr	r0, [r4, #12]
     __HAL_FLASH_GET_FLAG(FLASH_FLAG_OPTVERR) || 
 80093fe:	f010 0004 	ands.w	r0, r0, #4
 8009402:	d007      	beq.n	8009414 <FLASH_WaitForLastOperation+0x40>
    FLASH_SetErrorCode();
 8009404:	f7ff ff9c 	bl	8009340 <FLASH_SetErrorCode>
    return HAL_ERROR;
 8009408:	2001      	movs	r0, #1
 800940a:	e003      	b.n	8009414 <FLASH_WaitForLastOperation+0x40>
    if (Timeout != HAL_MAX_DELAY)
 800940c:	1c6b      	adds	r3, r5, #1
 800940e:	d0e7      	beq.n	80093e0 <FLASH_WaitForLastOperation+0xc>
      if((Timeout == 0U) || ((HAL_GetTick()-tickstart) > Timeout))
 8009410:	b90d      	cbnz	r5, 8009416 <FLASH_WaitForLastOperation+0x42>
        return HAL_TIMEOUT;
 8009412:	2003      	movs	r0, #3
}
 8009414:	bd70      	pop	{r4, r5, r6, pc}
      if((Timeout == 0U) || ((HAL_GetTick()-tickstart) > Timeout))
 8009416:	f7ff fa93 	bl	8008940 <HAL_GetTick>
 800941a:	1b80      	subs	r0, r0, r6
 800941c:	42a8      	cmp	r0, r5
 800941e:	d9df      	bls.n	80093e0 <FLASH_WaitForLastOperation+0xc>
 8009420:	e7f7      	b.n	8009412 <FLASH_WaitForLastOperation+0x3e>
 8009422:	bf00      	nop
 8009424:	40022000 	.word	0x40022000

08009428 <HAL_FLASH_Program>:
{
 8009428:	e92d 4ff8 	stmdb	sp!, {r3, r4, r5, r6, r7, r8, r9, sl, fp, lr}
  __HAL_LOCK(&pFlash);
 800942c:	f8df a094 	ldr.w	sl, [pc, #148]	@ 80094c4 <HAL_FLASH_Program+0x9c>
{
 8009430:	461f      	mov	r7, r3
  __HAL_LOCK(&pFlash);
 8009432:	f89a 3018 	ldrb.w	r3, [sl, #24]
{
 8009436:	4605      	mov	r5, r0
  __HAL_LOCK(&pFlash);
 8009438:	2b01      	cmp	r3, #1
{
 800943a:	4688      	mov	r8, r1
 800943c:	4691      	mov	r9, r2
  __HAL_LOCK(&pFlash);
 800943e:	d03f      	beq.n	80094c0 <HAL_FLASH_Program+0x98>
 8009440:	2301      	movs	r3, #1
    status = FLASH_WaitForLastOperation(FLASH_TIMEOUT_VALUE);
 8009442:	f24c 3050 	movw	r0, #50000	@ 0xc350
  __HAL_LOCK(&pFlash);
 8009446:	f88a 3018 	strb.w	r3, [sl, #24]
    status = FLASH_WaitForLastOperation(FLASH_TIMEOUT_VALUE);
 800944a:	f7ff ffc3 	bl	80093d4 <FLASH_WaitForLastOperation>
  if(status == HAL_OK)
 800944e:	bb90      	cbnz	r0, 80094b6 <HAL_FLASH_Program+0x8e>
    if(TypeProgram == FLASH_TYPEPROGRAM_HALFWORD)
 8009450:	2d01      	cmp	r5, #1
 8009452:	d003      	beq.n	800945c <HAL_FLASH_Program+0x34>
      nbiterations = 2U;
 8009454:	2d02      	cmp	r5, #2
 8009456:	bf14      	ite	ne
 8009458:	2504      	movne	r5, #4
 800945a:	2502      	moveq	r5, #2
      nbiterations = 4U;
 800945c:	2600      	movs	r6, #0
  pFlash.ErrorCode = HAL_FLASH_ERROR_NONE;
 800945e:	4633      	mov	r3, r6
    SET_BIT(FLASH->CR, FLASH_CR_PG);
 8009460:	f8df b064 	ldr.w	fp, [pc, #100]	@ 80094c8 <HAL_FLASH_Program+0xa0>
      FLASH_Program_HalfWord((Address + (2U*index)), (uint16_t)(Data >> (16U*index)));
 8009464:	0134      	lsls	r4, r6, #4
 8009466:	f1c4 0120 	rsb	r1, r4, #32
 800946a:	f1a4 0220 	sub.w	r2, r4, #32
 800946e:	fa07 f101 	lsl.w	r1, r7, r1
 8009472:	fa29 f404 	lsr.w	r4, r9, r4
  pFlash.ErrorCode = HAL_FLASH_ERROR_NONE;
 8009476:	f8ca 301c 	str.w	r3, [sl, #28]
      FLASH_Program_HalfWord((Address + (2U*index)), (uint16_t)(Data >> (16U*index)));
 800947a:	430c      	orrs	r4, r1
 800947c:	fa27 f202 	lsr.w	r2, r7, r2
 8009480:	4314      	orrs	r4, r2
    SET_BIT(FLASH->CR, FLASH_CR_PG);
 8009482:	f8db 2010 	ldr.w	r2, [fp, #16]
      FLASH_Program_HalfWord((Address + (2U*index)), (uint16_t)(Data >> (16U*index)));
 8009486:	b2a4      	uxth	r4, r4
    SET_BIT(FLASH->CR, FLASH_CR_PG);
 8009488:	f042 0201 	orr.w	r2, r2, #1
 800948c:	f8cb 2010 	str.w	r2, [fp, #16]
        status = FLASH_WaitForLastOperation(FLASH_TIMEOUT_VALUE);
 8009490:	f24c 3050 	movw	r0, #50000	@ 0xc350
  *(__IO uint16_t*)Address = Data;
 8009494:	f828 4016 	strh.w	r4, [r8, r6, lsl #1]
        status = FLASH_WaitForLastOperation(FLASH_TIMEOUT_VALUE);
 8009498:	f7ff ff9c 	bl	80093d4 <FLASH_WaitForLastOperation>
        CLEAR_BIT(FLASH->CR, FLASH_CR_PG);
 800949c:	f8db 2010 	ldr.w	r2, [fp, #16]
 80094a0:	f022 0201 	bic.w	r2, r2, #1
 80094a4:	f8cb 2010 	str.w	r2, [fp, #16]
      if (status != HAL_OK)
 80094a8:	b928      	cbnz	r0, 80094b6 <HAL_FLASH_Program+0x8e>
    for (index = 0U; index < nbiterations; index++)
 80094aa:	3601      	adds	r6, #1
 80094ac:	b2f2      	uxtb	r2, r6
 80094ae:	4295      	cmp	r5, r2
 80094b0:	f04f 0300 	mov.w	r3, #0
 80094b4:	d8d6      	bhi.n	8009464 <HAL_FLASH_Program+0x3c>
  __HAL_UNLOCK(&pFlash);
 80094b6:	2300      	movs	r3, #0
 80094b8:	f88a 3018 	strb.w	r3, [sl, #24]
}
 80094bc:	e8bd 8ff8 	ldmia.w	sp!, {r3, r4, r5, r6, r7, r8, r9, sl, fp, pc}
  __HAL_LOCK(&pFlash);
 80094c0:	2002      	movs	r0, #2
 80094c2:	e7fb      	b.n	80094bc <HAL_FLASH_Program+0x94>
 80094c4:	20001720 	.word	0x20001720
 80094c8:	40022000 	.word	0x40022000

080094cc <FLASH_PageErase>:
  * @retval None
  */
void FLASH_PageErase(uint32_t PageAddress)
{
  /* Clean the error context */
  pFlash.ErrorCode = HAL_FLASH_ERROR_NONE;
 80094cc:	2200      	movs	r2, #0
 80094ce:	4b06      	ldr	r3, [pc, #24]	@ (80094e8 <FLASH_PageErase+0x1c>)
 80094d0:	61da      	str	r2, [r3, #28]
  }
  else
  {
#endif /* FLASH_BANK2_END */
    /* Proceed to erase the page */
    SET_BIT(FLASH->CR, FLASH_CR_PER);
 80094d2:	4b06      	ldr	r3, [pc, #24]	@ (80094ec <FLASH_PageErase+0x20>)
 80094d4:	691a      	ldr	r2, [r3, #16]
 80094d6:	f042 0202 	orr.w	r2, r2, #2
 80094da:	611a      	str	r2, [r3, #16]
    WRITE_REG(FLASH->AR, PageAddress);
 80094dc:	6158      	str	r0, [r3, #20]
    SET_BIT(FLASH->CR, FLASH_CR_STRT);
 80094de:	691a      	ldr	r2, [r3, #16]
 80094e0:	f042 0240 	orr.w	r2, r2, #64	@ 0x40
 80094e4:	611a      	str	r2, [r3, #16]
#if defined(FLASH_BANK2_END)
  }
#endif /* FLASH_BANK2_END */
}
 80094e6:	4770      	bx	lr
 80094e8:	20001720 	.word	0x20001720
 80094ec:	40022000 	.word	0x40022000

080094f0 <HAL_FLASHEx_Erase>:
{
 80094f0:	e92d 41f0 	stmdb	sp!, {r4, r5, r6, r7, r8, lr}
  __HAL_LOCK(&pFlash);
 80094f4:	4f26      	ldr	r7, [pc, #152]	@ (8009590 <HAL_FLASHEx_Erase+0xa0>)
{
 80094f6:	4605      	mov	r5, r0
  __HAL_LOCK(&pFlash);
 80094f8:	7e3b      	ldrb	r3, [r7, #24]
{
 80094fa:	4688      	mov	r8, r1
  __HAL_LOCK(&pFlash);
 80094fc:	2b01      	cmp	r3, #1
 80094fe:	d044      	beq.n	800958a <HAL_FLASHEx_Erase+0x9a>
 8009500:	2401      	movs	r4, #1
 8009502:	763c      	strb	r4, [r7, #24]
  if (pEraseInit->TypeErase == FLASH_TYPEERASE_MASSERASE)
 8009504:	6803      	ldr	r3, [r0, #0]
      if (FLASH_WaitForLastOperation((uint32_t)FLASH_TIMEOUT_VALUE) == HAL_OK)
 8009506:	f24c 3050 	movw	r0, #50000	@ 0xc350
  if (pEraseInit->TypeErase == FLASH_TYPEERASE_MASSERASE)
 800950a:	2b02      	cmp	r3, #2
 800950c:	d11a      	bne.n	8009544 <HAL_FLASHEx_Erase+0x54>
      if (FLASH_WaitForLastOperation((uint32_t)FLASH_TIMEOUT_VALUE) == HAL_OK)
 800950e:	f7ff ff61 	bl	80093d4 <FLASH_WaitForLastOperation>
 8009512:	b120      	cbz	r0, 800951e <HAL_FLASHEx_Erase+0x2e>
  HAL_StatusTypeDef status = HAL_ERROR;
 8009514:	2001      	movs	r0, #1
  __HAL_UNLOCK(&pFlash);
 8009516:	2300      	movs	r3, #0
 8009518:	763b      	strb	r3, [r7, #24]
}
 800951a:	e8bd 81f0 	ldmia.w	sp!, {r4, r5, r6, r7, r8, pc}
    SET_BIT(FLASH->CR, FLASH_CR_MER);
 800951e:	4c1d      	ldr	r4, [pc, #116]	@ (8009594 <HAL_FLASHEx_Erase+0xa4>)
  pFlash.ErrorCode = HAL_FLASH_ERROR_NONE;
 8009520:	61f8      	str	r0, [r7, #28]
    SET_BIT(FLASH->CR, FLASH_CR_MER);
 8009522:	6923      	ldr	r3, [r4, #16]
        status = FLASH_WaitForLastOperation((uint32_t)FLASH_TIMEOUT_VALUE);
 8009524:	f24c 3050 	movw	r0, #50000	@ 0xc350
    SET_BIT(FLASH->CR, FLASH_CR_MER);
 8009528:	f043 0304 	orr.w	r3, r3, #4
 800952c:	6123      	str	r3, [r4, #16]
    SET_BIT(FLASH->CR, FLASH_CR_STRT);
 800952e:	6923      	ldr	r3, [r4, #16]
 8009530:	f043 0340 	orr.w	r3, r3, #64	@ 0x40
 8009534:	6123      	str	r3, [r4, #16]
        status = FLASH_WaitForLastOperation((uint32_t)FLASH_TIMEOUT_VALUE);
 8009536:	f7ff ff4d 	bl	80093d4 <FLASH_WaitForLastOperation>
        CLEAR_BIT(FLASH->CR, FLASH_CR_MER);
 800953a:	6923      	ldr	r3, [r4, #16]
 800953c:	f023 0304 	bic.w	r3, r3, #4
 8009540:	6123      	str	r3, [r4, #16]
 8009542:	e7e8      	b.n	8009516 <HAL_FLASHEx_Erase+0x26>
      if (FLASH_WaitForLastOperation((uint32_t)FLASH_TIMEOUT_VALUE) == HAL_OK)
 8009544:	f7ff ff46 	bl	80093d4 <FLASH_WaitForLastOperation>
 8009548:	2800      	cmp	r0, #0
 800954a:	d1e3      	bne.n	8009514 <HAL_FLASHEx_Erase+0x24>
        *PageError = 0xFFFFFFFFU;
 800954c:	f04f 33ff 	mov.w	r3, #4294967295
 8009550:	f8c8 3000 	str.w	r3, [r8]
  HAL_StatusTypeDef status = HAL_ERROR;
 8009554:	4620      	mov	r0, r4
        for(address = pEraseInit->PageAddress;
 8009556:	68ae      	ldr	r6, [r5, #8]
          CLEAR_BIT(FLASH->CR, FLASH_CR_PER);
 8009558:	4c0e      	ldr	r4, [pc, #56]	@ (8009594 <HAL_FLASHEx_Erase+0xa4>)
            address < ((pEraseInit->NbPages * FLASH_PAGE_SIZE) + pEraseInit->PageAddress);
 800955a:	e9d5 3202 	ldrd	r3, r2, [r5, #8]
 800955e:	eb03 2382 	add.w	r3, r3, r2, lsl #10
 8009562:	42b3      	cmp	r3, r6
 8009564:	d9d7      	bls.n	8009516 <HAL_FLASHEx_Erase+0x26>
          FLASH_PageErase(address);
 8009566:	4630      	mov	r0, r6
 8009568:	f7ff ffb0 	bl	80094cc <FLASH_PageErase>
          status = FLASH_WaitForLastOperation((uint32_t)FLASH_TIMEOUT_VALUE);
 800956c:	f24c 3050 	movw	r0, #50000	@ 0xc350
 8009570:	f7ff ff30 	bl	80093d4 <FLASH_WaitForLastOperation>
          CLEAR_BIT(FLASH->CR, FLASH_CR_PER);
 8009574:	6923      	ldr	r3, [r4, #16]
 8009576:	f023 0302 	bic.w	r3, r3, #2
 800957a:	6123      	str	r3, [r4, #16]
          if (status != HAL_OK)
 800957c:	b110      	cbz	r0, 8009584 <HAL_FLASHEx_Erase+0x94>
            *PageError = address;
 800957e:	f8c8 6000 	str.w	r6, [r8]
            break;
 8009582:	e7c8      	b.n	8009516 <HAL_FLASHEx_Erase+0x26>
            address += FLASH_PAGE_SIZE)
 8009584:	f506 6680 	add.w	r6, r6, #1024	@ 0x400
 8009588:	e7e7      	b.n	800955a <HAL_FLASHEx_Erase+0x6a>
  __HAL_LOCK(&pFlash);
 800958a:	2002      	movs	r0, #2
 800958c:	e7c5      	b.n	800951a <HAL_FLASHEx_Erase+0x2a>
 800958e:	bf00      	nop
 8009590:	20001720 	.word	0x20001720
 8009594:	40022000 	.word	0x40022000

08009598 <HAL_GPIO_Init>:
  * @param  GPIO_Init: pointer to a GPIO_InitTypeDef structure that contains
  *         the configuration information for the specified GPIO peripheral.
  * @retval None
  */
void HAL_GPIO_Init(GPIO_TypeDef  *GPIOx, GPIO_InitTypeDef *GPIO_Init)
{
 8009598:	e92d 4ff7 	stmdb	sp!, {r0, r1, r2, r4, r5, r6, r7, r8, r9, sl, fp, lr}
  uint32_t position = 0x00u;
  uint32_t ioposition;
  uint32_t iocurrent;
  uint32_t temp;
  uint32_t config = 0x00u;
 800959c:	2400      	movs	r4, #0
       in order to address CRH or CRL register*/
      configregister = (iocurrent < GPIO_PIN_8) ? &GPIOx->CRL     : &GPIOx->CRH;
      registeroffset = (iocurrent < GPIO_PIN_8) ? (position << 2u) : ((position - 8u) << 2u);

      /* Apply the new configuration of the pin to the register */
      MODIFY_REG((*configregister), ((GPIO_CRL_MODE0 | GPIO_CRL_CNF0) << registeroffset), (config << registeroffset));
 800959e:	f04f 0e0f 	mov.w	lr, #15
  uint32_t position = 0x00u;
 80095a2:	4626      	mov	r6, r4
      /*--------------------- EXTI Mode Configuration ------------------------*/
      /* Configure the External Interrupt or event for the current IO */
      if ((GPIO_Init->Mode & EXTI_MODE) == EXTI_MODE)
      {
        /* Enable AFIO Clock */
        __HAL_RCC_AFIO_CLK_ENABLE();
 80095a4:	f8df c184 	ldr.w	ip, [pc, #388]	@ 800972c <HAL_GPIO_Init+0x194>
 80095a8:	4b61      	ldr	r3, [pc, #388]	@ (8009730 <HAL_GPIO_Init+0x198>)
      configregister = (iocurrent < GPIO_PIN_8) ? &GPIOx->CRL     : &GPIOx->CRH;
 80095aa:	f100 0804 	add.w	r8, r0, #4
  while (((GPIO_Init->Pin) >> position) != 0x00u)
 80095ae:	680a      	ldr	r2, [r1, #0]
 80095b0:	fa32 f506 	lsrs.w	r5, r2, r6
 80095b4:	d102      	bne.n	80095bc <HAL_GPIO_Init+0x24>
      }
    }

	position++;
  }
}
 80095b6:	b003      	add	sp, #12
 80095b8:	e8bd 8ff0 	ldmia.w	sp!, {r4, r5, r6, r7, r8, r9, sl, fp, pc}
    ioposition = (0x01uL << position);
 80095bc:	2501      	movs	r5, #1
 80095be:	fa05 f706 	lsl.w	r7, r5, r6
    iocurrent = (uint32_t)(GPIO_Init->Pin) & ioposition;
 80095c2:	ea02 0507 	and.w	r5, r2, r7
    if (iocurrent == ioposition)
 80095c6:	ea37 0202 	bics.w	r2, r7, r2
 80095ca:	d176      	bne.n	80096ba <HAL_GPIO_Init+0x122>
      switch (GPIO_Init->Mode)
 80095cc:	684a      	ldr	r2, [r1, #4]
 80095ce:	2a03      	cmp	r2, #3
 80095d0:	d807      	bhi.n	80095e2 <HAL_GPIO_Init+0x4a>
 80095d2:	3a01      	subs	r2, #1
 80095d4:	2a02      	cmp	r2, #2
 80095d6:	f200 8083 	bhi.w	80096e0 <HAL_GPIO_Init+0x148>
 80095da:	e8df f002 	tbb	[pc, r2]
 80095de:	9691      	.short	0x9691
 80095e0:	9c          	.byte	0x9c
 80095e1:	00          	.byte	0x00
 80095e2:	2a12      	cmp	r2, #18
 80095e4:	f000 8094 	beq.w	8009710 <HAL_GPIO_Init+0x178>
 80095e8:	d869      	bhi.n	80096be <HAL_GPIO_Init+0x126>
 80095ea:	2a11      	cmp	r2, #17
 80095ec:	f000 808a 	beq.w	8009704 <HAL_GPIO_Init+0x16c>
      configregister = (iocurrent < GPIO_PIN_8) ? &GPIOx->CRL     : &GPIOx->CRH;
 80095f0:	2dff      	cmp	r5, #255	@ 0xff
 80095f2:	bf94      	ite	ls
 80095f4:	4681      	movls	r9, r0
 80095f6:	46c1      	movhi	r9, r8
      registeroffset = (iocurrent < GPIO_PIN_8) ? (position << 2u) : ((position - 8u) << 2u);
 80095f8:	ea4f 0286 	mov.w	r2, r6, lsl #2
      MODIFY_REG((*configregister), ((GPIO_CRL_MODE0 | GPIO_CRL_CNF0) << registeroffset), (config << registeroffset));
 80095fc:	f8d9 7000 	ldr.w	r7, [r9]
      registeroffset = (iocurrent < GPIO_PIN_8) ? (position << 2u) : ((position - 8u) << 2u);
 8009600:	bf88      	it	hi
 8009602:	3a20      	subhi	r2, #32
      MODIFY_REG((*configregister), ((GPIO_CRL_MODE0 | GPIO_CRL_CNF0) << registeroffset), (config << registeroffset));
 8009604:	fa0e fa02 	lsl.w	sl, lr, r2
 8009608:	ea27 070a 	bic.w	r7, r7, sl
 800960c:	fa04 f202 	lsl.w	r2, r4, r2
 8009610:	4317      	orrs	r7, r2
 8009612:	f8c9 7000 	str.w	r7, [r9]
      if ((GPIO_Init->Mode & EXTI_MODE) == EXTI_MODE)
 8009616:	f8d1 9004 	ldr.w	r9, [r1, #4]
 800961a:	f019 5f80 	tst.w	r9, #268435456	@ 0x10000000
 800961e:	d04c      	beq.n	80096ba <HAL_GPIO_Init+0x122>
        __HAL_RCC_AFIO_CLK_ENABLE();
 8009620:	f8dc 2018 	ldr.w	r2, [ip, #24]
 8009624:	f026 0703 	bic.w	r7, r6, #3
 8009628:	f042 0201 	orr.w	r2, r2, #1
 800962c:	f8cc 2018 	str.w	r2, [ip, #24]
 8009630:	f8dc 2018 	ldr.w	r2, [ip, #24]
 8009634:	f107 4780 	add.w	r7, r7, #1073741824	@ 0x40000000
 8009638:	f002 0201 	and.w	r2, r2, #1
 800963c:	9201      	str	r2, [sp, #4]
 800963e:	f507 3780 	add.w	r7, r7, #65536	@ 0x10000
        CLEAR_BIT(temp, (0x0Fu) << (4u * (position & 0x03u)));
 8009642:	f006 0a03 	and.w	sl, r6, #3
        __HAL_RCC_AFIO_CLK_ENABLE();
 8009646:	9a01      	ldr	r2, [sp, #4]
        CLEAR_BIT(temp, (0x0Fu) << (4u * (position & 0x03u)));
 8009648:	ea4f 0a8a 	mov.w	sl, sl, lsl #2
        temp = AFIO->EXTICR[position >> 2u];
 800964c:	68ba      	ldr	r2, [r7, #8]
        CLEAR_BIT(temp, (0x0Fu) << (4u * (position & 0x03u)));
 800964e:	fa0e fb0a 	lsl.w	fp, lr, sl
 8009652:	ea22 0b0b 	bic.w	fp, r2, fp
        SET_BIT(temp, (GPIO_GET_INDEX(GPIOx)) << (4u * (position & 0x03u)));
 8009656:	4a37      	ldr	r2, [pc, #220]	@ (8009734 <HAL_GPIO_Init+0x19c>)
 8009658:	4290      	cmp	r0, r2
 800965a:	d060      	beq.n	800971e <HAL_GPIO_Init+0x186>
 800965c:	f502 6280 	add.w	r2, r2, #1024	@ 0x400
 8009660:	4290      	cmp	r0, r2
 8009662:	d05e      	beq.n	8009722 <HAL_GPIO_Init+0x18a>
 8009664:	f502 6280 	add.w	r2, r2, #1024	@ 0x400
 8009668:	4290      	cmp	r0, r2
 800966a:	d05c      	beq.n	8009726 <HAL_GPIO_Init+0x18e>
 800966c:	f502 6280 	add.w	r2, r2, #1024	@ 0x400
 8009670:	4290      	cmp	r0, r2
 8009672:	bf14      	ite	ne
 8009674:	2204      	movne	r2, #4
 8009676:	2203      	moveq	r2, #3
 8009678:	fa02 f20a 	lsl.w	r2, r2, sl
 800967c:	ea42 020b 	orr.w	r2, r2, fp
        AFIO->EXTICR[position >> 2u] = temp;
 8009680:	60ba      	str	r2, [r7, #8]
          SET_BIT(EXTI->RTSR, iocurrent);
 8009682:	689a      	ldr	r2, [r3, #8]
        if ((GPIO_Init->Mode & RISING_EDGE) == RISING_EDGE)
 8009684:	f419 1f80 	tst.w	r9, #1048576	@ 0x100000
          SET_BIT(EXTI->RTSR, iocurrent);
 8009688:	bf14      	ite	ne
 800968a:	432a      	orrne	r2, r5
          CLEAR_BIT(EXTI->RTSR, iocurrent);
 800968c:	43aa      	biceq	r2, r5
 800968e:	609a      	str	r2, [r3, #8]
          SET_BIT(EXTI->FTSR, iocurrent);
 8009690:	68da      	ldr	r2, [r3, #12]
        if ((GPIO_Init->Mode & FALLING_EDGE) == FALLING_EDGE)
 8009692:	f419 1f00 	tst.w	r9, #2097152	@ 0x200000
          SET_BIT(EXTI->FTSR, iocurrent);
 8009696:	bf14      	ite	ne
 8009698:	432a      	orrne	r2, r5
          CLEAR_BIT(EXTI->FTSR, iocurrent);
 800969a:	43aa      	biceq	r2, r5
 800969c:	60da      	str	r2, [r3, #12]
          SET_BIT(EXTI->EMR, iocurrent);
 800969e:	685a      	ldr	r2, [r3, #4]
        if ((GPIO_Init->Mode & GPIO_MODE_EVT) == GPIO_MODE_EVT)
 80096a0:	f419 3f00 	tst.w	r9, #131072	@ 0x20000
          SET_BIT(EXTI->EMR, iocurrent);
 80096a4:	bf14      	ite	ne
 80096a6:	432a      	orrne	r2, r5
          CLEAR_BIT(EXTI->EMR, iocurrent);
 80096a8:	43aa      	biceq	r2, r5
 80096aa:	605a      	str	r2, [r3, #4]
          SET_BIT(EXTI->IMR, iocurrent);
 80096ac:	681a      	ldr	r2, [r3, #0]
        if ((GPIO_Init->Mode & GPIO_MODE_IT) == GPIO_MODE_IT)
 80096ae:	f419 3f80 	tst.w	r9, #65536	@ 0x10000
          SET_BIT(EXTI->IMR, iocurrent);
 80096b2:	bf14      	ite	ne
 80096b4:	432a      	orrne	r2, r5
          CLEAR_BIT(EXTI->IMR, iocurrent);
 80096b6:	43aa      	biceq	r2, r5
 80096b8:	601a      	str	r2, [r3, #0]
	position++;
 80096ba:	3601      	adds	r6, #1
 80096bc:	e777      	b.n	80095ae <HAL_GPIO_Init+0x16>
      switch (GPIO_Init->Mode)
 80096be:	f8df 9078 	ldr.w	r9, [pc, #120]	@ 8009738 <HAL_GPIO_Init+0x1a0>
 80096c2:	454a      	cmp	r2, r9
 80096c4:	d00c      	beq.n	80096e0 <HAL_GPIO_Init+0x148>
 80096c6:	d814      	bhi.n	80096f2 <HAL_GPIO_Init+0x15a>
 80096c8:	f5a9 1980 	sub.w	r9, r9, #1048576	@ 0x100000
 80096cc:	454a      	cmp	r2, r9
 80096ce:	d007      	beq.n	80096e0 <HAL_GPIO_Init+0x148>
 80096d0:	f509 2970 	add.w	r9, r9, #983040	@ 0xf0000
 80096d4:	454a      	cmp	r2, r9
 80096d6:	d003      	beq.n	80096e0 <HAL_GPIO_Init+0x148>
 80096d8:	f5a9 1980 	sub.w	r9, r9, #1048576	@ 0x100000
 80096dc:	454a      	cmp	r2, r9
 80096de:	d187      	bne.n	80095f0 <HAL_GPIO_Init+0x58>
          if (GPIO_Init->Pull == GPIO_NOPULL)
 80096e0:	688a      	ldr	r2, [r1, #8]
 80096e2:	b1d2      	cbz	r2, 800971a <HAL_GPIO_Init+0x182>
          else if (GPIO_Init->Pull == GPIO_PULLUP)
 80096e4:	2a01      	cmp	r2, #1
            config = GPIO_CR_MODE_INPUT + GPIO_CR_CNF_INPUT_PU_PD;
 80096e6:	f04f 0408 	mov.w	r4, #8
            GPIOx->BSRR = ioposition;
 80096ea:	bf0c      	ite	eq
 80096ec:	6107      	streq	r7, [r0, #16]
            GPIOx->BRR = ioposition;
 80096ee:	6147      	strne	r7, [r0, #20]
 80096f0:	e77e      	b.n	80095f0 <HAL_GPIO_Init+0x58>
      switch (GPIO_Init->Mode)
 80096f2:	f8df 9048 	ldr.w	r9, [pc, #72]	@ 800973c <HAL_GPIO_Init+0x1a4>
 80096f6:	454a      	cmp	r2, r9
 80096f8:	d0f2      	beq.n	80096e0 <HAL_GPIO_Init+0x148>
 80096fa:	f509 3980 	add.w	r9, r9, #65536	@ 0x10000
 80096fe:	e7ed      	b.n	80096dc <HAL_GPIO_Init+0x144>
          config = GPIO_Init->Speed + GPIO_CR_CNF_GP_OUTPUT_PP;
 8009700:	68cc      	ldr	r4, [r1, #12]
          break;
 8009702:	e775      	b.n	80095f0 <HAL_GPIO_Init+0x58>
          config = GPIO_Init->Speed + GPIO_CR_CNF_GP_OUTPUT_OD;
 8009704:	68cc      	ldr	r4, [r1, #12]
 8009706:	3404      	adds	r4, #4
          break;
 8009708:	e772      	b.n	80095f0 <HAL_GPIO_Init+0x58>
          config = GPIO_Init->Speed + GPIO_CR_CNF_AF_OUTPUT_PP;
 800970a:	68cc      	ldr	r4, [r1, #12]
 800970c:	3408      	adds	r4, #8
          break;
 800970e:	e76f      	b.n	80095f0 <HAL_GPIO_Init+0x58>
          config = GPIO_Init->Speed + GPIO_CR_CNF_AF_OUTPUT_OD;
 8009710:	68cc      	ldr	r4, [r1, #12]
 8009712:	340c      	adds	r4, #12
          break;
 8009714:	e76c      	b.n	80095f0 <HAL_GPIO_Init+0x58>
      switch (GPIO_Init->Mode)
 8009716:	2400      	movs	r4, #0
 8009718:	e76a      	b.n	80095f0 <HAL_GPIO_Init+0x58>
            config = GPIO_CR_MODE_INPUT + GPIO_CR_CNF_INPUT_FLOATING;
 800971a:	2404      	movs	r4, #4
 800971c:	e768      	b.n	80095f0 <HAL_GPIO_Init+0x58>
        SET_BIT(temp, (GPIO_GET_INDEX(GPIOx)) << (4u * (position & 0x03u)));
 800971e:	2200      	movs	r2, #0
 8009720:	e7aa      	b.n	8009678 <HAL_GPIO_Init+0xe0>
 8009722:	2201      	movs	r2, #1
 8009724:	e7a8      	b.n	8009678 <HAL_GPIO_Init+0xe0>
 8009726:	2202      	movs	r2, #2
 8009728:	e7a6      	b.n	8009678 <HAL_GPIO_Init+0xe0>
 800972a:	bf00      	nop
 800972c:	40021000 	.word	0x40021000
 8009730:	40010400 	.word	0x40010400
 8009734:	40010800 	.word	0x40010800
 8009738:	10220000 	.word	0x10220000
 800973c:	10310000 	.word	0x10310000

08009740 <HAL_GPIO_ReadPin>:
  GPIO_PinState bitstatus;

  /* Check the parameters */
  assert_param(IS_GPIO_PIN(GPIO_Pin));

  if ((GPIOx->IDR & GPIO_Pin) != (uint32_t)GPIO_PIN_RESET)
 8009740:	6883      	ldr	r3, [r0, #8]
 8009742:	4219      	tst	r1, r3
  else
  {
    bitstatus = GPIO_PIN_RESET;
  }
  return bitstatus;
}
 8009744:	bf14      	ite	ne
 8009746:	2001      	movne	r0, #1
 8009748:	2000      	moveq	r0, #0
 800974a:	4770      	bx	lr

0800974c <HAL_GPIO_WritePin>:
{
  /* Check the parameters */
  assert_param(IS_GPIO_PIN(GPIO_Pin));
  assert_param(IS_GPIO_PIN_ACTION(PinState));

  if (PinState != GPIO_PIN_RESET)
 800974c:	b10a      	cbz	r2, 8009752 <HAL_GPIO_WritePin+0x6>
  {
    GPIOx->BSRR = GPIO_Pin;
  }
  else
  {
    GPIOx->BSRR = (uint32_t)GPIO_Pin << 16u;
 800974e:	6101      	str	r1, [r0, #16]
  }
}
 8009750:	4770      	bx	lr
    GPIOx->BSRR = (uint32_t)GPIO_Pin << 16u;
 8009752:	0409      	lsls	r1, r1, #16
 8009754:	e7fb      	b.n	800974e <HAL_GPIO_WritePin+0x2>

08009756 <HAL_GPIO_TogglePin>:

  /* Check the parameters */
  assert_param(IS_GPIO_PIN(GPIO_Pin));

  /* get current Output Data Register value */
  odr = GPIOx->ODR;
 8009756:	68c3      	ldr	r3, [r0, #12]

  /* Set selected pins that were at low level, and reset ones that were high */
  GPIOx->BSRR = ((odr & GPIO_Pin) << GPIO_NUMBER) | (~odr & GPIO_Pin);
 8009758:	ea01 0203 	and.w	r2, r1, r3
 800975c:	ea21 0103 	bic.w	r1, r1, r3
 8009760:	ea41 4102 	orr.w	r1, r1, r2, lsl #16
 8009764:	6101      	str	r1, [r0, #16]
}
 8009766:	4770      	bx	lr

08009768 <HAL_PWR_EnableBkUpAccess>:
  * @retval None
  */
void HAL_PWR_EnableBkUpAccess(void)
{
  /* Enable access to RTC and backup registers */
  *(__IO uint32_t *) CR_DBP_BB = (uint32_t)ENABLE;
 8009768:	2201      	movs	r2, #1
 800976a:	4b01      	ldr	r3, [pc, #4]	@ (8009770 <HAL_PWR_EnableBkUpAccess+0x8>)
 800976c:	621a      	str	r2, [r3, #32]
}
 800976e:	4770      	bx	lr
 8009770:	420e0000 	.word	0x420e0000

08009774 <HAL_RCC_OscConfig>:
  *         supported by this macro. User should request a transition to HSE Off
  *         first and then HSE On or HSE Bypass.
  * @retval HAL status
  */
HAL_StatusTypeDef HAL_RCC_OscConfig(RCC_OscInitTypeDef  *RCC_OscInitStruct)
{
 8009774:	e92d 41f3 	stmdb	sp!, {r0, r1, r4, r5, r6, r7, r8, lr}
  uint32_t tickstart;
  uint32_t pll_config;

  /* Check Null pointer */
  if (RCC_OscInitStruct == NULL)
 8009778:	4605      	mov	r5, r0
 800977a:	b338      	cbz	r0, 80097cc <HAL_RCC_OscConfig+0x58>

  /* Check the parameters */
  assert_param(IS_RCC_OSCILLATORTYPE(RCC_OscInitStruct->OscillatorType));

  /*------------------------------- HSE Configuration ------------------------*/
  if (((RCC_OscInitStruct->OscillatorType) & RCC_OSCILLATORTYPE_HSE) == RCC_OSCILLATORTYPE_HSE)
 800977c:	6803      	ldr	r3, [r0, #0]
 800977e:	07db      	lsls	r3, r3, #31
 8009780:	d410      	bmi.n	80097a4 <HAL_RCC_OscConfig+0x30>
        }
      }
    }
  }
  /*----------------------------- HSI Configuration --------------------------*/
  if (((RCC_OscInitStruct->OscillatorType) & RCC_OSCILLATORTYPE_HSI) == RCC_OSCILLATORTYPE_HSI)
 8009782:	682b      	ldr	r3, [r5, #0]
 8009784:	079f      	lsls	r7, r3, #30
 8009786:	d45e      	bmi.n	8009846 <HAL_RCC_OscConfig+0xd2>
        }
      }
    }
  }
  /*------------------------------ LSI Configuration -------------------------*/
  if (((RCC_OscInitStruct->OscillatorType) & RCC_OSCILLATORTYPE_LSI) == RCC_OSCILLATORTYPE_LSI)
 8009788:	682b      	ldr	r3, [r5, #0]
 800978a:	0719      	lsls	r1, r3, #28
 800978c:	f100 8095 	bmi.w	80098ba <HAL_RCC_OscConfig+0x146>
        }
      }
    }
  }
  /*------------------------------ LSE Configuration -------------------------*/
  if (((RCC_OscInitStruct->OscillatorType) & RCC_OSCILLATORTYPE_LSE) == RCC_OSCILLATORTYPE_LSE)
 8009790:	682b      	ldr	r3, [r5, #0]
 8009792:	075a      	lsls	r2, r3, #29
 8009794:	f100 80c1 	bmi.w	800991a <HAL_RCC_OscConfig+0x1a6>

#endif /* RCC_CR_PLL2ON */
  /*-------------------------------- PLL Configuration -----------------------*/
  /* Check the parameters */
  assert_param(IS_RCC_PLL(RCC_OscInitStruct->PLL.PLLState));
  if ((RCC_OscInitStruct->PLL.PLLState) != RCC_PLL_NONE)
 8009798:	69eb      	ldr	r3, [r5, #28]
 800979a:	2b00      	cmp	r3, #0
 800979c:	f040 812c 	bne.w	80099f8 <HAL_RCC_OscConfig+0x284>
        }
      }
    }
  }

  return HAL_OK;
 80097a0:	2000      	movs	r0, #0
 80097a2:	e029      	b.n	80097f8 <HAL_RCC_OscConfig+0x84>
    if ((__HAL_RCC_GET_SYSCLK_SOURCE() == RCC_SYSCLKSOURCE_STATUS_HSE)
 80097a4:	4c90      	ldr	r4, [pc, #576]	@ (80099e8 <HAL_RCC_OscConfig+0x274>)
 80097a6:	6863      	ldr	r3, [r4, #4]
 80097a8:	f003 030c 	and.w	r3, r3, #12
 80097ac:	2b04      	cmp	r3, #4
 80097ae:	d007      	beq.n	80097c0 <HAL_RCC_OscConfig+0x4c>
        || ((__HAL_RCC_GET_SYSCLK_SOURCE() == RCC_SYSCLKSOURCE_STATUS_PLLCLK) && (__HAL_RCC_GET_PLL_OSCSOURCE() == RCC_PLLSOURCE_HSE)))
 80097b0:	6863      	ldr	r3, [r4, #4]
 80097b2:	f003 030c 	and.w	r3, r3, #12
 80097b6:	2b08      	cmp	r3, #8
 80097b8:	d10a      	bne.n	80097d0 <HAL_RCC_OscConfig+0x5c>
 80097ba:	6863      	ldr	r3, [r4, #4]
 80097bc:	03de      	lsls	r6, r3, #15
 80097be:	d507      	bpl.n	80097d0 <HAL_RCC_OscConfig+0x5c>
      if ((__HAL_RCC_GET_FLAG(RCC_FLAG_HSERDY) != RESET) && (RCC_OscInitStruct->HSEState == RCC_HSE_OFF))
 80097c0:	6823      	ldr	r3, [r4, #0]
 80097c2:	039c      	lsls	r4, r3, #14
 80097c4:	d5dd      	bpl.n	8009782 <HAL_RCC_OscConfig+0xe>
 80097c6:	686b      	ldr	r3, [r5, #4]
 80097c8:	2b00      	cmp	r3, #0
 80097ca:	d1da      	bne.n	8009782 <HAL_RCC_OscConfig+0xe>
    return HAL_ERROR;
 80097cc:	2001      	movs	r0, #1
 80097ce:	e013      	b.n	80097f8 <HAL_RCC_OscConfig+0x84>
      __HAL_RCC_HSE_CONFIG(RCC_OscInitStruct->HSEState);
 80097d0:	686b      	ldr	r3, [r5, #4]
 80097d2:	f5b3 3f80 	cmp.w	r3, #65536	@ 0x10000
 80097d6:	d112      	bne.n	80097fe <HAL_RCC_OscConfig+0x8a>
 80097d8:	6823      	ldr	r3, [r4, #0]
 80097da:	f443 3380 	orr.w	r3, r3, #65536	@ 0x10000
 80097de:	6023      	str	r3, [r4, #0]
        tickstart = HAL_GetTick();
 80097e0:	f7ff f8ae 	bl	8008940 <HAL_GetTick>
 80097e4:	4606      	mov	r6, r0
        while (__HAL_RCC_GET_FLAG(RCC_FLAG_HSERDY) == RESET)
 80097e6:	6823      	ldr	r3, [r4, #0]
 80097e8:	0398      	lsls	r0, r3, #14
 80097ea:	d4ca      	bmi.n	8009782 <HAL_RCC_OscConfig+0xe>
          if ((HAL_GetTick() - tickstart) > HSE_TIMEOUT_VALUE)
 80097ec:	f7ff f8a8 	bl	8008940 <HAL_GetTick>
 80097f0:	1b80      	subs	r0, r0, r6
 80097f2:	2864      	cmp	r0, #100	@ 0x64
 80097f4:	d9f7      	bls.n	80097e6 <HAL_RCC_OscConfig+0x72>
            return HAL_TIMEOUT;
 80097f6:	2003      	movs	r0, #3
}
 80097f8:	b002      	add	sp, #8
 80097fa:	e8bd 81f0 	ldmia.w	sp!, {r4, r5, r6, r7, r8, pc}
      __HAL_RCC_HSE_CONFIG(RCC_OscInitStruct->HSEState);
 80097fe:	b99b      	cbnz	r3, 8009828 <HAL_RCC_OscConfig+0xb4>
 8009800:	6823      	ldr	r3, [r4, #0]
 8009802:	f423 3380 	bic.w	r3, r3, #65536	@ 0x10000
 8009806:	6023      	str	r3, [r4, #0]
 8009808:	6823      	ldr	r3, [r4, #0]
 800980a:	f423 2380 	bic.w	r3, r3, #262144	@ 0x40000
 800980e:	6023      	str	r3, [r4, #0]
        tickstart = HAL_GetTick();
 8009810:	f7ff f896 	bl	8008940 <HAL_GetTick>
 8009814:	4606      	mov	r6, r0
        while (__HAL_RCC_GET_FLAG(RCC_FLAG_HSERDY) != RESET)
 8009816:	6823      	ldr	r3, [r4, #0]
 8009818:	0399      	lsls	r1, r3, #14
 800981a:	d5b2      	bpl.n	8009782 <HAL_RCC_OscConfig+0xe>
          if ((HAL_GetTick() - tickstart) > HSE_TIMEOUT_VALUE)
 800981c:	f7ff f890 	bl	8008940 <HAL_GetTick>
 8009820:	1b80      	subs	r0, r0, r6
 8009822:	2864      	cmp	r0, #100	@ 0x64
 8009824:	d9f7      	bls.n	8009816 <HAL_RCC_OscConfig+0xa2>
 8009826:	e7e6      	b.n	80097f6 <HAL_RCC_OscConfig+0x82>
      __HAL_RCC_HSE_CONFIG(RCC_OscInitStruct->HSEState);
 8009828:	f5b3 2fa0 	cmp.w	r3, #327680	@ 0x50000
 800982c:	6823      	ldr	r3, [r4, #0]
 800982e:	d103      	bne.n	8009838 <HAL_RCC_OscConfig+0xc4>
 8009830:	f443 2380 	orr.w	r3, r3, #262144	@ 0x40000
 8009834:	6023      	str	r3, [r4, #0]
 8009836:	e7cf      	b.n	80097d8 <HAL_RCC_OscConfig+0x64>
 8009838:	f423 3380 	bic.w	r3, r3, #65536	@ 0x10000
 800983c:	6023      	str	r3, [r4, #0]
 800983e:	6823      	ldr	r3, [r4, #0]
 8009840:	f423 2380 	bic.w	r3, r3, #262144	@ 0x40000
 8009844:	e7cb      	b.n	80097de <HAL_RCC_OscConfig+0x6a>
    if ((__HAL_RCC_GET_SYSCLK_SOURCE() == RCC_SYSCLKSOURCE_STATUS_HSI)
 8009846:	4c68      	ldr	r4, [pc, #416]	@ (80099e8 <HAL_RCC_OscConfig+0x274>)
 8009848:	6863      	ldr	r3, [r4, #4]
 800984a:	f013 0f0c 	tst.w	r3, #12
 800984e:	d007      	beq.n	8009860 <HAL_RCC_OscConfig+0xec>
        || ((__HAL_RCC_GET_SYSCLK_SOURCE() == RCC_SYSCLKSOURCE_STATUS_PLLCLK) && (__HAL_RCC_GET_PLL_OSCSOURCE() == RCC_PLLSOURCE_HSI_DIV2)))
 8009850:	6863      	ldr	r3, [r4, #4]
 8009852:	f003 030c 	and.w	r3, r3, #12
 8009856:	2b08      	cmp	r3, #8
 8009858:	d110      	bne.n	800987c <HAL_RCC_OscConfig+0x108>
 800985a:	6863      	ldr	r3, [r4, #4]
 800985c:	03da      	lsls	r2, r3, #15
 800985e:	d40d      	bmi.n	800987c <HAL_RCC_OscConfig+0x108>
      if ((__HAL_RCC_GET_FLAG(RCC_FLAG_HSIRDY) != RESET) && (RCC_OscInitStruct->HSIState != RCC_HSI_ON))
 8009860:	6823      	ldr	r3, [r4, #0]
 8009862:	079b      	lsls	r3, r3, #30
 8009864:	d502      	bpl.n	800986c <HAL_RCC_OscConfig+0xf8>
 8009866:	692b      	ldr	r3, [r5, #16]
 8009868:	2b01      	cmp	r3, #1
 800986a:	d1af      	bne.n	80097cc <HAL_RCC_OscConfig+0x58>
        __HAL_RCC_HSI_CALIBRATIONVALUE_ADJUST(RCC_OscInitStruct->HSICalibrationValue);
 800986c:	6823      	ldr	r3, [r4, #0]
 800986e:	696a      	ldr	r2, [r5, #20]
 8009870:	f023 03f8 	bic.w	r3, r3, #248	@ 0xf8
 8009874:	ea43 03c2 	orr.w	r3, r3, r2, lsl #3
 8009878:	6023      	str	r3, [r4, #0]
 800987a:	e785      	b.n	8009788 <HAL_RCC_OscConfig+0x14>
      if (RCC_OscInitStruct->HSIState != RCC_HSI_OFF)
 800987c:	692a      	ldr	r2, [r5, #16]
 800987e:	4b5b      	ldr	r3, [pc, #364]	@ (80099ec <HAL_RCC_OscConfig+0x278>)
 8009880:	b16a      	cbz	r2, 800989e <HAL_RCC_OscConfig+0x12a>
        __HAL_RCC_HSI_ENABLE();
 8009882:	2201      	movs	r2, #1
 8009884:	601a      	str	r2, [r3, #0]
        tickstart = HAL_GetTick();
 8009886:	f7ff f85b 	bl	8008940 <HAL_GetTick>
 800988a:	4606      	mov	r6, r0
        while (__HAL_RCC_GET_FLAG(RCC_FLAG_HSIRDY) == RESET)
 800988c:	6823      	ldr	r3, [r4, #0]
 800988e:	079f      	lsls	r7, r3, #30
 8009890:	d4ec      	bmi.n	800986c <HAL_RCC_OscConfig+0xf8>
          if ((HAL_GetTick() - tickstart) > HSI_TIMEOUT_VALUE)
 8009892:	f7ff f855 	bl	8008940 <HAL_GetTick>
 8009896:	1b80      	subs	r0, r0, r6
 8009898:	2802      	cmp	r0, #2
 800989a:	d9f7      	bls.n	800988c <HAL_RCC_OscConfig+0x118>
 800989c:	e7ab      	b.n	80097f6 <HAL_RCC_OscConfig+0x82>
        __HAL_RCC_HSI_DISABLE();
 800989e:	601a      	str	r2, [r3, #0]
        tickstart = HAL_GetTick();
 80098a0:	f7ff f84e 	bl	8008940 <HAL_GetTick>
 80098a4:	4606      	mov	r6, r0
        while (__HAL_RCC_GET_FLAG(RCC_FLAG_HSIRDY) != RESET)
 80098a6:	6823      	ldr	r3, [r4, #0]
 80098a8:	0798      	lsls	r0, r3, #30
 80098aa:	f57f af6d 	bpl.w	8009788 <HAL_RCC_OscConfig+0x14>
          if ((HAL_GetTick() - tickstart) > HSI_TIMEOUT_VALUE)
 80098ae:	f7ff f847 	bl	8008940 <HAL_GetTick>
 80098b2:	1b80      	subs	r0, r0, r6
 80098b4:	2802      	cmp	r0, #2
 80098b6:	d9f6      	bls.n	80098a6 <HAL_RCC_OscConfig+0x132>
 80098b8:	e79d      	b.n	80097f6 <HAL_RCC_OscConfig+0x82>
    if (RCC_OscInitStruct->LSIState != RCC_LSI_OFF)
 80098ba:	69aa      	ldr	r2, [r5, #24]
 80098bc:	4e4a      	ldr	r6, [pc, #296]	@ (80099e8 <HAL_RCC_OscConfig+0x274>)
 80098be:	4b4b      	ldr	r3, [pc, #300]	@ (80099ec <HAL_RCC_OscConfig+0x278>)
 80098c0:	b1e2      	cbz	r2, 80098fc <HAL_RCC_OscConfig+0x188>
      __HAL_RCC_LSI_ENABLE();
 80098c2:	2201      	movs	r2, #1
 80098c4:	f8c3 2480 	str.w	r2, [r3, #1152]	@ 0x480
      tickstart = HAL_GetTick();
 80098c8:	f7ff f83a 	bl	8008940 <HAL_GetTick>
 80098cc:	4604      	mov	r4, r0
      while (__HAL_RCC_GET_FLAG(RCC_FLAG_LSIRDY) == RESET)
 80098ce:	6a73      	ldr	r3, [r6, #36]	@ 0x24
 80098d0:	079b      	lsls	r3, r3, #30
 80098d2:	d50d      	bpl.n	80098f0 <HAL_RCC_OscConfig+0x17c>
  * @param  mdelay: specifies the delay time length, in milliseconds.
  * @retval None
  */
static void RCC_Delay(uint32_t mdelay)
{
  __IO uint32_t Delay = mdelay * (SystemCoreClock / 8U / 1000U);
 80098d4:	f44f 52fa 	mov.w	r2, #8000	@ 0x1f40
 80098d8:	4b45      	ldr	r3, [pc, #276]	@ (80099f0 <HAL_RCC_OscConfig+0x27c>)
 80098da:	681b      	ldr	r3, [r3, #0]
 80098dc:	fbb3 f3f2 	udiv	r3, r3, r2
 80098e0:	9301      	str	r3, [sp, #4]
  do
  {
    __NOP();
 80098e2:	bf00      	nop
  }
  while (Delay --);
 80098e4:	9b01      	ldr	r3, [sp, #4]
 80098e6:	1e5a      	subs	r2, r3, #1
 80098e8:	9201      	str	r2, [sp, #4]
 80098ea:	2b00      	cmp	r3, #0
 80098ec:	d1f9      	bne.n	80098e2 <HAL_RCC_OscConfig+0x16e>
 80098ee:	e74f      	b.n	8009790 <HAL_RCC_OscConfig+0x1c>
        if ((HAL_GetTick() - tickstart) > LSI_TIMEOUT_VALUE)
 80098f0:	f7ff f826 	bl	8008940 <HAL_GetTick>
 80098f4:	1b00      	subs	r0, r0, r4
 80098f6:	2802      	cmp	r0, #2
 80098f8:	d9e9      	bls.n	80098ce <HAL_RCC_OscConfig+0x15a>
 80098fa:	e77c      	b.n	80097f6 <HAL_RCC_OscConfig+0x82>
      __HAL_RCC_LSI_DISABLE();
 80098fc:	f8c3 2480 	str.w	r2, [r3, #1152]	@ 0x480
      tickstart = HAL_GetTick();
 8009900:	f7ff f81e 	bl	8008940 <HAL_GetTick>
 8009904:	4604      	mov	r4, r0
      while (__HAL_RCC_GET_FLAG(RCC_FLAG_LSIRDY) != RESET)
 8009906:	6a73      	ldr	r3, [r6, #36]	@ 0x24
 8009908:	079f      	lsls	r7, r3, #30
 800990a:	f57f af41 	bpl.w	8009790 <HAL_RCC_OscConfig+0x1c>
        if ((HAL_GetTick() - tickstart) > LSI_TIMEOUT_VALUE)
 800990e:	f7ff f817 	bl	8008940 <HAL_GetTick>
 8009912:	1b00      	subs	r0, r0, r4
 8009914:	2802      	cmp	r0, #2
 8009916:	d9f6      	bls.n	8009906 <HAL_RCC_OscConfig+0x192>
 8009918:	e76d      	b.n	80097f6 <HAL_RCC_OscConfig+0x82>
    if (__HAL_RCC_PWR_IS_CLK_DISABLED())
 800991a:	4c33      	ldr	r4, [pc, #204]	@ (80099e8 <HAL_RCC_OscConfig+0x274>)
 800991c:	69e3      	ldr	r3, [r4, #28]
 800991e:	00d8      	lsls	r0, r3, #3
 8009920:	d424      	bmi.n	800996c <HAL_RCC_OscConfig+0x1f8>
      pwrclkchanged = SET;
 8009922:	2701      	movs	r7, #1
      __HAL_RCC_PWR_CLK_ENABLE();
 8009924:	69e3      	ldr	r3, [r4, #28]
 8009926:	f043 5380 	orr.w	r3, r3, #268435456	@ 0x10000000
 800992a:	61e3      	str	r3, [r4, #28]
 800992c:	69e3      	ldr	r3, [r4, #28]
 800992e:	f003 5380 	and.w	r3, r3, #268435456	@ 0x10000000
 8009932:	9300      	str	r3, [sp, #0]
 8009934:	9b00      	ldr	r3, [sp, #0]
    if (HAL_IS_BIT_CLR(PWR->CR, PWR_CR_DBP))
 8009936:	4e2f      	ldr	r6, [pc, #188]	@ (80099f4 <HAL_RCC_OscConfig+0x280>)
 8009938:	6833      	ldr	r3, [r6, #0]
 800993a:	05d9      	lsls	r1, r3, #23
 800993c:	d518      	bpl.n	8009970 <HAL_RCC_OscConfig+0x1fc>
    __HAL_RCC_LSE_CONFIG(RCC_OscInitStruct->LSEState);
 800993e:	68eb      	ldr	r3, [r5, #12]
 8009940:	2b01      	cmp	r3, #1
 8009942:	d126      	bne.n	8009992 <HAL_RCC_OscConfig+0x21e>
 8009944:	6a23      	ldr	r3, [r4, #32]
 8009946:	f043 0301 	orr.w	r3, r3, #1
 800994a:	6223      	str	r3, [r4, #32]
      tickstart = HAL_GetTick();
 800994c:	f7fe fff8 	bl	8008940 <HAL_GetTick>
        if ((HAL_GetTick() - tickstart) > RCC_LSE_TIMEOUT_VALUE)
 8009950:	f241 3888 	movw	r8, #5000	@ 0x1388
      tickstart = HAL_GetTick();
 8009954:	4606      	mov	r6, r0
      while (__HAL_RCC_GET_FLAG(RCC_FLAG_LSERDY) == RESET)
 8009956:	6a23      	ldr	r3, [r4, #32]
 8009958:	079b      	lsls	r3, r3, #30
 800995a:	d53f      	bpl.n	80099dc <HAL_RCC_OscConfig+0x268>
    if (pwrclkchanged == SET)
 800995c:	2f00      	cmp	r7, #0
 800995e:	f43f af1b 	beq.w	8009798 <HAL_RCC_OscConfig+0x24>
      __HAL_RCC_PWR_CLK_DISABLE();
 8009962:	69e3      	ldr	r3, [r4, #28]
 8009964:	f023 5380 	bic.w	r3, r3, #268435456	@ 0x10000000
 8009968:	61e3      	str	r3, [r4, #28]
 800996a:	e715      	b.n	8009798 <HAL_RCC_OscConfig+0x24>
    FlagStatus       pwrclkchanged = RESET;
 800996c:	2700      	movs	r7, #0
 800996e:	e7e2      	b.n	8009936 <HAL_RCC_OscConfig+0x1c2>
      SET_BIT(PWR->CR, PWR_CR_DBP);
 8009970:	6833      	ldr	r3, [r6, #0]
 8009972:	f443 7380 	orr.w	r3, r3, #256	@ 0x100
 8009976:	6033      	str	r3, [r6, #0]
      tickstart = HAL_GetTick();
 8009978:	f7fe ffe2 	bl	8008940 <HAL_GetTick>
 800997c:	4680      	mov	r8, r0
      while (HAL_IS_BIT_CLR(PWR->CR, PWR_CR_DBP))
 800997e:	6833      	ldr	r3, [r6, #0]
 8009980:	05da      	lsls	r2, r3, #23
 8009982:	d4dc      	bmi.n	800993e <HAL_RCC_OscConfig+0x1ca>
        if ((HAL_GetTick() - tickstart) > RCC_DBP_TIMEOUT_VALUE)
 8009984:	f7fe ffdc 	bl	8008940 <HAL_GetTick>
 8009988:	eba0 0008 	sub.w	r0, r0, r8
 800998c:	2864      	cmp	r0, #100	@ 0x64
 800998e:	d9f6      	bls.n	800997e <HAL_RCC_OscConfig+0x20a>
 8009990:	e731      	b.n	80097f6 <HAL_RCC_OscConfig+0x82>
    __HAL_RCC_LSE_CONFIG(RCC_OscInitStruct->LSEState);
 8009992:	b9ab      	cbnz	r3, 80099c0 <HAL_RCC_OscConfig+0x24c>
 8009994:	6a23      	ldr	r3, [r4, #32]
        if ((HAL_GetTick() - tickstart) > RCC_LSE_TIMEOUT_VALUE)
 8009996:	f241 3888 	movw	r8, #5000	@ 0x1388
    __HAL_RCC_LSE_CONFIG(RCC_OscInitStruct->LSEState);
 800999a:	f023 0301 	bic.w	r3, r3, #1
 800999e:	6223      	str	r3, [r4, #32]
 80099a0:	6a23      	ldr	r3, [r4, #32]
 80099a2:	f023 0304 	bic.w	r3, r3, #4
 80099a6:	6223      	str	r3, [r4, #32]
      tickstart = HAL_GetTick();
 80099a8:	f7fe ffca 	bl	8008940 <HAL_GetTick>
 80099ac:	4606      	mov	r6, r0
      while (__HAL_RCC_GET_FLAG(RCC_FLAG_LSERDY) != RESET)
 80099ae:	6a23      	ldr	r3, [r4, #32]
 80099b0:	0798      	lsls	r0, r3, #30
 80099b2:	d5d3      	bpl.n	800995c <HAL_RCC_OscConfig+0x1e8>
        if ((HAL_GetTick() - tickstart) > RCC_LSE_TIMEOUT_VALUE)
 80099b4:	f7fe ffc4 	bl	8008940 <HAL_GetTick>
 80099b8:	1b80      	subs	r0, r0, r6
 80099ba:	4540      	cmp	r0, r8
 80099bc:	d9f7      	bls.n	80099ae <HAL_RCC_OscConfig+0x23a>
 80099be:	e71a      	b.n	80097f6 <HAL_RCC_OscConfig+0x82>
    __HAL_RCC_LSE_CONFIG(RCC_OscInitStruct->LSEState);
 80099c0:	2b05      	cmp	r3, #5
 80099c2:	6a23      	ldr	r3, [r4, #32]
 80099c4:	d103      	bne.n	80099ce <HAL_RCC_OscConfig+0x25a>
 80099c6:	f043 0304 	orr.w	r3, r3, #4
 80099ca:	6223      	str	r3, [r4, #32]
 80099cc:	e7ba      	b.n	8009944 <HAL_RCC_OscConfig+0x1d0>
 80099ce:	f023 0301 	bic.w	r3, r3, #1
 80099d2:	6223      	str	r3, [r4, #32]
 80099d4:	6a23      	ldr	r3, [r4, #32]
 80099d6:	f023 0304 	bic.w	r3, r3, #4
 80099da:	e7b6      	b.n	800994a <HAL_RCC_OscConfig+0x1d6>
        if ((HAL_GetTick() - tickstart) > RCC_LSE_TIMEOUT_VALUE)
 80099dc:	f7fe ffb0 	bl	8008940 <HAL_GetTick>
 80099e0:	1b80      	subs	r0, r0, r6
 80099e2:	4540      	cmp	r0, r8
 80099e4:	d9b7      	bls.n	8009956 <HAL_RCC_OscConfig+0x1e2>
 80099e6:	e706      	b.n	80097f6 <HAL_RCC_OscConfig+0x82>
 80099e8:	40021000 	.word	0x40021000
 80099ec:	42420000 	.word	0x42420000
 80099f0:	20000008 	.word	0x20000008
 80099f4:	40007000 	.word	0x40007000
    if (__HAL_RCC_GET_SYSCLK_SOURCE() != RCC_SYSCLKSOURCE_STATUS_PLLCLK)
 80099f8:	4c2a      	ldr	r4, [pc, #168]	@ (8009aa4 <HAL_RCC_OscConfig+0x330>)
 80099fa:	6862      	ldr	r2, [r4, #4]
 80099fc:	f002 020c 	and.w	r2, r2, #12
 8009a00:	2a08      	cmp	r2, #8
 8009a02:	d03e      	beq.n	8009a82 <HAL_RCC_OscConfig+0x30e>
      if ((RCC_OscInitStruct->PLL.PLLState) == RCC_PLL_ON)
 8009a04:	2200      	movs	r2, #0
 8009a06:	2b02      	cmp	r3, #2
 8009a08:	4b27      	ldr	r3, [pc, #156]	@ (8009aa8 <HAL_RCC_OscConfig+0x334>)
        __HAL_RCC_PLL_DISABLE();
 8009a0a:	661a      	str	r2, [r3, #96]	@ 0x60
      if ((RCC_OscInitStruct->PLL.PLLState) == RCC_PLL_ON)
 8009a0c:	d12c      	bne.n	8009a68 <HAL_RCC_OscConfig+0x2f4>
        tickstart = HAL_GetTick();
 8009a0e:	f7fe ff97 	bl	8008940 <HAL_GetTick>
 8009a12:	4606      	mov	r6, r0
        while (__HAL_RCC_GET_FLAG(RCC_FLAG_PLLRDY)  != RESET)
 8009a14:	6823      	ldr	r3, [r4, #0]
 8009a16:	0199      	lsls	r1, r3, #6
 8009a18:	d420      	bmi.n	8009a5c <HAL_RCC_OscConfig+0x2e8>
        if (RCC_OscInitStruct->PLL.PLLSource == RCC_PLLSOURCE_HSE)
 8009a1a:	6a2b      	ldr	r3, [r5, #32]
 8009a1c:	f5b3 3f80 	cmp.w	r3, #65536	@ 0x10000
 8009a20:	d105      	bne.n	8009a2e <HAL_RCC_OscConfig+0x2ba>
          __HAL_RCC_HSE_PREDIV_CONFIG(RCC_OscInitStruct->HSEPredivValue);
 8009a22:	6862      	ldr	r2, [r4, #4]
 8009a24:	68a9      	ldr	r1, [r5, #8]
 8009a26:	f422 3200 	bic.w	r2, r2, #131072	@ 0x20000
 8009a2a:	430a      	orrs	r2, r1
 8009a2c:	6062      	str	r2, [r4, #4]
        __HAL_RCC_PLL_CONFIG(RCC_OscInitStruct->PLL.PLLSource,
 8009a2e:	6a69      	ldr	r1, [r5, #36]	@ 0x24
 8009a30:	6862      	ldr	r2, [r4, #4]
 8009a32:	430b      	orrs	r3, r1
 8009a34:	f422 1274 	bic.w	r2, r2, #3997696	@ 0x3d0000
 8009a38:	4313      	orrs	r3, r2
        __HAL_RCC_PLL_ENABLE();
 8009a3a:	2201      	movs	r2, #1
        __HAL_RCC_PLL_CONFIG(RCC_OscInitStruct->PLL.PLLSource,
 8009a3c:	6063      	str	r3, [r4, #4]
        __HAL_RCC_PLL_ENABLE();
 8009a3e:	4b1a      	ldr	r3, [pc, #104]	@ (8009aa8 <HAL_RCC_OscConfig+0x334>)
 8009a40:	661a      	str	r2, [r3, #96]	@ 0x60
        tickstart = HAL_GetTick();
 8009a42:	f7fe ff7d 	bl	8008940 <HAL_GetTick>
 8009a46:	4605      	mov	r5, r0
        while (__HAL_RCC_GET_FLAG(RCC_FLAG_PLLRDY)  == RESET)
 8009a48:	6823      	ldr	r3, [r4, #0]
 8009a4a:	019a      	lsls	r2, r3, #6
 8009a4c:	f53f aea8 	bmi.w	80097a0 <HAL_RCC_OscConfig+0x2c>
          if ((HAL_GetTick() - tickstart) > PLL_TIMEOUT_VALUE)
 8009a50:	f7fe ff76 	bl	8008940 <HAL_GetTick>
 8009a54:	1b40      	subs	r0, r0, r5
 8009a56:	2802      	cmp	r0, #2
 8009a58:	d9f6      	bls.n	8009a48 <HAL_RCC_OscConfig+0x2d4>
 8009a5a:	e6cc      	b.n	80097f6 <HAL_RCC_OscConfig+0x82>
          if ((HAL_GetTick() - tickstart) > PLL_TIMEOUT_VALUE)
 8009a5c:	f7fe ff70 	bl	8008940 <HAL_GetTick>
 8009a60:	1b80      	subs	r0, r0, r6
 8009a62:	2802      	cmp	r0, #2
 8009a64:	d9d6      	bls.n	8009a14 <HAL_RCC_OscConfig+0x2a0>
 8009a66:	e6c6      	b.n	80097f6 <HAL_RCC_OscConfig+0x82>
        tickstart = HAL_GetTick();
 8009a68:	f7fe ff6a 	bl	8008940 <HAL_GetTick>
 8009a6c:	4605      	mov	r5, r0
        while (__HAL_RCC_GET_FLAG(RCC_FLAG_PLLRDY)  != RESET)
 8009a6e:	6823      	ldr	r3, [r4, #0]
 8009a70:	019b      	lsls	r3, r3, #6
 8009a72:	f57f ae95 	bpl.w	80097a0 <HAL_RCC_OscConfig+0x2c>
          if ((HAL_GetTick() - tickstart) > PLL_TIMEOUT_VALUE)
 8009a76:	f7fe ff63 	bl	8008940 <HAL_GetTick>
 8009a7a:	1b40      	subs	r0, r0, r5
 8009a7c:	2802      	cmp	r0, #2
 8009a7e:	d9f6      	bls.n	8009a6e <HAL_RCC_OscConfig+0x2fa>
 8009a80:	e6b9      	b.n	80097f6 <HAL_RCC_OscConfig+0x82>
      if ((RCC_OscInitStruct->PLL.PLLState) == RCC_PLL_OFF)
 8009a82:	2b01      	cmp	r3, #1
 8009a84:	f43f aea2 	beq.w	80097cc <HAL_RCC_OscConfig+0x58>
        pll_config = RCC->CFGR;
 8009a88:	6860      	ldr	r0, [r4, #4]
        if ((READ_BIT(pll_config, RCC_CFGR_PLLSRC) != RCC_OscInitStruct->PLL.PLLSource) ||
 8009a8a:	6a2b      	ldr	r3, [r5, #32]
 8009a8c:	f400 3280 	and.w	r2, r0, #65536	@ 0x10000
 8009a90:	429a      	cmp	r2, r3
 8009a92:	f47f ae9b 	bne.w	80097cc <HAL_RCC_OscConfig+0x58>
 8009a96:	6a6b      	ldr	r3, [r5, #36]	@ 0x24
            (READ_BIT(pll_config, RCC_CFGR_PLLMULL) != RCC_OscInitStruct->PLL.PLLMUL))
 8009a98:	f400 1070 	and.w	r0, r0, #3932160	@ 0x3c0000
        if ((READ_BIT(pll_config, RCC_CFGR_PLLSRC) != RCC_OscInitStruct->PLL.PLLSource) ||
 8009a9c:	1ac0      	subs	r0, r0, r3
 8009a9e:	bf18      	it	ne
 8009aa0:	2001      	movne	r0, #1
 8009aa2:	e6a9      	b.n	80097f8 <HAL_RCC_OscConfig+0x84>
 8009aa4:	40021000 	.word	0x40021000
 8009aa8:	42420000 	.word	0x42420000

08009aac <HAL_RCC_GetSysClockFreq>:
  tmpreg = RCC->CFGR;
 8009aac:	4a0d      	ldr	r2, [pc, #52]	@ (8009ae4 <HAL_RCC_GetSysClockFreq+0x38>)
 8009aae:	6853      	ldr	r3, [r2, #4]
  switch (tmpreg & RCC_CFGR_SWS)
 8009ab0:	f003 010c 	and.w	r1, r3, #12
 8009ab4:	2908      	cmp	r1, #8
 8009ab6:	d112      	bne.n	8009ade <HAL_RCC_GetSysClockFreq+0x32>
      pllmul = aPLLMULFactorTable[(uint32_t)(tmpreg & RCC_CFGR_PLLMULL) >> RCC_CFGR_PLLMULL_Pos];
 8009ab8:	480b      	ldr	r0, [pc, #44]	@ (8009ae8 <HAL_RCC_GetSysClockFreq+0x3c>)
 8009aba:	f3c3 4183 	ubfx	r1, r3, #18, #4
      if ((tmpreg & RCC_CFGR_PLLSRC) != RCC_PLLSOURCE_HSI_DIV2)
 8009abe:	03db      	lsls	r3, r3, #15
      pllmul = aPLLMULFactorTable[(uint32_t)(tmpreg & RCC_CFGR_PLLMULL) >> RCC_CFGR_PLLMULL_Pos];
 8009ac0:	5c40      	ldrb	r0, [r0, r1]
      if ((tmpreg & RCC_CFGR_PLLSRC) != RCC_PLLSOURCE_HSI_DIV2)
 8009ac2:	d509      	bpl.n	8009ad8 <HAL_RCC_GetSysClockFreq+0x2c>
        prediv = aPredivFactorTable[(uint32_t)(RCC->CFGR & RCC_CFGR_PLLXTPRE) >> RCC_CFGR_PLLXTPRE_Pos];
 8009ac4:	6853      	ldr	r3, [r2, #4]
        pllclk = (uint32_t)((HSE_VALUE  * pllmul) / prediv);
 8009ac6:	4a09      	ldr	r2, [pc, #36]	@ (8009aec <HAL_RCC_GetSysClockFreq+0x40>)
        prediv = aPredivFactorTable[(uint32_t)(RCC->CFGR & RCC_CFGR_PLLXTPRE) >> RCC_CFGR_PLLXTPRE_Pos];
 8009ac8:	f3c3 4340 	ubfx	r3, r3, #17, #1
        pllclk = (uint32_t)((HSE_VALUE  * pllmul) / prediv);
 8009acc:	4350      	muls	r0, r2
        prediv = aPredivFactorTable[(uint32_t)(RCC->CFGR & RCC_CFGR_PLLXTPRE) >> RCC_CFGR_PLLXTPRE_Pos];
 8009ace:	4a08      	ldr	r2, [pc, #32]	@ (8009af0 <HAL_RCC_GetSysClockFreq+0x44>)
 8009ad0:	5cd3      	ldrb	r3, [r2, r3]
        pllclk = (uint32_t)((HSE_VALUE  * pllmul) / prediv);
 8009ad2:	fbb0 f0f3 	udiv	r0, r0, r3
 8009ad6:	4770      	bx	lr
        pllclk = (uint32_t)((HSI_VALUE >> 1) * pllmul);
 8009ad8:	4b06      	ldr	r3, [pc, #24]	@ (8009af4 <HAL_RCC_GetSysClockFreq+0x48>)
 8009ada:	4358      	muls	r0, r3
 8009adc:	4770      	bx	lr
      sysclockfreq = HSE_VALUE;
 8009ade:	4803      	ldr	r0, [pc, #12]	@ (8009aec <HAL_RCC_GetSysClockFreq+0x40>)
}
 8009ae0:	4770      	bx	lr
 8009ae2:	bf00      	nop
 8009ae4:	40021000 	.word	0x40021000
 8009ae8:	0800bbd7 	.word	0x0800bbd7
 8009aec:	007a1200 	.word	0x007a1200
 8009af0:	0800bbd5 	.word	0x0800bbd5
 8009af4:	003d0900 	.word	0x003d0900

08009af8 <HAL_RCC_ClockConfig>:
{
 8009af8:	e92d 41f0 	stmdb	sp!, {r4, r5, r6, r7, r8, lr}
 8009afc:	460d      	mov	r5, r1
  if (RCC_ClkInitStruct == NULL)
 8009afe:	4604      	mov	r4, r0
 8009b00:	b910      	cbnz	r0, 8009b08 <HAL_RCC_ClockConfig+0x10>
    return HAL_ERROR;
 8009b02:	2001      	movs	r0, #1
}
 8009b04:	e8bd 81f0 	ldmia.w	sp!, {r4, r5, r6, r7, r8, pc}
  if (FLatency > __HAL_FLASH_GET_LATENCY())
 8009b08:	4a44      	ldr	r2, [pc, #272]	@ (8009c1c <HAL_RCC_ClockConfig+0x124>)
 8009b0a:	6813      	ldr	r3, [r2, #0]
 8009b0c:	f003 0307 	and.w	r3, r3, #7
 8009b10:	428b      	cmp	r3, r1
 8009b12:	d328      	bcc.n	8009b66 <HAL_RCC_ClockConfig+0x6e>
if (((RCC_ClkInitStruct->ClockType) & RCC_CLOCKTYPE_HCLK) == RCC_CLOCKTYPE_HCLK)
 8009b14:	6821      	ldr	r1, [r4, #0]
 8009b16:	078e      	lsls	r6, r1, #30
 8009b18:	d430      	bmi.n	8009b7c <HAL_RCC_ClockConfig+0x84>
  if (((RCC_ClkInitStruct->ClockType) & RCC_CLOCKTYPE_SYSCLK) == RCC_CLOCKTYPE_SYSCLK)
 8009b1a:	07ca      	lsls	r2, r1, #31
 8009b1c:	d443      	bmi.n	8009ba6 <HAL_RCC_ClockConfig+0xae>
  if (FLatency < __HAL_FLASH_GET_LATENCY())
 8009b1e:	4a3f      	ldr	r2, [pc, #252]	@ (8009c1c <HAL_RCC_ClockConfig+0x124>)
 8009b20:	6813      	ldr	r3, [r2, #0]
 8009b22:	f003 0307 	and.w	r3, r3, #7
 8009b26:	42ab      	cmp	r3, r5
 8009b28:	d865      	bhi.n	8009bf6 <HAL_RCC_ClockConfig+0xfe>
if (((RCC_ClkInitStruct->ClockType) & RCC_CLOCKTYPE_PCLK1) == RCC_CLOCKTYPE_PCLK1)
 8009b2a:	6822      	ldr	r2, [r4, #0]
 8009b2c:	4d3c      	ldr	r5, [pc, #240]	@ (8009c20 <HAL_RCC_ClockConfig+0x128>)
 8009b2e:	f012 0f04 	tst.w	r2, #4
 8009b32:	d16c      	bne.n	8009c0e <HAL_RCC_ClockConfig+0x116>
  if (((RCC_ClkInitStruct->ClockType) & RCC_CLOCKTYPE_PCLK2) == RCC_CLOCKTYPE_PCLK2)
 8009b34:	0713      	lsls	r3, r2, #28
 8009b36:	d506      	bpl.n	8009b46 <HAL_RCC_ClockConfig+0x4e>
    MODIFY_REG(RCC->CFGR, RCC_CFGR_PPRE2, ((RCC_ClkInitStruct->APB2CLKDivider) << 3));
 8009b38:	686b      	ldr	r3, [r5, #4]
 8009b3a:	6922      	ldr	r2, [r4, #16]
 8009b3c:	f423 5360 	bic.w	r3, r3, #14336	@ 0x3800
 8009b40:	ea43 03c2 	orr.w	r3, r3, r2, lsl #3
 8009b44:	606b      	str	r3, [r5, #4]
  SystemCoreClock = HAL_RCC_GetSysClockFreq() >> AHBPrescTable[(RCC->CFGR & RCC_CFGR_HPRE) >> RCC_CFGR_HPRE_Pos];
 8009b46:	f7ff ffb1 	bl	8009aac <HAL_RCC_GetSysClockFreq>
 8009b4a:	686b      	ldr	r3, [r5, #4]
 8009b4c:	4a35      	ldr	r2, [pc, #212]	@ (8009c24 <HAL_RCC_ClockConfig+0x12c>)
 8009b4e:	f3c3 1303 	ubfx	r3, r3, #4, #4
 8009b52:	5cd3      	ldrb	r3, [r2, r3]
 8009b54:	40d8      	lsrs	r0, r3
 8009b56:	4b34      	ldr	r3, [pc, #208]	@ (8009c28 <HAL_RCC_ClockConfig+0x130>)
 8009b58:	6018      	str	r0, [r3, #0]
  HAL_InitTick(uwTickPrio);
 8009b5a:	4b34      	ldr	r3, [pc, #208]	@ (8009c2c <HAL_RCC_ClockConfig+0x134>)
 8009b5c:	6818      	ldr	r0, [r3, #0]
 8009b5e:	f7fe fead 	bl	80088bc <HAL_InitTick>
  return HAL_OK;
 8009b62:	2000      	movs	r0, #0
 8009b64:	e7ce      	b.n	8009b04 <HAL_RCC_ClockConfig+0xc>
    __HAL_FLASH_SET_LATENCY(FLatency);
 8009b66:	6813      	ldr	r3, [r2, #0]
 8009b68:	f023 0307 	bic.w	r3, r3, #7
 8009b6c:	430b      	orrs	r3, r1
 8009b6e:	6013      	str	r3, [r2, #0]
    if (__HAL_FLASH_GET_LATENCY() != FLatency)
 8009b70:	6813      	ldr	r3, [r2, #0]
 8009b72:	f003 0307 	and.w	r3, r3, #7
 8009b76:	428b      	cmp	r3, r1
 8009b78:	d1c3      	bne.n	8009b02 <HAL_RCC_ClockConfig+0xa>
 8009b7a:	e7cb      	b.n	8009b14 <HAL_RCC_ClockConfig+0x1c>
    if (((RCC_ClkInitStruct->ClockType) & RCC_CLOCKTYPE_PCLK1) == RCC_CLOCKTYPE_PCLK1)
 8009b7c:	4b28      	ldr	r3, [pc, #160]	@ (8009c20 <HAL_RCC_ClockConfig+0x128>)
 8009b7e:	f011 0f04 	tst.w	r1, #4
      MODIFY_REG(RCC->CFGR, RCC_CFGR_PPRE1, RCC_HCLK_DIV16);
 8009b82:	bf1e      	ittt	ne
 8009b84:	685a      	ldrne	r2, [r3, #4]
 8009b86:	f442 62e0 	orrne.w	r2, r2, #1792	@ 0x700
 8009b8a:	605a      	strne	r2, [r3, #4]
    if (((RCC_ClkInitStruct->ClockType) & RCC_CLOCKTYPE_PCLK2) == RCC_CLOCKTYPE_PCLK2)
 8009b8c:	0708      	lsls	r0, r1, #28
      MODIFY_REG(RCC->CFGR, RCC_CFGR_PPRE2, (RCC_HCLK_DIV16 << 3));
 8009b8e:	bf42      	ittt	mi
 8009b90:	685a      	ldrmi	r2, [r3, #4]
 8009b92:	f442 5260 	orrmi.w	r2, r2, #14336	@ 0x3800
 8009b96:	605a      	strmi	r2, [r3, #4]
    MODIFY_REG(RCC->CFGR, RCC_CFGR_HPRE, RCC_ClkInitStruct->AHBCLKDivider);
 8009b98:	685a      	ldr	r2, [r3, #4]
 8009b9a:	68a0      	ldr	r0, [r4, #8]
 8009b9c:	f022 02f0 	bic.w	r2, r2, #240	@ 0xf0
 8009ba0:	4302      	orrs	r2, r0
 8009ba2:	605a      	str	r2, [r3, #4]
 8009ba4:	e7b9      	b.n	8009b1a <HAL_RCC_ClockConfig+0x22>
    if (RCC_ClkInitStruct->SYSCLKSource == RCC_SYSCLKSOURCE_HSE)
 8009ba6:	6862      	ldr	r2, [r4, #4]
 8009ba8:	4e1d      	ldr	r6, [pc, #116]	@ (8009c20 <HAL_RCC_ClockConfig+0x128>)
 8009baa:	2a01      	cmp	r2, #1
      if (__HAL_RCC_GET_FLAG(RCC_FLAG_HSERDY) == RESET)
 8009bac:	6833      	ldr	r3, [r6, #0]
    if (RCC_ClkInitStruct->SYSCLKSource == RCC_SYSCLKSOURCE_HSE)
 8009bae:	d11a      	bne.n	8009be6 <HAL_RCC_ClockConfig+0xee>
      if (__HAL_RCC_GET_FLAG(RCC_FLAG_HSERDY) == RESET)
 8009bb0:	f413 3f00 	tst.w	r3, #131072	@ 0x20000
      if (__HAL_RCC_GET_FLAG(RCC_FLAG_HSIRDY) == RESET)
 8009bb4:	d0a5      	beq.n	8009b02 <HAL_RCC_ClockConfig+0xa>
    __HAL_RCC_SYSCLK_CONFIG(RCC_ClkInitStruct->SYSCLKSource);
 8009bb6:	6873      	ldr	r3, [r6, #4]
      if ((HAL_GetTick() - tickstart) > CLOCKSWITCH_TIMEOUT_VALUE)
 8009bb8:	f241 3888 	movw	r8, #5000	@ 0x1388
    __HAL_RCC_SYSCLK_CONFIG(RCC_ClkInitStruct->SYSCLKSource);
 8009bbc:	f023 0303 	bic.w	r3, r3, #3
 8009bc0:	4313      	orrs	r3, r2
 8009bc2:	6073      	str	r3, [r6, #4]
    tickstart = HAL_GetTick();
 8009bc4:	f7fe febc 	bl	8008940 <HAL_GetTick>
 8009bc8:	4607      	mov	r7, r0
    while (__HAL_RCC_GET_SYSCLK_SOURCE() != (RCC_ClkInitStruct->SYSCLKSource << RCC_CFGR_SWS_Pos))
 8009bca:	6873      	ldr	r3, [r6, #4]
 8009bcc:	6862      	ldr	r2, [r4, #4]
 8009bce:	f003 030c 	and.w	r3, r3, #12
 8009bd2:	ebb3 0f82 	cmp.w	r3, r2, lsl #2
 8009bd6:	d0a2      	beq.n	8009b1e <HAL_RCC_ClockConfig+0x26>
      if ((HAL_GetTick() - tickstart) > CLOCKSWITCH_TIMEOUT_VALUE)
 8009bd8:	f7fe feb2 	bl	8008940 <HAL_GetTick>
 8009bdc:	1bc0      	subs	r0, r0, r7
 8009bde:	4540      	cmp	r0, r8
 8009be0:	d9f3      	bls.n	8009bca <HAL_RCC_ClockConfig+0xd2>
        return HAL_TIMEOUT;
 8009be2:	2003      	movs	r0, #3
 8009be4:	e78e      	b.n	8009b04 <HAL_RCC_ClockConfig+0xc>
    else if (RCC_ClkInitStruct->SYSCLKSource == RCC_SYSCLKSOURCE_PLLCLK)
 8009be6:	2a02      	cmp	r2, #2
 8009be8:	d102      	bne.n	8009bf0 <HAL_RCC_ClockConfig+0xf8>
      if (__HAL_RCC_GET_FLAG(RCC_FLAG_PLLRDY) == RESET)
 8009bea:	f013 7f00 	tst.w	r3, #33554432	@ 0x2000000
 8009bee:	e7e1      	b.n	8009bb4 <HAL_RCC_ClockConfig+0xbc>
      if (__HAL_RCC_GET_FLAG(RCC_FLAG_HSIRDY) == RESET)
 8009bf0:	f013 0f02 	tst.w	r3, #2
 8009bf4:	e7de      	b.n	8009bb4 <HAL_RCC_ClockConfig+0xbc>
    __HAL_FLASH_SET_LATENCY(FLatency);
 8009bf6:	6813      	ldr	r3, [r2, #0]
 8009bf8:	f023 0307 	bic.w	r3, r3, #7
 8009bfc:	432b      	orrs	r3, r5
 8009bfe:	6013      	str	r3, [r2, #0]
    if (__HAL_FLASH_GET_LATENCY() != FLatency)
 8009c00:	6813      	ldr	r3, [r2, #0]
 8009c02:	f003 0307 	and.w	r3, r3, #7
 8009c06:	42ab      	cmp	r3, r5
 8009c08:	f47f af7b 	bne.w	8009b02 <HAL_RCC_ClockConfig+0xa>
 8009c0c:	e78d      	b.n	8009b2a <HAL_RCC_ClockConfig+0x32>
    MODIFY_REG(RCC->CFGR, RCC_CFGR_PPRE1, RCC_ClkInitStruct->APB1CLKDivider);
 8009c0e:	686b      	ldr	r3, [r5, #4]
 8009c10:	68e1      	ldr	r1, [r4, #12]
 8009c12:	f423 63e0 	bic.w	r3, r3, #1792	@ 0x700
 8009c16:	430b      	orrs	r3, r1
 8009c18:	606b      	str	r3, [r5, #4]
 8009c1a:	e78b      	b.n	8009b34 <HAL_RCC_ClockConfig+0x3c>
 8009c1c:	40022000 	.word	0x40022000
 8009c20:	40021000 	.word	0x40021000
 8009c24:	0800bbc5 	.word	0x0800bbc5
 8009c28:	20000008 	.word	0x20000008
 8009c2c:	20000010 	.word	0x20000010

08009c30 <HAL_RCC_GetPCLK1Freq>:
  return (HAL_RCC_GetHCLKFreq() >> APBPrescTable[(RCC->CFGR & RCC_CFGR_PPRE1) >> RCC_CFGR_PPRE1_Pos]);
 8009c30:	4b04      	ldr	r3, [pc, #16]	@ (8009c44 <HAL_RCC_GetPCLK1Freq+0x14>)
 8009c32:	4a05      	ldr	r2, [pc, #20]	@ (8009c48 <HAL_RCC_GetPCLK1Freq+0x18>)
 8009c34:	685b      	ldr	r3, [r3, #4]
 8009c36:	f3c3 2302 	ubfx	r3, r3, #8, #3
 8009c3a:	5cd3      	ldrb	r3, [r2, r3]
 8009c3c:	4a03      	ldr	r2, [pc, #12]	@ (8009c4c <HAL_RCC_GetPCLK1Freq+0x1c>)
 8009c3e:	6810      	ldr	r0, [r2, #0]
}
 8009c40:	40d8      	lsrs	r0, r3
 8009c42:	4770      	bx	lr
 8009c44:	40021000 	.word	0x40021000
 8009c48:	0800bbbd 	.word	0x0800bbbd
 8009c4c:	20000008 	.word	0x20000008

08009c50 <HAL_RCC_GetPCLK2Freq>:
  return (HAL_RCC_GetHCLKFreq() >> APBPrescTable[(RCC->CFGR & RCC_CFGR_PPRE2) >> RCC_CFGR_PPRE2_Pos]);
 8009c50:	4b04      	ldr	r3, [pc, #16]	@ (8009c64 <HAL_RCC_GetPCLK2Freq+0x14>)
 8009c52:	4a05      	ldr	r2, [pc, #20]	@ (8009c68 <HAL_RCC_GetPCLK2Freq+0x18>)
 8009c54:	685b      	ldr	r3, [r3, #4]
 8009c56:	f3c3 23c2 	ubfx	r3, r3, #11, #3
 8009c5a:	5cd3      	ldrb	r3, [r2, r3]
 8009c5c:	4a03      	ldr	r2, [pc, #12]	@ (8009c6c <HAL_RCC_GetPCLK2Freq+0x1c>)
 8009c5e:	6810      	ldr	r0, [r2, #0]
}
 8009c60:	40d8      	lsrs	r0, r3
 8009c62:	4770      	bx	lr
 8009c64:	40021000 	.word	0x40021000
 8009c68:	0800bbbd 	.word	0x0800bbbd
 8009c6c:	20000008 	.word	0x20000008

08009c70 <HAL_RCCEx_PeriphCLKConfig>:

  /* Check the parameters */
  assert_param(IS_RCC_PERIPHCLOCK(PeriphClkInit->PeriphClockSelection));

  /*------------------------------- RTC/LCD Configuration ------------------------*/
  if ((((PeriphClkInit->PeriphClockSelection) & RCC_PERIPHCLK_RTC) == RCC_PERIPHCLK_RTC))
 8009c70:	6803      	ldr	r3, [r0, #0]
{
 8009c72:	e92d 41f3 	stmdb	sp!, {r0, r1, r4, r5, r6, r7, r8, lr}
 8009c76:	4605      	mov	r5, r0
  if ((((PeriphClkInit->PeriphClockSelection) & RCC_PERIPHCLK_RTC) == RCC_PERIPHCLK_RTC))
 8009c78:	07d8      	lsls	r0, r3, #31
 8009c7a:	d521      	bpl.n	8009cc0 <HAL_RCCEx_PeriphCLKConfig+0x50>
    assert_param(IS_RCC_RTCCLKSOURCE(PeriphClkInit->RTCClockSelection));

    /* As soon as function is called to change RTC clock source, activation of the
       power domain is done. */
    /* Requires to enable write access to Backup Domain of necessary */
    if (__HAL_RCC_PWR_IS_CLK_DISABLED())
 8009c7c:	4c36      	ldr	r4, [pc, #216]	@ (8009d58 <HAL_RCCEx_PeriphCLKConfig+0xe8>)
 8009c7e:	69e3      	ldr	r3, [r4, #28]
 8009c80:	00d9      	lsls	r1, r3, #3
 8009c82:	d42b      	bmi.n	8009cdc <HAL_RCCEx_PeriphCLKConfig+0x6c>
    {
      __HAL_RCC_PWR_CLK_ENABLE();
      pwrclkchanged = SET;
 8009c84:	2601      	movs	r6, #1
      __HAL_RCC_PWR_CLK_ENABLE();
 8009c86:	69e3      	ldr	r3, [r4, #28]
 8009c88:	f043 5380 	orr.w	r3, r3, #268435456	@ 0x10000000
 8009c8c:	61e3      	str	r3, [r4, #28]
 8009c8e:	69e3      	ldr	r3, [r4, #28]
 8009c90:	f003 5380 	and.w	r3, r3, #268435456	@ 0x10000000
 8009c94:	9301      	str	r3, [sp, #4]
 8009c96:	9b01      	ldr	r3, [sp, #4]
    }

    if (HAL_IS_BIT_CLR(PWR->CR, PWR_CR_DBP))
 8009c98:	4f30      	ldr	r7, [pc, #192]	@ (8009d5c <HAL_RCCEx_PeriphCLKConfig+0xec>)
 8009c9a:	683b      	ldr	r3, [r7, #0]
 8009c9c:	05da      	lsls	r2, r3, #23
 8009c9e:	d51f      	bpl.n	8009ce0 <HAL_RCCEx_PeriphCLKConfig+0x70>
        }
      }
    }

    /* Reset the Backup domain only if the RTC Clock source selection is modified from reset value */
    temp_reg = (RCC->BDCR & RCC_BDCR_RTCSEL);
 8009ca0:	6a23      	ldr	r3, [r4, #32]
    if ((temp_reg != 0x00000000U) && (temp_reg != (PeriphClkInit->RTCClockSelection & RCC_BDCR_RTCSEL)))
 8009ca2:	686a      	ldr	r2, [r5, #4]
 8009ca4:	f413 7340 	ands.w	r3, r3, #768	@ 0x300
 8009ca8:	d12e      	bne.n	8009d08 <HAL_RCCEx_PeriphCLKConfig+0x98>
            return HAL_TIMEOUT;
          }
        }
      }
    }
    __HAL_RCC_RTC_CONFIG(PeriphClkInit->RTCClockSelection);
 8009caa:	6a23      	ldr	r3, [r4, #32]
 8009cac:	686a      	ldr	r2, [r5, #4]
 8009cae:	f423 7340 	bic.w	r3, r3, #768	@ 0x300
 8009cb2:	4313      	orrs	r3, r2
 8009cb4:	6223      	str	r3, [r4, #32]

    /* Require to disable power clock if necessary */
    if (pwrclkchanged == SET)
 8009cb6:	b11e      	cbz	r6, 8009cc0 <HAL_RCCEx_PeriphCLKConfig+0x50>
    {
      __HAL_RCC_PWR_CLK_DISABLE();
 8009cb8:	69e3      	ldr	r3, [r4, #28]
 8009cba:	f023 5380 	bic.w	r3, r3, #268435456	@ 0x10000000
 8009cbe:	61e3      	str	r3, [r4, #28]
    }
  }

  /*------------------------------ ADC clock Configuration ------------------*/
  if (((PeriphClkInit->PeriphClockSelection) & RCC_PERIPHCLK_ADC) == RCC_PERIPHCLK_ADC)
 8009cc0:	682a      	ldr	r2, [r5, #0]
 8009cc2:	0791      	lsls	r1, r2, #30
 8009cc4:	d506      	bpl.n	8009cd4 <HAL_RCCEx_PeriphCLKConfig+0x64>
  {
    /* Check the parameters */
    assert_param(IS_RCC_ADCPLLCLK_DIV(PeriphClkInit->AdcClockSelection));

    /* Configure the ADC clock source */
    __HAL_RCC_ADC_CONFIG(PeriphClkInit->AdcClockSelection);
 8009cc6:	4924      	ldr	r1, [pc, #144]	@ (8009d58 <HAL_RCCEx_PeriphCLKConfig+0xe8>)
 8009cc8:	68a8      	ldr	r0, [r5, #8]
 8009cca:	684b      	ldr	r3, [r1, #4]
 8009ccc:	f423 4340 	bic.w	r3, r3, #49152	@ 0xc000
 8009cd0:	4303      	orrs	r3, r0
 8009cd2:	604b      	str	r3, [r1, #4]

#if defined(STM32F102x6) || defined(STM32F102xB) || defined(STM32F103x6)\
 || defined(STM32F103xB) || defined(STM32F103xE) || defined(STM32F103xG)\
 || defined(STM32F105xC) || defined(STM32F107xC)
  /*------------------------------ USB clock Configuration ------------------*/
  if (((PeriphClkInit->PeriphClockSelection) & RCC_PERIPHCLK_USB) == RCC_PERIPHCLK_USB)
 8009cd4:	06d3      	lsls	r3, r2, #27
 8009cd6:	d436      	bmi.n	8009d46 <HAL_RCCEx_PeriphCLKConfig+0xd6>
    /* Configure the USB clock source */
    __HAL_RCC_USB_CONFIG(PeriphClkInit->UsbClockSelection);
  }
#endif /* STM32F102x6 || STM32F102xB || STM32F103x6 || STM32F103xB || STM32F103xE || STM32F103xG || STM32F105xC || STM32F107xC */

  return HAL_OK;
 8009cd8:	2000      	movs	r0, #0
 8009cda:	e012      	b.n	8009d02 <HAL_RCCEx_PeriphCLKConfig+0x92>
    FlagStatus pwrclkchanged = RESET;
 8009cdc:	2600      	movs	r6, #0
 8009cde:	e7db      	b.n	8009c98 <HAL_RCCEx_PeriphCLKConfig+0x28>
      SET_BIT(PWR->CR, PWR_CR_DBP);
 8009ce0:	683b      	ldr	r3, [r7, #0]
 8009ce2:	f443 7380 	orr.w	r3, r3, #256	@ 0x100
 8009ce6:	603b      	str	r3, [r7, #0]
      tickstart = HAL_GetTick();
 8009ce8:	f7fe fe2a 	bl	8008940 <HAL_GetTick>
 8009cec:	4680      	mov	r8, r0
      while (HAL_IS_BIT_CLR(PWR->CR, PWR_CR_DBP))
 8009cee:	683b      	ldr	r3, [r7, #0]
 8009cf0:	05db      	lsls	r3, r3, #23
 8009cf2:	d4d5      	bmi.n	8009ca0 <HAL_RCCEx_PeriphCLKConfig+0x30>
        if ((HAL_GetTick() - tickstart) > RCC_DBP_TIMEOUT_VALUE)
 8009cf4:	f7fe fe24 	bl	8008940 <HAL_GetTick>
 8009cf8:	eba0 0008 	sub.w	r0, r0, r8
 8009cfc:	2864      	cmp	r0, #100	@ 0x64
 8009cfe:	d9f6      	bls.n	8009cee <HAL_RCCEx_PeriphCLKConfig+0x7e>
          return HAL_TIMEOUT;
 8009d00:	2003      	movs	r0, #3
}
 8009d02:	b002      	add	sp, #8
 8009d04:	e8bd 81f0 	ldmia.w	sp!, {r4, r5, r6, r7, r8, pc}
    if ((temp_reg != 0x00000000U) && (temp_reg != (PeriphClkInit->RTCClockSelection & RCC_BDCR_RTCSEL)))
 8009d08:	f402 7240 	and.w	r2, r2, #768	@ 0x300
 8009d0c:	429a      	cmp	r2, r3
 8009d0e:	d0cc      	beq.n	8009caa <HAL_RCCEx_PeriphCLKConfig+0x3a>
      __HAL_RCC_BACKUPRESET_FORCE();
 8009d10:	2001      	movs	r0, #1
 8009d12:	4a13      	ldr	r2, [pc, #76]	@ (8009d60 <HAL_RCCEx_PeriphCLKConfig+0xf0>)
      temp_reg = (RCC->BDCR & ~(RCC_BDCR_RTCSEL));
 8009d14:	6a23      	ldr	r3, [r4, #32]
      __HAL_RCC_BACKUPRESET_FORCE();
 8009d16:	f8c2 0440 	str.w	r0, [r2, #1088]	@ 0x440
      __HAL_RCC_BACKUPRESET_RELEASE();
 8009d1a:	2000      	movs	r0, #0
      temp_reg = (RCC->BDCR & ~(RCC_BDCR_RTCSEL));
 8009d1c:	f423 7140 	bic.w	r1, r3, #768	@ 0x300
      if (HAL_IS_BIT_SET(temp_reg, RCC_BDCR_LSEON))
 8009d20:	07df      	lsls	r7, r3, #31
      __HAL_RCC_BACKUPRESET_RELEASE();
 8009d22:	f8c2 0440 	str.w	r0, [r2, #1088]	@ 0x440
      RCC->BDCR = temp_reg;
 8009d26:	6221      	str	r1, [r4, #32]
      if (HAL_IS_BIT_SET(temp_reg, RCC_BDCR_LSEON))
 8009d28:	d5bf      	bpl.n	8009caa <HAL_RCCEx_PeriphCLKConfig+0x3a>
        tickstart = HAL_GetTick();
 8009d2a:	f7fe fe09 	bl	8008940 <HAL_GetTick>
          if ((HAL_GetTick() - tickstart) > RCC_LSE_TIMEOUT_VALUE)
 8009d2e:	f241 3888 	movw	r8, #5000	@ 0x1388
        tickstart = HAL_GetTick();
 8009d32:	4607      	mov	r7, r0
        while (__HAL_RCC_GET_FLAG(RCC_FLAG_LSERDY) == RESET)
 8009d34:	6a23      	ldr	r3, [r4, #32]
 8009d36:	0798      	lsls	r0, r3, #30
 8009d38:	d4b7      	bmi.n	8009caa <HAL_RCCEx_PeriphCLKConfig+0x3a>
          if ((HAL_GetTick() - tickstart) > RCC_LSE_TIMEOUT_VALUE)
 8009d3a:	f7fe fe01 	bl	8008940 <HAL_GetTick>
 8009d3e:	1bc0      	subs	r0, r0, r7
 8009d40:	4540      	cmp	r0, r8
 8009d42:	d9f7      	bls.n	8009d34 <HAL_RCCEx_PeriphCLKConfig+0xc4>
 8009d44:	e7dc      	b.n	8009d00 <HAL_RCCEx_PeriphCLKConfig+0x90>
    __HAL_RCC_USB_CONFIG(PeriphClkInit->UsbClockSelection);
 8009d46:	4a04      	ldr	r2, [pc, #16]	@ (8009d58 <HAL_RCCEx_PeriphCLKConfig+0xe8>)
 8009d48:	68e9      	ldr	r1, [r5, #12]
 8009d4a:	6853      	ldr	r3, [r2, #4]
 8009d4c:	f423 0380 	bic.w	r3, r3, #4194304	@ 0x400000
 8009d50:	430b      	orrs	r3, r1
 8009d52:	6053      	str	r3, [r2, #4]
 8009d54:	e7c0      	b.n	8009cd8 <HAL_RCCEx_PeriphCLKConfig+0x68>
 8009d56:	bf00      	nop
 8009d58:	40021000 	.word	0x40021000
 8009d5c:	40007000 	.word	0x40007000
 8009d60:	42420000 	.word	0x42420000

08009d64 <HAL_RCCEx_GetPeriphCLKFreq>:
  uint32_t temp_reg = 0U, frequency = 0U;

  /* Check the parameters */
  assert_param(IS_RCC_PERIPHCLOCK(PeriphClk));

  switch (PeriphClk)
 8009d64:	2802      	cmp	r0, #2
{
 8009d66:	b508      	push	{r3, lr}
  switch (PeriphClk)
 8009d68:	d044      	beq.n	8009df4 <HAL_RCCEx_GetPeriphCLKFreq+0x90>
 8009d6a:	2810      	cmp	r0, #16
 8009d6c:	d003      	beq.n	8009d76 <HAL_RCCEx_GetPeriphCLKFreq+0x12>
 8009d6e:	2801      	cmp	r0, #1
 8009d70:	d022      	beq.n	8009db8 <HAL_RCCEx_GetPeriphCLKFreq+0x54>
  uint32_t temp_reg = 0U, frequency = 0U;
 8009d72:	2000      	movs	r0, #0
 8009d74:	e034      	b.n	8009de0 <HAL_RCCEx_GetPeriphCLKFreq+0x7c>
 || defined(STM32F103xB) || defined(STM32F103xE) || defined(STM32F103xG)\
 || defined(STM32F105xC) || defined(STM32F107xC)
    case RCC_PERIPHCLK_USB:
    {
      /* Get RCC configuration ------------------------------------------------------*/
      temp_reg = RCC->CFGR;
 8009d76:	4b25      	ldr	r3, [pc, #148]	@ (8009e0c <HAL_RCCEx_GetPeriphCLKFreq+0xa8>)
 8009d78:	685a      	ldr	r2, [r3, #4]

      /* Check if PLL is enabled */
      if (HAL_IS_BIT_SET(RCC->CR, RCC_CR_PLLON))
 8009d7a:	6818      	ldr	r0, [r3, #0]
 8009d7c:	f010 7080 	ands.w	r0, r0, #16777216	@ 0x1000000
 8009d80:	d02e      	beq.n	8009de0 <HAL_RCCEx_GetPeriphCLKFreq+0x7c>
      {
        pllmul = aPLLMULFactorTable[(uint32_t)(temp_reg & RCC_CFGR_PLLMULL) >> RCC_CFGR_PLLMULL_Pos];
 8009d82:	f3c2 4183 	ubfx	r1, r2, #18, #4
 8009d86:	4822      	ldr	r0, [pc, #136]	@ (8009e10 <HAL_RCCEx_GetPeriphCLKFreq+0xac>)
        if ((temp_reg & RCC_CFGR_PLLSRC) != RCC_PLLSOURCE_HSI_DIV2)
 8009d88:	03d2      	lsls	r2, r2, #15
        {
#if defined(STM32F105xC) || defined(STM32F107xC) || defined(STM32F100xB)\
 || defined(STM32F100xE)
          prediv1 = aPredivFactorTable[(uint32_t)(RCC->CFGR2 & RCC_CFGR2_PREDIV1) >> RCC_CFGR2_PREDIV1_Pos];
#else
          prediv1 = aPredivFactorTable[(uint32_t)(RCC->CFGR & RCC_CFGR_PLLXTPRE) >> RCC_CFGR_PLLXTPRE_Pos];
 8009d8a:	bf48      	it	mi
 8009d8c:	685a      	ldrmi	r2, [r3, #4]
        pllmul = aPLLMULFactorTable[(uint32_t)(temp_reg & RCC_CFGR_PLLMULL) >> RCC_CFGR_PLLMULL_Pos];
 8009d8e:	5c40      	ldrb	r0, [r0, r1]
          prediv1 = aPredivFactorTable[(uint32_t)(RCC->CFGR & RCC_CFGR_PLLXTPRE) >> RCC_CFGR_PLLXTPRE_Pos];
 8009d90:	bf41      	itttt	mi
 8009d92:	4920      	ldrmi	r1, [pc, #128]	@ (8009e14 <HAL_RCCEx_GetPeriphCLKFreq+0xb0>)
 8009d94:	f3c2 4240 	ubfxmi	r2, r2, #17, #1
 8009d98:	5c89      	ldrbmi	r1, [r1, r2]
          }
#else
          if ((temp_reg & RCC_CFGR_PLLSRC) != RCC_PLLSOURCE_HSI_DIV2)
          {
            /* HSE used as PLL clock source : PLLCLK = HSE/PREDIV1 * PLLMUL */
            pllclk = (uint32_t)((HSE_VALUE / prediv1) * pllmul);
 8009d9a:	4a1f      	ldrmi	r2, [pc, #124]	@ (8009e18 <HAL_RCCEx_GetPeriphCLKFreq+0xb4>)
          /* Prescaler of 3 selected for USB */
          frequency = (2 * pllclk) / 3;
        }
#else
        /* USBCLK = PLLCLK / USB prescaler */
        if (__HAL_RCC_GET_USB_SOURCE() == RCC_USBCLKSOURCE_PLL)
 8009d9c:	685b      	ldr	r3, [r3, #4]
            pllclk = (uint32_t)((HSE_VALUE / prediv1) * pllmul);
 8009d9e:	bf4c      	ite	mi
 8009da0:	fbb2 f2f1 	udivmi	r2, r2, r1
          pllclk = (uint32_t)((HSI_VALUE >> 1) * pllmul);
 8009da4:	4a1d      	ldrpl	r2, [pc, #116]	@ (8009e1c <HAL_RCCEx_GetPeriphCLKFreq+0xb8>)
        if (__HAL_RCC_GET_USB_SOURCE() == RCC_USBCLKSOURCE_PLL)
 8009da6:	025b      	lsls	r3, r3, #9
          pllclk = (uint32_t)((HSI_VALUE >> 1) * pllmul);
 8009da8:	fb02 f000 	mul.w	r0, r2, r0
        if (__HAL_RCC_GET_USB_SOURCE() == RCC_USBCLKSOURCE_PLL)
 8009dac:	d418      	bmi.n	8009de0 <HAL_RCCEx_GetPeriphCLKFreq+0x7c>
          frequency = pllclk;
        }
        else
        {
          /* Prescaler of 1.5 selected for USB */
          frequency = (pllclk * 2) / 3;
 8009dae:	2303      	movs	r3, #3
 8009db0:	0040      	lsls	r0, r0, #1
      }
      break;
    }
    case RCC_PERIPHCLK_ADC:
    {
      frequency = HAL_RCC_GetPCLK2Freq() / (((__HAL_RCC_GET_ADC_SOURCE() >> RCC_CFGR_ADCPRE_Pos) + 1) * 2);
 8009db2:	fbb0 f0f3 	udiv	r0, r0, r3
      break;
 8009db6:	e013      	b.n	8009de0 <HAL_RCCEx_GetPeriphCLKFreq+0x7c>
      if (((temp_reg & RCC_BDCR_RTCSEL) == RCC_RTCCLKSOURCE_LSE) && (HAL_IS_BIT_SET(temp_reg, RCC_BDCR_LSERDY)))
 8009db8:	f240 3102 	movw	r1, #770	@ 0x302
      temp_reg = RCC->BDCR;
 8009dbc:	4a13      	ldr	r2, [pc, #76]	@ (8009e0c <HAL_RCCEx_GetPeriphCLKFreq+0xa8>)
 8009dbe:	6a13      	ldr	r3, [r2, #32]
      if (((temp_reg & RCC_BDCR_RTCSEL) == RCC_RTCCLKSOURCE_LSE) && (HAL_IS_BIT_SET(temp_reg, RCC_BDCR_LSERDY)))
 8009dc0:	4019      	ands	r1, r3
 8009dc2:	f5b1 7f81 	cmp.w	r1, #258	@ 0x102
 8009dc6:	d01e      	beq.n	8009e06 <HAL_RCCEx_GetPeriphCLKFreq+0xa2>
      else if (((temp_reg & RCC_BDCR_RTCSEL) == RCC_RTCCLKSOURCE_LSI) && (HAL_IS_BIT_SET(RCC->CSR, RCC_CSR_LSIRDY)))
 8009dc8:	f403 7340 	and.w	r3, r3, #768	@ 0x300
 8009dcc:	f5b3 7f00 	cmp.w	r3, #512	@ 0x200
 8009dd0:	d107      	bne.n	8009de2 <HAL_RCCEx_GetPeriphCLKFreq+0x7e>
  uint32_t temp_reg = 0U, frequency = 0U;
 8009dd2:	f649 4040 	movw	r0, #40000	@ 0x9c40
      else if (((temp_reg & RCC_BDCR_RTCSEL) == RCC_RTCCLKSOURCE_LSI) && (HAL_IS_BIT_SET(RCC->CSR, RCC_CSR_LSIRDY)))
 8009dd6:	6a53      	ldr	r3, [r2, #36]	@ 0x24
  uint32_t temp_reg = 0U, frequency = 0U;
 8009dd8:	f013 0f02 	tst.w	r3, #2
 8009ddc:	bf08      	it	eq
 8009dde:	2000      	moveq	r0, #0
    {
      break;
    }
  }
  return (frequency);
}
 8009de0:	bd08      	pop	{r3, pc}
      else if (((temp_reg & RCC_BDCR_RTCSEL) == RCC_RTCCLKSOURCE_HSE_DIV128) && (HAL_IS_BIT_SET(RCC->CR, RCC_CR_HSERDY)))
 8009de2:	f5b3 7f40 	cmp.w	r3, #768	@ 0x300
 8009de6:	d1c4      	bne.n	8009d72 <HAL_RCCEx_GetPeriphCLKFreq+0xe>
 8009de8:	6813      	ldr	r3, [r2, #0]
  uint32_t temp_reg = 0U, frequency = 0U;
 8009dea:	f24f 4024 	movw	r0, #62500	@ 0xf424
 8009dee:	f413 3f00 	tst.w	r3, #131072	@ 0x20000
 8009df2:	e7f3      	b.n	8009ddc <HAL_RCCEx_GetPeriphCLKFreq+0x78>
      frequency = HAL_RCC_GetPCLK2Freq() / (((__HAL_RCC_GET_ADC_SOURCE() >> RCC_CFGR_ADCPRE_Pos) + 1) * 2);
 8009df4:	f7ff ff2c 	bl	8009c50 <HAL_RCC_GetPCLK2Freq>
 8009df8:	4b04      	ldr	r3, [pc, #16]	@ (8009e0c <HAL_RCCEx_GetPeriphCLKFreq+0xa8>)
 8009dfa:	685b      	ldr	r3, [r3, #4]
 8009dfc:	f3c3 3381 	ubfx	r3, r3, #14, #2
 8009e00:	3301      	adds	r3, #1
 8009e02:	005b      	lsls	r3, r3, #1
 8009e04:	e7d5      	b.n	8009db2 <HAL_RCCEx_GetPeriphCLKFreq+0x4e>
        frequency = LSE_VALUE;
 8009e06:	f44f 4000 	mov.w	r0, #32768	@ 0x8000
 8009e0a:	e7e9      	b.n	8009de0 <HAL_RCCEx_GetPeriphCLKFreq+0x7c>
 8009e0c:	40021000 	.word	0x40021000
 8009e10:	0800bbe9 	.word	0x0800bbe9
 8009e14:	0800bbe7 	.word	0x0800bbe7
 8009e18:	007a1200 	.word	0x007a1200
 8009e1c:	003d0900 	.word	0x003d0900

08009e20 <RTC_ReadTimeCounter>:
static uint32_t RTC_ReadTimeCounter(RTC_HandleTypeDef *hrtc)
{
  uint16_t high1 = 0U, high2 = 0U, low = 0U;
  uint32_t timecounter = 0U;

  high1 = READ_REG(hrtc->Instance->CNTH & RTC_CNTH_RTC_CNT);
 8009e20:	6803      	ldr	r3, [r0, #0]
{
 8009e22:	b530      	push	{r4, r5, lr}
  high1 = READ_REG(hrtc->Instance->CNTH & RTC_CNTH_RTC_CNT);
 8009e24:	699a      	ldr	r2, [r3, #24]
  low   = READ_REG(hrtc->Instance->CNTL & RTC_CNTL_RTC_CNT);
 8009e26:	69d8      	ldr	r0, [r3, #28]
  high2 = READ_REG(hrtc->Instance->CNTH & RTC_CNTH_RTC_CNT);
 8009e28:	6999      	ldr	r1, [r3, #24]

  if (high1 != high2)
 8009e2a:	b295      	uxth	r5, r2
 8009e2c:	b28c      	uxth	r4, r1
 8009e2e:	42a5      	cmp	r5, r4
  {
    /* In this case the counter roll over during reading of CNTL and CNTH registers,
       read again CNTL register then return the counter value */
    timecounter = (((uint32_t) high2 << 16U) | READ_REG(hrtc->Instance->CNTL & RTC_CNTL_RTC_CNT));
 8009e30:	bf17      	itett	ne
 8009e32:	69d8      	ldrne	r0, [r3, #28]
  }
  else
  {
    /* No counter roll over during reading of CNTL and CNTH registers, counter
       value is equal to first value of CNTL and CNTH */
    timecounter = (((uint32_t) high1 << 16U) | low);
 8009e34:	b280      	uxtheq	r0, r0
    timecounter = (((uint32_t) high2 << 16U) | READ_REG(hrtc->Instance->CNTL & RTC_CNTL_RTC_CNT));
 8009e36:	b280      	uxthne	r0, r0
 8009e38:	ea40 4001 	orrne.w	r0, r0, r1, lsl #16
    timecounter = (((uint32_t) high1 << 16U) | low);
 8009e3c:	bf08      	it	eq
 8009e3e:	ea40 4002 	orreq.w	r0, r0, r2, lsl #16
  }

  return timecounter;
}
 8009e42:	bd30      	pop	{r4, r5, pc}

08009e44 <RTC_ReadAlarmCounter>:
  */
static uint32_t RTC_ReadAlarmCounter(RTC_HandleTypeDef *hrtc)
{
  uint16_t high1 = 0U, low = 0U;

  high1 = READ_REG(hrtc->Instance->ALRH & RTC_CNTH_RTC_CNT);
 8009e44:	6803      	ldr	r3, [r0, #0]
 8009e46:	6a18      	ldr	r0, [r3, #32]
  low   = READ_REG(hrtc->Instance->ALRL & RTC_CNTL_RTC_CNT);
 8009e48:	6a5b      	ldr	r3, [r3, #36]	@ 0x24

  return (((uint32_t) high1 << 16U) | low);
 8009e4a:	b29b      	uxth	r3, r3
}
 8009e4c:	ea43 4000 	orr.w	r0, r3, r0, lsl #16
 8009e50:	4770      	bx	lr

08009e52 <RTC_Bcd2ToByte>:
  */
static uint8_t RTC_Bcd2ToByte(uint8_t Value)
{
  uint32_t tmp = 0U;
  tmp = ((uint8_t)(Value & (uint8_t)0xF0) >> (uint8_t)0x4) * 10U;
  return (tmp + (Value & (uint8_t)0x0F));
 8009e52:	220a      	movs	r2, #10
  tmp = ((uint8_t)(Value & (uint8_t)0xF0) >> (uint8_t)0x4) * 10U;
 8009e54:	0903      	lsrs	r3, r0, #4
  return (tmp + (Value & (uint8_t)0x0F));
 8009e56:	f000 000f 	and.w	r0, r0, #15
 8009e5a:	fb02 0003 	mla	r0, r2, r3, r0
}
 8009e5e:	b2c0      	uxtb	r0, r0
 8009e60:	4770      	bx	lr

08009e62 <RTC_WeekDayNum>:
  *         @arg RTC_WEEKDAY_FRIDAY
  *         @arg RTC_WEEKDAY_SATURDAY
  *         @arg RTC_WEEKDAY_SUNDAY
  */
static uint8_t RTC_WeekDayNum(uint32_t nYear, uint8_t nMonth, uint8_t nDay)
{
 8009e62:	b530      	push	{r4, r5, lr}
  year = 2000U + nYear;

  if (nMonth < 3U)
  {
    /*D = { [(23 x month)/9] + day + 4 + year + [(year-1)/4] - [(year-1)/100] + [(year-1)/400] } mod 7*/
    weekday = (((23U * nMonth) / 9U) + nDay + 4U + year + ((year - 1U) / 4U) - ((year - 1U) / 100U) + ((year - 1U) / 400U)) % 7U;
 8009e64:	2517      	movs	r5, #23
 8009e66:	2309      	movs	r3, #9
 8009e68:	434d      	muls	r5, r1
  if (nMonth < 3U)
 8009e6a:	2902      	cmp	r1, #2
    weekday = (((23U * nMonth) / 9U) + nDay + 4U + year + ((year - 1U) / 4U) - ((year - 1U) / 100U) + ((year - 1U) / 400U)) % 7U;
 8009e6c:	fbb5 f5f3 	udiv	r5, r5, r3
  year = 2000U + nYear;
 8009e70:	f500 64fa 	add.w	r4, r0, #2000	@ 0x7d0
  if (nMonth < 3U)
 8009e74:	d817      	bhi.n	8009ea6 <RTC_WeekDayNum+0x44>
    weekday = (((23U * nMonth) / 9U) + nDay + 4U + year + ((year - 1U) / 4U) - ((year - 1U) / 100U) + ((year - 1U) / 400U)) % 7U;
 8009e76:	f200 73cf 	addw	r3, r0, #1999	@ 0x7cf
 8009e7a:	1d10      	adds	r0, r2, #4
 8009e7c:	f44f 72c8 	mov.w	r2, #400	@ 0x190
 8009e80:	fbb3 f2f2 	udiv	r2, r3, r2
 8009e84:	4420      	add	r0, r4
 8009e86:	4428      	add	r0, r5
 8009e88:	eb00 0093 	add.w	r0, r0, r3, lsr #2
 8009e8c:	4410      	add	r0, r2
 8009e8e:	2264      	movs	r2, #100	@ 0x64
 8009e90:	fbb3 f3f2 	udiv	r3, r3, r2
 8009e94:	1ac0      	subs	r0, r0, r3
  }
  else
  {
    /*D = { [(23 x month)/9] + day + 4 + year + [year/4] - [year/100] + [year/400] - 2 } mod 7*/
    weekday = (((23U * nMonth) / 9U) + nDay + 4U + year + (year / 4U) - (year / 100U) + (year / 400U) - 2U) % 7U;
 8009e96:	2307      	movs	r3, #7
 8009e98:	fbb0 f3f3 	udiv	r3, r0, r3
 8009e9c:	ebc3 03c3 	rsb	r3, r3, r3, lsl #3
 8009ea0:	1ac0      	subs	r0, r0, r3
  }

  return (uint8_t)weekday;
}
 8009ea2:	b2c0      	uxtb	r0, r0
 8009ea4:	bd30      	pop	{r4, r5, pc}
    weekday = (((23U * nMonth) / 9U) + nDay + 4U + year + (year / 4U) - (year / 100U) + (year / 400U) - 2U) % 7U;
 8009ea6:	f44f 73c8 	mov.w	r3, #400	@ 0x190
 8009eaa:	fbb4 f3f3 	udiv	r3, r4, r3
 8009eae:	1c90      	adds	r0, r2, #2
 8009eb0:	4420      	add	r0, r4
 8009eb2:	4428      	add	r0, r5
 8009eb4:	eb00 0094 	add.w	r0, r0, r4, lsr #2
 8009eb8:	4418      	add	r0, r3
 8009eba:	2364      	movs	r3, #100	@ 0x64
 8009ebc:	fbb4 f4f3 	udiv	r4, r4, r3
 8009ec0:	1b00      	subs	r0, r0, r4
 8009ec2:	e7e8      	b.n	8009e96 <RTC_WeekDayNum+0x34>

08009ec4 <RTC_EnterInitMode>:
{
 8009ec4:	b538      	push	{r3, r4, r5, lr}
 8009ec6:	4604      	mov	r4, r0
  tickstart = HAL_GetTick();
 8009ec8:	f7fe fd3a 	bl	8008940 <HAL_GetTick>
 8009ecc:	4605      	mov	r5, r0
  while ((hrtc->Instance->CRL & RTC_CRL_RTOFF) == (uint32_t)RESET)
 8009ece:	6823      	ldr	r3, [r4, #0]
 8009ed0:	685a      	ldr	r2, [r3, #4]
 8009ed2:	0692      	lsls	r2, r2, #26
 8009ed4:	d505      	bpl.n	8009ee2 <RTC_EnterInitMode+0x1e>
  return HAL_OK;
 8009ed6:	2000      	movs	r0, #0
  __HAL_RTC_WRITEPROTECTION_DISABLE(hrtc);
 8009ed8:	685a      	ldr	r2, [r3, #4]
 8009eda:	f042 0210 	orr.w	r2, r2, #16
 8009ede:	605a      	str	r2, [r3, #4]
}
 8009ee0:	bd38      	pop	{r3, r4, r5, pc}
    if ((HAL_GetTick() - tickstart) >  RTC_TIMEOUT_VALUE)
 8009ee2:	f7fe fd2d 	bl	8008940 <HAL_GetTick>
 8009ee6:	1b40      	subs	r0, r0, r5
 8009ee8:	f5b0 7f7a 	cmp.w	r0, #1000	@ 0x3e8
 8009eec:	d9ef      	bls.n	8009ece <RTC_EnterInitMode+0xa>
      return HAL_TIMEOUT;
 8009eee:	2003      	movs	r0, #3
 8009ef0:	e7f6      	b.n	8009ee0 <RTC_EnterInitMode+0x1c>

08009ef2 <RTC_ExitInitMode>:
  __HAL_RTC_WRITEPROTECTION_ENABLE(hrtc);
 8009ef2:	6802      	ldr	r2, [r0, #0]
{
 8009ef4:	b538      	push	{r3, r4, r5, lr}
  __HAL_RTC_WRITEPROTECTION_ENABLE(hrtc);
 8009ef6:	6853      	ldr	r3, [r2, #4]
{
 8009ef8:	4604      	mov	r4, r0
  __HAL_RTC_WRITEPROTECTION_ENABLE(hrtc);
 8009efa:	f023 0310 	bic.w	r3, r3, #16
 8009efe:	6053      	str	r3, [r2, #4]
  tickstart = HAL_GetTick();
 8009f00:	f7fe fd1e 	bl	8008940 <HAL_GetTick>
 8009f04:	4605      	mov	r5, r0
  while ((hrtc->Instance->CRL & RTC_CRL_RTOFF) == (uint32_t)RESET)
 8009f06:	6823      	ldr	r3, [r4, #0]
 8009f08:	685b      	ldr	r3, [r3, #4]
 8009f0a:	069b      	lsls	r3, r3, #26
 8009f0c:	d501      	bpl.n	8009f12 <RTC_ExitInitMode+0x20>
  return HAL_OK;
 8009f0e:	2000      	movs	r0, #0
}
 8009f10:	bd38      	pop	{r3, r4, r5, pc}
    if ((HAL_GetTick() - tickstart) >  RTC_TIMEOUT_VALUE)
 8009f12:	f7fe fd15 	bl	8008940 <HAL_GetTick>
 8009f16:	1b40      	subs	r0, r0, r5
 8009f18:	f5b0 7f7a 	cmp.w	r0, #1000	@ 0x3e8
 8009f1c:	d9f3      	bls.n	8009f06 <RTC_ExitInitMode+0x14>
      return HAL_TIMEOUT;
 8009f1e:	2003      	movs	r0, #3
 8009f20:	e7f6      	b.n	8009f10 <RTC_ExitInitMode+0x1e>

08009f22 <RTC_WriteTimeCounter>:
{
 8009f22:	b538      	push	{r3, r4, r5, lr}
 8009f24:	4605      	mov	r5, r0
 8009f26:	460c      	mov	r4, r1
  if (RTC_EnterInitMode(hrtc) != HAL_OK)
 8009f28:	f7ff ffcc 	bl	8009ec4 <RTC_EnterInitMode>
 8009f2c:	b958      	cbnz	r0, 8009f46 <RTC_WriteTimeCounter+0x24>
    WRITE_REG(hrtc->Instance->CNTH, (TimeCounter >> 16U));
 8009f2e:	682b      	ldr	r3, [r5, #0]
 8009f30:	0c22      	lsrs	r2, r4, #16
    WRITE_REG(hrtc->Instance->CNTL, (TimeCounter & RTC_CNTL_RTC_CNT));
 8009f32:	b2a4      	uxth	r4, r4
    WRITE_REG(hrtc->Instance->CNTH, (TimeCounter >> 16U));
 8009f34:	619a      	str	r2, [r3, #24]
    if (RTC_ExitInitMode(hrtc) != HAL_OK)
 8009f36:	4628      	mov	r0, r5
    WRITE_REG(hrtc->Instance->CNTL, (TimeCounter & RTC_CNTL_RTC_CNT));
 8009f38:	61dc      	str	r4, [r3, #28]
    if (RTC_ExitInitMode(hrtc) != HAL_OK)
 8009f3a:	f7ff ffda 	bl	8009ef2 <RTC_ExitInitMode>
 8009f3e:	3800      	subs	r0, #0
 8009f40:	bf18      	it	ne
 8009f42:	2001      	movne	r0, #1
}
 8009f44:	bd38      	pop	{r3, r4, r5, pc}
    status = HAL_ERROR;
 8009f46:	2001      	movs	r0, #1
 8009f48:	e7fc      	b.n	8009f44 <RTC_WriteTimeCounter+0x22>

08009f4a <RTC_WriteAlarmCounter>:
{
 8009f4a:	b538      	push	{r3, r4, r5, lr}
 8009f4c:	4605      	mov	r5, r0
 8009f4e:	460c      	mov	r4, r1
  if (RTC_EnterInitMode(hrtc) != HAL_OK)
 8009f50:	f7ff ffb8 	bl	8009ec4 <RTC_EnterInitMode>
 8009f54:	b958      	cbnz	r0, 8009f6e <RTC_WriteAlarmCounter+0x24>
    WRITE_REG(hrtc->Instance->ALRH, (AlarmCounter >> 16U));
 8009f56:	682b      	ldr	r3, [r5, #0]
 8009f58:	0c22      	lsrs	r2, r4, #16
    WRITE_REG(hrtc->Instance->ALRL, (AlarmCounter & RTC_ALRL_RTC_ALR));
 8009f5a:	b2a4      	uxth	r4, r4
    WRITE_REG(hrtc->Instance->ALRH, (AlarmCounter >> 16U));
 8009f5c:	621a      	str	r2, [r3, #32]
    if (RTC_ExitInitMode(hrtc) != HAL_OK)
 8009f5e:	4628      	mov	r0, r5
    WRITE_REG(hrtc->Instance->ALRL, (AlarmCounter & RTC_ALRL_RTC_ALR));
 8009f60:	625c      	str	r4, [r3, #36]	@ 0x24
    if (RTC_ExitInitMode(hrtc) != HAL_OK)
 8009f62:	f7ff ffc6 	bl	8009ef2 <RTC_ExitInitMode>
 8009f66:	3800      	subs	r0, #0
 8009f68:	bf18      	it	ne
 8009f6a:	2001      	movne	r0, #1
}
 8009f6c:	bd38      	pop	{r3, r4, r5, pc}
    status = HAL_ERROR;
 8009f6e:	2001      	movs	r0, #1
 8009f70:	e7fc      	b.n	8009f6c <RTC_WriteAlarmCounter+0x22>

08009f72 <HAL_RTC_SetTime>:
{
 8009f72:	b5f8      	push	{r3, r4, r5, r6, r7, lr}
  if ((hrtc == NULL) || (sTime == NULL))
 8009f74:	4604      	mov	r4, r0
 8009f76:	b1e8      	cbz	r0, 8009fb4 <HAL_RTC_SetTime+0x42>
 8009f78:	b1e1      	cbz	r1, 8009fb4 <HAL_RTC_SetTime+0x42>
  __HAL_LOCK(hrtc);
 8009f7a:	7c03      	ldrb	r3, [r0, #16]
 8009f7c:	2602      	movs	r6, #2
 8009f7e:	2b01      	cmp	r3, #1
 8009f80:	d019      	beq.n	8009fb6 <HAL_RTC_SetTime+0x44>
 8009f82:	2301      	movs	r3, #1
  hrtc->State = HAL_RTC_STATE_BUSY;
 8009f84:	7446      	strb	r6, [r0, #17]
  __HAL_LOCK(hrtc);
 8009f86:	7403      	strb	r3, [r0, #16]
    counter_time = (uint32_t)(((uint32_t)sTime->Hours * 3600U) + \
 8009f88:	7808      	ldrb	r0, [r1, #0]
                              ((uint32_t)sTime->Minutes * 60U) + \
 8009f8a:	784d      	ldrb	r5, [r1, #1]
                              ((uint32_t)sTime->Seconds));
 8009f8c:	788f      	ldrb	r7, [r1, #2]
  if (Format == RTC_FORMAT_BIN)
 8009f8e:	b9a2      	cbnz	r2, 8009fba <HAL_RTC_SetTime+0x48>
                              ((uint32_t)sTime->Minutes * 60U) + \
 8009f90:	233c      	movs	r3, #60	@ 0x3c
 8009f92:	435d      	muls	r5, r3
    counter_time = (uint32_t)(((uint32_t)sTime->Hours * 3600U) + \
 8009f94:	f44f 6361 	mov.w	r3, #3600	@ 0xe10
 8009f98:	fb03 5500 	mla	r5, r3, r0, r5
 8009f9c:	443d      	add	r5, r7
  if (RTC_WriteTimeCounter(hrtc, counter_time) != HAL_OK)
 8009f9e:	4629      	mov	r1, r5
 8009fa0:	4620      	mov	r0, r4
 8009fa2:	f7ff ffbe 	bl	8009f22 <RTC_WriteTimeCounter>
 8009fa6:	4607      	mov	r7, r0
 8009fa8:	4606      	mov	r6, r0
 8009faa:	b1c0      	cbz	r0, 8009fde <HAL_RTC_SetTime+0x6c>
    hrtc->State = HAL_RTC_STATE_ERROR;
 8009fac:	2304      	movs	r3, #4
 8009fae:	7463      	strb	r3, [r4, #17]
    __HAL_UNLOCK(hrtc);
 8009fb0:	2300      	movs	r3, #0
 8009fb2:	7423      	strb	r3, [r4, #16]
    return HAL_ERROR;
 8009fb4:	2601      	movs	r6, #1
}
 8009fb6:	4630      	mov	r0, r6
 8009fb8:	bdf8      	pop	{r3, r4, r5, r6, r7, pc}
    counter_time = (((uint32_t)(RTC_Bcd2ToByte(sTime->Hours)) * 3600U) + \
 8009fba:	f7ff ff4a 	bl	8009e52 <RTC_Bcd2ToByte>
 8009fbe:	4606      	mov	r6, r0
                    ((uint32_t)(RTC_Bcd2ToByte(sTime->Minutes)) * 60U) + \
 8009fc0:	4628      	mov	r0, r5
 8009fc2:	f7ff ff46 	bl	8009e52 <RTC_Bcd2ToByte>
 8009fc6:	233c      	movs	r3, #60	@ 0x3c
 8009fc8:	fb03 f100 	mul.w	r1, r3, r0
    counter_time = (((uint32_t)(RTC_Bcd2ToByte(sTime->Hours)) * 3600U) + \
 8009fcc:	f44f 6361 	mov.w	r3, #3600	@ 0xe10
                    ((uint32_t)(RTC_Bcd2ToByte(sTime->Seconds))));
 8009fd0:	4638      	mov	r0, r7
    counter_time = (((uint32_t)(RTC_Bcd2ToByte(sTime->Hours)) * 3600U) + \
 8009fd2:	fb03 1106 	mla	r1, r3, r6, r1
                    ((uint32_t)(RTC_Bcd2ToByte(sTime->Seconds))));
 8009fd6:	f7ff ff3c 	bl	8009e52 <RTC_Bcd2ToByte>
    counter_time = (((uint32_t)(RTC_Bcd2ToByte(sTime->Hours)) * 3600U) + \
 8009fda:	1845      	adds	r5, r0, r1
 8009fdc:	e7df      	b.n	8009f9e <HAL_RTC_SetTime+0x2c>
    CLEAR_BIT(hrtc->Instance->CRL, (RTC_FLAG_SEC | RTC_FLAG_OW));
 8009fde:	6822      	ldr	r2, [r4, #0]
    counter_alarm = RTC_ReadAlarmCounter(hrtc);
 8009fe0:	4620      	mov	r0, r4
    CLEAR_BIT(hrtc->Instance->CRL, (RTC_FLAG_SEC | RTC_FLAG_OW));
 8009fe2:	6853      	ldr	r3, [r2, #4]
 8009fe4:	f023 0305 	bic.w	r3, r3, #5
 8009fe8:	6053      	str	r3, [r2, #4]
    counter_alarm = RTC_ReadAlarmCounter(hrtc);
 8009fea:	f7ff ff2b 	bl	8009e44 <RTC_ReadAlarmCounter>
      if (counter_alarm < counter_time)
 8009fee:	4285      	cmp	r5, r0
 8009ff0:	d90b      	bls.n	800a00a <HAL_RTC_SetTime+0x98>
        if (RTC_WriteAlarmCounter(hrtc, counter_alarm) != HAL_OK)
 8009ff2:	f500 31a8 	add.w	r1, r0, #86016	@ 0x15000
 8009ff6:	f501 71c0 	add.w	r1, r1, #384	@ 0x180
 8009ffa:	4620      	mov	r0, r4
 8009ffc:	f7ff ffa5 	bl	8009f4a <RTC_WriteAlarmCounter>
 800a000:	b118      	cbz	r0, 800a00a <HAL_RTC_SetTime+0x98>
          hrtc->State = HAL_RTC_STATE_ERROR;
 800a002:	2304      	movs	r3, #4
          __HAL_UNLOCK(hrtc);
 800a004:	7427      	strb	r7, [r4, #16]
          hrtc->State = HAL_RTC_STATE_ERROR;
 800a006:	7463      	strb	r3, [r4, #17]
          return HAL_ERROR;
 800a008:	e7d4      	b.n	8009fb4 <HAL_RTC_SetTime+0x42>
    hrtc->State = HAL_RTC_STATE_READY;
 800a00a:	2301      	movs	r3, #1
 800a00c:	7463      	strb	r3, [r4, #17]
    __HAL_UNLOCK(hrtc);
 800a00e:	2300      	movs	r3, #0
 800a010:	7423      	strb	r3, [r4, #16]
    return HAL_OK;
 800a012:	e7d0      	b.n	8009fb6 <HAL_RTC_SetTime+0x44>

0800a014 <HAL_RTC_SetDate>:
{
 800a014:	b570      	push	{r4, r5, r6, lr}
 800a016:	460d      	mov	r5, r1
  if ((hrtc == NULL) || (sDate == NULL))
 800a018:	4604      	mov	r4, r0
 800a01a:	b348      	cbz	r0, 800a070 <HAL_RTC_SetDate+0x5c>
 800a01c:	b341      	cbz	r1, 800a070 <HAL_RTC_SetDate+0x5c>
  __HAL_LOCK(hrtc);
 800a01e:	7c03      	ldrb	r3, [r0, #16]
 800a020:	2002      	movs	r0, #2
 800a022:	2b01      	cmp	r3, #1
 800a024:	d025      	beq.n	800a072 <HAL_RTC_SetDate+0x5e>
 800a026:	2301      	movs	r3, #1
  hrtc->State = HAL_RTC_STATE_BUSY;
 800a028:	7460      	strb	r0, [r4, #17]
  __HAL_LOCK(hrtc);
 800a02a:	7423      	strb	r3, [r4, #16]
  if (Format == RTC_FORMAT_BIN)
 800a02c:	78c8      	ldrb	r0, [r1, #3]
 800a02e:	bb0a      	cbnz	r2, 800a074 <HAL_RTC_SetDate+0x60>
    hrtc->DateToUpdate.Year  = sDate->Year;
 800a030:	73e0      	strb	r0, [r4, #15]
    hrtc->DateToUpdate.Month = sDate->Month;
 800a032:	784b      	ldrb	r3, [r1, #1]
 800a034:	7363      	strb	r3, [r4, #13]
    hrtc->DateToUpdate.Date  = sDate->Date;
 800a036:	788a      	ldrb	r2, [r1, #2]
  hrtc->DateToUpdate.WeekDay = RTC_WeekDayNum(hrtc->DateToUpdate.Year, hrtc->DateToUpdate.Month, hrtc->DateToUpdate.Date);
 800a038:	7b61      	ldrb	r1, [r4, #13]
 800a03a:	7be0      	ldrb	r0, [r4, #15]
    hrtc->DateToUpdate.Date  = sDate->Date;
 800a03c:	73a2      	strb	r2, [r4, #14]
  hrtc->DateToUpdate.WeekDay = RTC_WeekDayNum(hrtc->DateToUpdate.Year, hrtc->DateToUpdate.Month, hrtc->DateToUpdate.Date);
 800a03e:	f7ff ff10 	bl	8009e62 <RTC_WeekDayNum>
 800a042:	7320      	strb	r0, [r4, #12]
  sDate->WeekDay = hrtc->DateToUpdate.WeekDay;
 800a044:	7028      	strb	r0, [r5, #0]
  counter_time = RTC_ReadTimeCounter(hrtc);
 800a046:	4620      	mov	r0, r4
 800a048:	f7ff feea 	bl	8009e20 <RTC_ReadTimeCounter>
  if (hours > 24U)
 800a04c:	4b1a      	ldr	r3, [pc, #104]	@ (800a0b8 <HAL_RTC_SetDate+0xa4>)
 800a04e:	4298      	cmp	r0, r3
 800a050:	d92d      	bls.n	800a0ae <HAL_RTC_SetDate+0x9a>
    counter_time -= ((hours / 24U) * 24U * 3600U);
 800a052:	4d1a      	ldr	r5, [pc, #104]	@ (800a0bc <HAL_RTC_SetDate+0xa8>)
 800a054:	fbb0 f2f5 	udiv	r2, r0, r5
 800a058:	fb05 0512 	mls	r5, r5, r2, r0
    if (RTC_WriteTimeCounter(hrtc, counter_time) != HAL_OK)
 800a05c:	4620      	mov	r0, r4
 800a05e:	4629      	mov	r1, r5
 800a060:	f7ff ff5f 	bl	8009f22 <RTC_WriteTimeCounter>
 800a064:	4606      	mov	r6, r0
 800a066:	b188      	cbz	r0, 800a08c <HAL_RTC_SetDate+0x78>
      hrtc->State = HAL_RTC_STATE_ERROR;
 800a068:	2304      	movs	r3, #4
 800a06a:	7463      	strb	r3, [r4, #17]
      __HAL_UNLOCK(hrtc);
 800a06c:	2300      	movs	r3, #0
 800a06e:	7423      	strb	r3, [r4, #16]
    return HAL_ERROR;
 800a070:	2001      	movs	r0, #1
}
 800a072:	bd70      	pop	{r4, r5, r6, pc}
    hrtc->DateToUpdate.Year  = RTC_Bcd2ToByte(sDate->Year);
 800a074:	f7ff feed 	bl	8009e52 <RTC_Bcd2ToByte>
 800a078:	73e0      	strb	r0, [r4, #15]
    hrtc->DateToUpdate.Month = RTC_Bcd2ToByte(sDate->Month);
 800a07a:	7848      	ldrb	r0, [r1, #1]
 800a07c:	f7ff fee9 	bl	8009e52 <RTC_Bcd2ToByte>
 800a080:	7360      	strb	r0, [r4, #13]
    hrtc->DateToUpdate.Date  = RTC_Bcd2ToByte(sDate->Date);
 800a082:	7888      	ldrb	r0, [r1, #2]
 800a084:	f7ff fee5 	bl	8009e52 <RTC_Bcd2ToByte>
 800a088:	4602      	mov	r2, r0
 800a08a:	e7d5      	b.n	800a038 <HAL_RTC_SetDate+0x24>
    counter_alarm = RTC_ReadAlarmCounter(hrtc);
 800a08c:	4620      	mov	r0, r4
 800a08e:	f7ff fed9 	bl	8009e44 <RTC_ReadAlarmCounter>
      if (counter_alarm < counter_time)
 800a092:	4285      	cmp	r5, r0
 800a094:	d90b      	bls.n	800a0ae <HAL_RTC_SetDate+0x9a>
        if (RTC_WriteAlarmCounter(hrtc, counter_alarm) != HAL_OK)
 800a096:	f500 31a8 	add.w	r1, r0, #86016	@ 0x15000
 800a09a:	f501 71c0 	add.w	r1, r1, #384	@ 0x180
 800a09e:	4620      	mov	r0, r4
 800a0a0:	f7ff ff53 	bl	8009f4a <RTC_WriteAlarmCounter>
 800a0a4:	b118      	cbz	r0, 800a0ae <HAL_RTC_SetDate+0x9a>
          hrtc->State = HAL_RTC_STATE_ERROR;
 800a0a6:	2304      	movs	r3, #4
          __HAL_UNLOCK(hrtc);
 800a0a8:	7426      	strb	r6, [r4, #16]
          hrtc->State = HAL_RTC_STATE_ERROR;
 800a0aa:	7463      	strb	r3, [r4, #17]
          return HAL_ERROR;
 800a0ac:	e7e0      	b.n	800a070 <HAL_RTC_SetDate+0x5c>
  hrtc->State = HAL_RTC_STATE_READY ;
 800a0ae:	2301      	movs	r3, #1
  __HAL_UNLOCK(hrtc);
 800a0b0:	2000      	movs	r0, #0
  hrtc->State = HAL_RTC_STATE_READY ;
 800a0b2:	7463      	strb	r3, [r4, #17]
  __HAL_UNLOCK(hrtc);
 800a0b4:	7420      	strb	r0, [r4, #16]
  return HAL_OK;
 800a0b6:	e7dc      	b.n	800a072 <HAL_RTC_SetDate+0x5e>
 800a0b8:	00015f8f 	.word	0x00015f8f
 800a0bc:	00015180 	.word	0x00015180

0800a0c0 <HAL_RTC_WaitForSynchro>:
{
 800a0c0:	b538      	push	{r3, r4, r5, lr}
  if (hrtc == NULL)
 800a0c2:	4604      	mov	r4, r0
 800a0c4:	b1a8      	cbz	r0, 800a0f2 <HAL_RTC_WaitForSynchro+0x32>
  CLEAR_BIT(hrtc->Instance->CRL, RTC_FLAG_RSF);
 800a0c6:	6802      	ldr	r2, [r0, #0]
 800a0c8:	6853      	ldr	r3, [r2, #4]
 800a0ca:	f023 0308 	bic.w	r3, r3, #8
 800a0ce:	6053      	str	r3, [r2, #4]
  tickstart = HAL_GetTick();
 800a0d0:	f7fe fc36 	bl	8008940 <HAL_GetTick>
 800a0d4:	4605      	mov	r5, r0
  while ((hrtc->Instance->CRL & RTC_FLAG_RSF) == (uint32_t)RESET)
 800a0d6:	6823      	ldr	r3, [r4, #0]
 800a0d8:	685b      	ldr	r3, [r3, #4]
 800a0da:	071b      	lsls	r3, r3, #28
 800a0dc:	d501      	bpl.n	800a0e2 <HAL_RTC_WaitForSynchro+0x22>
  return HAL_OK;
 800a0de:	2000      	movs	r0, #0
}
 800a0e0:	bd38      	pop	{r3, r4, r5, pc}
    if ((HAL_GetTick() - tickstart) >  RTC_TIMEOUT_VALUE)
 800a0e2:	f7fe fc2d 	bl	8008940 <HAL_GetTick>
 800a0e6:	1b40      	subs	r0, r0, r5
 800a0e8:	f5b0 7f7a 	cmp.w	r0, #1000	@ 0x3e8
 800a0ec:	d9f3      	bls.n	800a0d6 <HAL_RTC_WaitForSynchro+0x16>
      return HAL_TIMEOUT;
 800a0ee:	2003      	movs	r0, #3
 800a0f0:	e7f6      	b.n	800a0e0 <HAL_RTC_WaitForSynchro+0x20>
    return HAL_ERROR;
 800a0f2:	2001      	movs	r0, #1
 800a0f4:	e7f4      	b.n	800a0e0 <HAL_RTC_WaitForSynchro+0x20>
	...

0800a0f8 <HAL_RTC_Init>:
{
 800a0f8:	b510      	push	{r4, lr}
  if (hrtc == NULL)
 800a0fa:	4604      	mov	r4, r0
 800a0fc:	b170      	cbz	r0, 800a11c <HAL_RTC_Init+0x24>
  if (hrtc->State == HAL_RTC_STATE_RESET)
 800a0fe:	7c43      	ldrb	r3, [r0, #17]
 800a100:	f003 02ff 	and.w	r2, r3, #255	@ 0xff
 800a104:	b913      	cbnz	r3, 800a10c <HAL_RTC_Init+0x14>
    hrtc->Lock = HAL_UNLOCKED;
 800a106:	7402      	strb	r2, [r0, #16]
    HAL_RTC_MspInit(hrtc);
 800a108:	f7fd fb26 	bl	8007758 <HAL_RTC_MspInit>
  hrtc->State = HAL_RTC_STATE_BUSY;
 800a10c:	2302      	movs	r3, #2
  if (HAL_RTC_WaitForSynchro(hrtc) != HAL_OK)
 800a10e:	4620      	mov	r0, r4
  hrtc->State = HAL_RTC_STATE_BUSY;
 800a110:	7463      	strb	r3, [r4, #17]
  if (HAL_RTC_WaitForSynchro(hrtc) != HAL_OK)
 800a112:	f7ff ffd5 	bl	800a0c0 <HAL_RTC_WaitForSynchro>
 800a116:	b118      	cbz	r0, 800a120 <HAL_RTC_Init+0x28>
    hrtc->State = HAL_RTC_STATE_ERROR;
 800a118:	2304      	movs	r3, #4
 800a11a:	7463      	strb	r3, [r4, #17]
    return HAL_ERROR;
 800a11c:	2001      	movs	r0, #1
}
 800a11e:	bd10      	pop	{r4, pc}
  if (RTC_EnterInitMode(hrtc) != HAL_OK)
 800a120:	4620      	mov	r0, r4
 800a122:	f7ff fecf 	bl	8009ec4 <RTC_EnterInitMode>
 800a126:	2800      	cmp	r0, #0
 800a128:	d1f6      	bne.n	800a118 <HAL_RTC_Init+0x20>
    CLEAR_BIT(hrtc->Instance->CRL, (RTC_FLAG_OW | RTC_FLAG_ALRAF | RTC_FLAG_SEC));
 800a12a:	6822      	ldr	r2, [r4, #0]
    if (hrtc->Init.OutPut != RTC_OUTPUTSOURCE_NONE)
 800a12c:	68a1      	ldr	r1, [r4, #8]
    CLEAR_BIT(hrtc->Instance->CRL, (RTC_FLAG_OW | RTC_FLAG_ALRAF | RTC_FLAG_SEC));
 800a12e:	6853      	ldr	r3, [r2, #4]
 800a130:	f023 0307 	bic.w	r3, r3, #7
 800a134:	6053      	str	r3, [r2, #4]
    if (hrtc->Init.OutPut != RTC_OUTPUTSOURCE_NONE)
 800a136:	4a12      	ldr	r2, [pc, #72]	@ (800a180 <HAL_RTC_Init+0x88>)
 800a138:	b119      	cbz	r1, 800a142 <HAL_RTC_Init+0x4a>
      CLEAR_BIT(BKP->CR, BKP_CR_TPE);
 800a13a:	6b13      	ldr	r3, [r2, #48]	@ 0x30
 800a13c:	f023 0301 	bic.w	r3, r3, #1
 800a140:	6313      	str	r3, [r2, #48]	@ 0x30
    MODIFY_REG(BKP->RTCCR, (BKP_RTCCR_CCO | BKP_RTCCR_ASOE | BKP_RTCCR_ASOS), hrtc->Init.OutPut);
 800a142:	6ad3      	ldr	r3, [r2, #44]	@ 0x2c
 800a144:	f423 7360 	bic.w	r3, r3, #896	@ 0x380
 800a148:	430b      	orrs	r3, r1
 800a14a:	62d3      	str	r3, [r2, #44]	@ 0x2c
    if (hrtc->Init.AsynchPrediv != RTC_AUTO_1_SECOND)
 800a14c:	6860      	ldr	r0, [r4, #4]
 800a14e:	1c43      	adds	r3, r0, #1
 800a150:	d105      	bne.n	800a15e <HAL_RTC_Init+0x66>
      prescaler = HAL_RCCEx_GetPeriphCLKFreq(RCC_PERIPHCLK_RTC);
 800a152:	2001      	movs	r0, #1
 800a154:	f7ff fe06 	bl	8009d64 <HAL_RCCEx_GetPeriphCLKFreq>
      if (prescaler == 0U)
 800a158:	2800      	cmp	r0, #0
 800a15a:	d0dd      	beq.n	800a118 <HAL_RTC_Init+0x20>
        prescaler = prescaler - 1U;
 800a15c:	3801      	subs	r0, #1
    WRITE_REG(hrtc->Instance->PRLH, ((prescaler >> 16U) & RTC_PRLH_PRL));
 800a15e:	6823      	ldr	r3, [r4, #0]
 800a160:	f3c0 4203 	ubfx	r2, r0, #16, #4
    WRITE_REG(hrtc->Instance->PRLL, (prescaler & RTC_PRLL_PRL));
 800a164:	b280      	uxth	r0, r0
    WRITE_REG(hrtc->Instance->PRLH, ((prescaler >> 16U) & RTC_PRLH_PRL));
 800a166:	609a      	str	r2, [r3, #8]
    WRITE_REG(hrtc->Instance->PRLL, (prescaler & RTC_PRLL_PRL));
 800a168:	60d8      	str	r0, [r3, #12]
    if (RTC_ExitInitMode(hrtc) != HAL_OK)
 800a16a:	4620      	mov	r0, r4
 800a16c:	f7ff fec1 	bl	8009ef2 <RTC_ExitInitMode>
 800a170:	2800      	cmp	r0, #0
 800a172:	d1d1      	bne.n	800a118 <HAL_RTC_Init+0x20>
    hrtc->DateToUpdate.Month = RTC_MONTH_JANUARY;
 800a174:	2301      	movs	r3, #1
 800a176:	7363      	strb	r3, [r4, #13]
    hrtc->DateToUpdate.Date = 0x01U;
 800a178:	81e3      	strh	r3, [r4, #14]
    hrtc->State = HAL_RTC_STATE_READY;
 800a17a:	7463      	strb	r3, [r4, #17]
    return HAL_OK;
 800a17c:	e7cf      	b.n	800a11e <HAL_RTC_Init+0x26>
 800a17e:	bf00      	nop
 800a180:	40006c00 	.word	0x40006c00

0800a184 <TIM_OC1_SetConfig>:
  uint32_t tmpccmrx;
  uint32_t tmpccer;
  uint32_t tmpcr2;

  /* Get the TIMx CCER register value */
  tmpccer = TIMx->CCER;
 800a184:	6a03      	ldr	r3, [r0, #32]

  /* Disable the Channel 1: Reset the CC1E Bit */
  TIMx->CCER &= ~TIM_CCER_CC1E;
 800a186:	6a02      	ldr	r2, [r0, #32]
{
 800a188:	b570      	push	{r4, r5, r6, lr}
  TIMx->CCER &= ~TIM_CCER_CC1E;
 800a18a:	f022 0201 	bic.w	r2, r2, #1
 800a18e:	6202      	str	r2, [r0, #32]

  /* Get the TIMx CR2 register value */
  tmpcr2 =  TIMx->CR2;
 800a190:	6844      	ldr	r4, [r0, #4]

  /* Get the TIMx CCMR1 register value */
  tmpccmrx = TIMx->CCMR1;
 800a192:	6982      	ldr	r2, [r0, #24]

  /* Reset the Output Compare Mode Bits */
  tmpccmrx &= ~TIM_CCMR1_OC1M;
  tmpccmrx &= ~TIM_CCMR1_CC1S;
  /* Select the Output Compare Mode */
  tmpccmrx |= OC_Config->OCMode;
 800a194:	680d      	ldr	r5, [r1, #0]
  tmpccmrx &= ~TIM_CCMR1_CC1S;
 800a196:	f022 0273 	bic.w	r2, r2, #115	@ 0x73
  tmpccmrx |= OC_Config->OCMode;
 800a19a:	432a      	orrs	r2, r5

  /* Reset the Output Polarity level */
  tmpccer &= ~TIM_CCER_CC1P;
  /* Set the Output Compare Polarity */
  tmpccer |= OC_Config->OCPolarity;
 800a19c:	688d      	ldr	r5, [r1, #8]
  tmpccer &= ~TIM_CCER_CC1P;
 800a19e:	f023 0302 	bic.w	r3, r3, #2
  tmpccer |= OC_Config->OCPolarity;
 800a1a2:	432b      	orrs	r3, r5

  if (IS_TIM_CCXN_INSTANCE(TIMx, TIM_CHANNEL_1))
 800a1a4:	4d0a      	ldr	r5, [pc, #40]	@ (800a1d0 <TIM_OC1_SetConfig+0x4c>)
 800a1a6:	42a8      	cmp	r0, r5
 800a1a8:	d10b      	bne.n	800a1c2 <TIM_OC1_SetConfig+0x3e>
    assert_param(IS_TIM_OCN_POLARITY(OC_Config->OCNPolarity));

    /* Reset the Output N Polarity level */
    tmpccer &= ~TIM_CCER_CC1NP;
    /* Set the Output N Polarity */
    tmpccer |= OC_Config->OCNPolarity;
 800a1aa:	68cd      	ldr	r5, [r1, #12]
    tmpccer &= ~TIM_CCER_CC1NP;
 800a1ac:	f023 0308 	bic.w	r3, r3, #8
    tmpccer |= OC_Config->OCNPolarity;
 800a1b0:	432b      	orrs	r3, r5
    assert_param(IS_TIM_OCNIDLE_STATE(OC_Config->OCNIdleState));
    assert_param(IS_TIM_OCIDLE_STATE(OC_Config->OCIdleState));

    /* Reset the Output Compare and Output Compare N IDLE State */
    tmpcr2 &= ~TIM_CR2_OIS1;
    tmpcr2 &= ~TIM_CR2_OIS1N;
 800a1b2:	f424 7440 	bic.w	r4, r4, #768	@ 0x300
    /* Set the Output Idle state */
    tmpcr2 |= OC_Config->OCIdleState;
    /* Set the Output N Idle state */
    tmpcr2 |= OC_Config->OCNIdleState;
 800a1b6:	e9d1 5605 	ldrd	r5, r6, [r1, #20]
 800a1ba:	4335      	orrs	r5, r6
    tmpccer &= ~TIM_CCER_CC1NE;
 800a1bc:	f023 0304 	bic.w	r3, r3, #4
    tmpcr2 |= OC_Config->OCNIdleState;
 800a1c0:	432c      	orrs	r4, r5
  }

  /* Write to TIMx CR2 */
  TIMx->CR2 = tmpcr2;
 800a1c2:	6044      	str	r4, [r0, #4]

  /* Write to TIMx CCMR1 */
  TIMx->CCMR1 = tmpccmrx;
 800a1c4:	6182      	str	r2, [r0, #24]

  /* Set the Capture Compare Register value */
  TIMx->CCR1 = OC_Config->Pulse;
 800a1c6:	684a      	ldr	r2, [r1, #4]
 800a1c8:	6342      	str	r2, [r0, #52]	@ 0x34

  /* Write to TIMx CCER */
  TIMx->CCER = tmpccer;
 800a1ca:	6203      	str	r3, [r0, #32]
}
 800a1cc:	bd70      	pop	{r4, r5, r6, pc}
 800a1ce:	bf00      	nop
 800a1d0:	40012c00 	.word	0x40012c00

0800a1d4 <TIM_OC3_SetConfig>:
  uint32_t tmpccmrx;
  uint32_t tmpccer;
  uint32_t tmpcr2;

  /* Get the TIMx CCER register value */
  tmpccer = TIMx->CCER;
 800a1d4:	6a03      	ldr	r3, [r0, #32]

  /* Disable the Channel 3: Reset the CC2E Bit */
  TIMx->CCER &= ~TIM_CCER_CC3E;
 800a1d6:	6a02      	ldr	r2, [r0, #32]
{
 800a1d8:	b570      	push	{r4, r5, r6, lr}
  TIMx->CCER &= ~TIM_CCER_CC3E;
 800a1da:	f422 7280 	bic.w	r2, r2, #256	@ 0x100
 800a1de:	6202      	str	r2, [r0, #32]

  /* Get the TIMx CR2 register value */
  tmpcr2 =  TIMx->CR2;
 800a1e0:	6844      	ldr	r4, [r0, #4]

  /* Get the TIMx CCMR2 register value */
  tmpccmrx = TIMx->CCMR2;
 800a1e2:	69c2      	ldr	r2, [r0, #28]

  /* Reset the Output Compare mode and Capture/Compare selection Bits */
  tmpccmrx &= ~TIM_CCMR2_OC3M;
  tmpccmrx &= ~TIM_CCMR2_CC3S;
  /* Select the Output Compare Mode */
  tmpccmrx |= OC_Config->OCMode;
 800a1e4:	680d      	ldr	r5, [r1, #0]
  tmpccmrx &= ~TIM_CCMR2_CC3S;
 800a1e6:	f022 0273 	bic.w	r2, r2, #115	@ 0x73
  tmpccmrx |= OC_Config->OCMode;
 800a1ea:	432a      	orrs	r2, r5

  /* Reset the Output Polarity level */
  tmpccer &= ~TIM_CCER_CC3P;
  /* Set the Output Compare Polarity */
  tmpccer |= (OC_Config->OCPolarity << 8U);
 800a1ec:	688d      	ldr	r5, [r1, #8]
  tmpccer &= ~TIM_CCER_CC3P;
 800a1ee:	f423 7300 	bic.w	r3, r3, #512	@ 0x200
  tmpccer |= (OC_Config->OCPolarity << 8U);
 800a1f2:	ea43 2305 	orr.w	r3, r3, r5, lsl #8

  if (IS_TIM_CCXN_INSTANCE(TIMx, TIM_CHANNEL_3))
 800a1f6:	4d0b      	ldr	r5, [pc, #44]	@ (800a224 <TIM_OC3_SetConfig+0x50>)
 800a1f8:	42a8      	cmp	r0, r5
 800a1fa:	d10d      	bne.n	800a218 <TIM_OC3_SetConfig+0x44>
    assert_param(IS_TIM_OCN_POLARITY(OC_Config->OCNPolarity));

    /* Reset the Output N Polarity level */
    tmpccer &= ~TIM_CCER_CC3NP;
    /* Set the Output N Polarity */
    tmpccer |= (OC_Config->OCNPolarity << 8U);
 800a1fc:	68cd      	ldr	r5, [r1, #12]
    tmpccer &= ~TIM_CCER_CC3NP;
 800a1fe:	f423 6300 	bic.w	r3, r3, #2048	@ 0x800
    tmpccer |= (OC_Config->OCNPolarity << 8U);
 800a202:	ea43 2305 	orr.w	r3, r3, r5, lsl #8
    assert_param(IS_TIM_OCNIDLE_STATE(OC_Config->OCNIdleState));
    assert_param(IS_TIM_OCIDLE_STATE(OC_Config->OCIdleState));

    /* Reset the Output Compare and Output Compare N IDLE State */
    tmpcr2 &= ~TIM_CR2_OIS3;
    tmpcr2 &= ~TIM_CR2_OIS3N;
 800a206:	f424 5440 	bic.w	r4, r4, #12288	@ 0x3000
    /* Set the Output Idle state */
    tmpcr2 |= (OC_Config->OCIdleState << 4U);
    /* Set the Output N Idle state */
    tmpcr2 |= (OC_Config->OCNIdleState << 4U);
 800a20a:	e9d1 5605 	ldrd	r5, r6, [r1, #20]
 800a20e:	4335      	orrs	r5, r6
    tmpccer &= ~TIM_CCER_CC3NE;
 800a210:	f423 6380 	bic.w	r3, r3, #1024	@ 0x400
    tmpcr2 |= (OC_Config->OCNIdleState << 4U);
 800a214:	ea44 1405 	orr.w	r4, r4, r5, lsl #4
  }

  /* Write to TIMx CR2 */
  TIMx->CR2 = tmpcr2;
 800a218:	6044      	str	r4, [r0, #4]

  /* Write to TIMx CCMR2 */
  TIMx->CCMR2 = tmpccmrx;
 800a21a:	61c2      	str	r2, [r0, #28]

  /* Set the Capture Compare Register value */
  TIMx->CCR3 = OC_Config->Pulse;
 800a21c:	684a      	ldr	r2, [r1, #4]
 800a21e:	63c2      	str	r2, [r0, #60]	@ 0x3c

  /* Write to TIMx CCER */
  TIMx->CCER = tmpccer;
 800a220:	6203      	str	r3, [r0, #32]
}
 800a222:	bd70      	pop	{r4, r5, r6, pc}
 800a224:	40012c00 	.word	0x40012c00

0800a228 <TIM_OC4_SetConfig>:
  uint32_t tmpccmrx;
  uint32_t tmpccer;
  uint32_t tmpcr2;

  /* Get the TIMx CCER register value */
  tmpccer = TIMx->CCER;
 800a228:	6a03      	ldr	r3, [r0, #32]

  /* Disable the Channel 4: Reset the CC4E Bit */
  TIMx->CCER &= ~TIM_CCER_CC4E;
 800a22a:	6a02      	ldr	r2, [r0, #32]
{
 800a22c:	b530      	push	{r4, r5, lr}
  TIMx->CCER &= ~TIM_CCER_CC4E;
 800a22e:	f422 5280 	bic.w	r2, r2, #4096	@ 0x1000
 800a232:	6202      	str	r2, [r0, #32]

  /* Get the TIMx CR2 register value */
  tmpcr2 =  TIMx->CR2;
 800a234:	6844      	ldr	r4, [r0, #4]

  /* Get the TIMx CCMR2 register value */
  tmpccmrx = TIMx->CCMR2;
 800a236:	69c2      	ldr	r2, [r0, #28]
  /* Reset the Output Compare mode and Capture/Compare selection Bits */
  tmpccmrx &= ~TIM_CCMR2_OC4M;
  tmpccmrx &= ~TIM_CCMR2_CC4S;

  /* Select the Output Compare Mode */
  tmpccmrx |= (OC_Config->OCMode << 8U);
 800a238:	680d      	ldr	r5, [r1, #0]
  tmpccmrx &= ~TIM_CCMR2_CC4S;
 800a23a:	f422 42e6 	bic.w	r2, r2, #29440	@ 0x7300
  tmpccmrx |= (OC_Config->OCMode << 8U);
 800a23e:	ea42 2205 	orr.w	r2, r2, r5, lsl #8

  /* Reset the Output Polarity level */
  tmpccer &= ~TIM_CCER_CC4P;
  /* Set the Output Compare Polarity */
  tmpccer |= (OC_Config->OCPolarity << 12U);
 800a242:	688d      	ldr	r5, [r1, #8]
  tmpccer &= ~TIM_CCER_CC4P;
 800a244:	f423 5300 	bic.w	r3, r3, #8192	@ 0x2000
  tmpccer |= (OC_Config->OCPolarity << 12U);
 800a248:	ea43 3305 	orr.w	r3, r3, r5, lsl #12

  if (IS_TIM_BREAK_INSTANCE(TIMx))
 800a24c:	4d06      	ldr	r5, [pc, #24]	@ (800a268 <TIM_OC4_SetConfig+0x40>)
 800a24e:	42a8      	cmp	r0, r5

    /* Reset the Output Compare IDLE State */
    tmpcr2 &= ~TIM_CR2_OIS4;

    /* Set the Output Idle state */
    tmpcr2 |= (OC_Config->OCIdleState << 6U);
 800a250:	bf02      	ittt	eq
 800a252:	694d      	ldreq	r5, [r1, #20]
    tmpcr2 &= ~TIM_CR2_OIS4;
 800a254:	f424 4480 	biceq.w	r4, r4, #16384	@ 0x4000
    tmpcr2 |= (OC_Config->OCIdleState << 6U);
 800a258:	ea44 1485 	orreq.w	r4, r4, r5, lsl #6
  }

  /* Write to TIMx CR2 */
  TIMx->CR2 = tmpcr2;
 800a25c:	6044      	str	r4, [r0, #4]

  /* Write to TIMx CCMR2 */
  TIMx->CCMR2 = tmpccmrx;
 800a25e:	61c2      	str	r2, [r0, #28]

  /* Set the Capture Compare Register value */
  TIMx->CCR4 = OC_Config->Pulse;
 800a260:	684a      	ldr	r2, [r1, #4]
 800a262:	6402      	str	r2, [r0, #64]	@ 0x40

  /* Write to TIMx CCER */
  TIMx->CCER = tmpccer;
 800a264:	6203      	str	r3, [r0, #32]
}
 800a266:	bd30      	pop	{r4, r5, pc}
 800a268:	40012c00 	.word	0x40012c00

0800a26c <HAL_TIM_Base_Start_IT>:
  if (htim->State != HAL_TIM_STATE_READY)
 800a26c:	f890 303d 	ldrb.w	r3, [r0, #61]	@ 0x3d
 800a270:	2b01      	cmp	r3, #1
 800a272:	d120      	bne.n	800a2b6 <HAL_TIM_Base_Start_IT+0x4a>
  htim->State = HAL_TIM_STATE_BUSY;
 800a274:	2302      	movs	r3, #2
 800a276:	f880 303d 	strb.w	r3, [r0, #61]	@ 0x3d
  __HAL_TIM_ENABLE_IT(htim, TIM_IT_UPDATE);
 800a27a:	6803      	ldr	r3, [r0, #0]
 800a27c:	68da      	ldr	r2, [r3, #12]
 800a27e:	f042 0201 	orr.w	r2, r2, #1
 800a282:	60da      	str	r2, [r3, #12]
  if (IS_TIM_SLAVE_INSTANCE(htim->Instance))
 800a284:	4a0d      	ldr	r2, [pc, #52]	@ (800a2bc <HAL_TIM_Base_Start_IT+0x50>)
 800a286:	4293      	cmp	r3, r2
 800a288:	d00a      	beq.n	800a2a0 <HAL_TIM_Base_Start_IT+0x34>
 800a28a:	f1b3 4f80 	cmp.w	r3, #1073741824	@ 0x40000000
 800a28e:	d007      	beq.n	800a2a0 <HAL_TIM_Base_Start_IT+0x34>
 800a290:	f5a2 3294 	sub.w	r2, r2, #75776	@ 0x12800
 800a294:	4293      	cmp	r3, r2
 800a296:	d003      	beq.n	800a2a0 <HAL_TIM_Base_Start_IT+0x34>
 800a298:	f502 6280 	add.w	r2, r2, #1024	@ 0x400
 800a29c:	4293      	cmp	r3, r2
 800a29e:	d104      	bne.n	800a2aa <HAL_TIM_Base_Start_IT+0x3e>
    tmpsmcr = htim->Instance->SMCR & TIM_SMCR_SMS;
 800a2a0:	689a      	ldr	r2, [r3, #8]
 800a2a2:	f002 0207 	and.w	r2, r2, #7
    if (!IS_TIM_SLAVEMODE_TRIGGER_ENABLED(tmpsmcr))
 800a2a6:	2a06      	cmp	r2, #6
 800a2a8:	d003      	beq.n	800a2b2 <HAL_TIM_Base_Start_IT+0x46>
      __HAL_TIM_ENABLE(htim);
 800a2aa:	681a      	ldr	r2, [r3, #0]
 800a2ac:	f042 0201 	orr.w	r2, r2, #1
 800a2b0:	601a      	str	r2, [r3, #0]
  return HAL_OK;
 800a2b2:	2000      	movs	r0, #0
 800a2b4:	4770      	bx	lr
    return HAL_ERROR;
 800a2b6:	2001      	movs	r0, #1
}
 800a2b8:	4770      	bx	lr
 800a2ba:	bf00      	nop
 800a2bc:	40012c00 	.word	0x40012c00

0800a2c0 <HAL_TIM_PWM_MspInit>:
__weak void HAL_TIM_PWM_MspInit(TIM_HandleTypeDef *htim)
 800a2c0:	4770      	bx	lr

0800a2c2 <HAL_TIM_OC_DelayElapsedCallback>:
__weak void HAL_TIM_OC_DelayElapsedCallback(TIM_HandleTypeDef *htim)
 800a2c2:	4770      	bx	lr

0800a2c4 <HAL_TIM_IC_CaptureCallback>:
__weak void HAL_TIM_IC_CaptureCallback(TIM_HandleTypeDef *htim)
 800a2c4:	4770      	bx	lr

0800a2c6 <HAL_TIM_PWM_PulseFinishedCallback>:
__weak void HAL_TIM_PWM_PulseFinishedCallback(TIM_HandleTypeDef *htim)
 800a2c6:	4770      	bx	lr

0800a2c8 <HAL_TIM_TriggerCallback>:
__weak void HAL_TIM_TriggerCallback(TIM_HandleTypeDef *htim)
 800a2c8:	4770      	bx	lr

0800a2ca <HAL_TIM_IRQHandler>:
  uint32_t itsource = htim->Instance->DIER;
 800a2ca:	6803      	ldr	r3, [r0, #0]
{
 800a2cc:	b570      	push	{r4, r5, r6, lr}
  uint32_t itsource = htim->Instance->DIER;
 800a2ce:	68dd      	ldr	r5, [r3, #12]
  uint32_t itflag   = htim->Instance->SR;
 800a2d0:	691e      	ldr	r6, [r3, #16]
{
 800a2d2:	4604      	mov	r4, r0
  if ((itflag & (TIM_FLAG_CC1)) == (TIM_FLAG_CC1))
 800a2d4:	07b1      	lsls	r1, r6, #30
 800a2d6:	d50d      	bpl.n	800a2f4 <HAL_TIM_IRQHandler+0x2a>
    if ((itsource & (TIM_IT_CC1)) == (TIM_IT_CC1))
 800a2d8:	07aa      	lsls	r2, r5, #30
 800a2da:	d50b      	bpl.n	800a2f4 <HAL_TIM_IRQHandler+0x2a>
        __HAL_TIM_CLEAR_FLAG(htim, TIM_FLAG_CC1);
 800a2dc:	f06f 0202 	mvn.w	r2, #2
 800a2e0:	611a      	str	r2, [r3, #16]
        htim->Channel = HAL_TIM_ACTIVE_CHANNEL_1;
 800a2e2:	2201      	movs	r2, #1
 800a2e4:	7702      	strb	r2, [r0, #28]
        if ((htim->Instance->CCMR1 & TIM_CCMR1_CC1S) != 0x00U)
 800a2e6:	699b      	ldr	r3, [r3, #24]
 800a2e8:	079b      	lsls	r3, r3, #30
 800a2ea:	d069      	beq.n	800a3c0 <HAL_TIM_IRQHandler+0xf6>
          HAL_TIM_IC_CaptureCallback(htim);
 800a2ec:	f7ff ffea 	bl	800a2c4 <HAL_TIM_IC_CaptureCallback>
        htim->Channel = HAL_TIM_ACTIVE_CHANNEL_CLEARED;
 800a2f0:	2300      	movs	r3, #0
 800a2f2:	7723      	strb	r3, [r4, #28]
  if ((itflag & (TIM_FLAG_CC2)) == (TIM_FLAG_CC2))
 800a2f4:	0771      	lsls	r1, r6, #29
 800a2f6:	d510      	bpl.n	800a31a <HAL_TIM_IRQHandler+0x50>
    if ((itsource & (TIM_IT_CC2)) == (TIM_IT_CC2))
 800a2f8:	076a      	lsls	r2, r5, #29
 800a2fa:	d50e      	bpl.n	800a31a <HAL_TIM_IRQHandler+0x50>
      __HAL_TIM_CLEAR_FLAG(htim, TIM_FLAG_CC2);
 800a2fc:	f06f 0204 	mvn.w	r2, #4
 800a300:	6823      	ldr	r3, [r4, #0]
        HAL_TIM_IC_CaptureCallback(htim);
 800a302:	4620      	mov	r0, r4
      __HAL_TIM_CLEAR_FLAG(htim, TIM_FLAG_CC2);
 800a304:	611a      	str	r2, [r3, #16]
      htim->Channel = HAL_TIM_ACTIVE_CHANNEL_2;
 800a306:	2202      	movs	r2, #2
 800a308:	7722      	strb	r2, [r4, #28]
      if ((htim->Instance->CCMR1 & TIM_CCMR1_CC2S) != 0x00U)
 800a30a:	699b      	ldr	r3, [r3, #24]
 800a30c:	f413 7f40 	tst.w	r3, #768	@ 0x300
 800a310:	d05c      	beq.n	800a3cc <HAL_TIM_IRQHandler+0x102>
        HAL_TIM_IC_CaptureCallback(htim);
 800a312:	f7ff ffd7 	bl	800a2c4 <HAL_TIM_IC_CaptureCallback>
      htim->Channel = HAL_TIM_ACTIVE_CHANNEL_CLEARED;
 800a316:	2300      	movs	r3, #0
 800a318:	7723      	strb	r3, [r4, #28]
  if ((itflag & (TIM_FLAG_CC3)) == (TIM_FLAG_CC3))
 800a31a:	0733      	lsls	r3, r6, #28
 800a31c:	d50f      	bpl.n	800a33e <HAL_TIM_IRQHandler+0x74>
    if ((itsource & (TIM_IT_CC3)) == (TIM_IT_CC3))
 800a31e:	0728      	lsls	r0, r5, #28
 800a320:	d50d      	bpl.n	800a33e <HAL_TIM_IRQHandler+0x74>
      __HAL_TIM_CLEAR_FLAG(htim, TIM_FLAG_CC3);
 800a322:	f06f 0208 	mvn.w	r2, #8
 800a326:	6823      	ldr	r3, [r4, #0]
        HAL_TIM_IC_CaptureCallback(htim);
 800a328:	4620      	mov	r0, r4
      __HAL_TIM_CLEAR_FLAG(htim, TIM_FLAG_CC3);
 800a32a:	611a      	str	r2, [r3, #16]
      htim->Channel = HAL_TIM_ACTIVE_CHANNEL_3;
 800a32c:	2204      	movs	r2, #4
 800a32e:	7722      	strb	r2, [r4, #28]
      if ((htim->Instance->CCMR2 & TIM_CCMR2_CC3S) != 0x00U)
 800a330:	69db      	ldr	r3, [r3, #28]
 800a332:	0799      	lsls	r1, r3, #30
 800a334:	d050      	beq.n	800a3d8 <HAL_TIM_IRQHandler+0x10e>
        HAL_TIM_IC_CaptureCallback(htim);
 800a336:	f7ff ffc5 	bl	800a2c4 <HAL_TIM_IC_CaptureCallback>
      htim->Channel = HAL_TIM_ACTIVE_CHANNEL_CLEARED;
 800a33a:	2300      	movs	r3, #0
 800a33c:	7723      	strb	r3, [r4, #28]
  if ((itflag & (TIM_FLAG_CC4)) == (TIM_FLAG_CC4))
 800a33e:	06f2      	lsls	r2, r6, #27
 800a340:	d510      	bpl.n	800a364 <HAL_TIM_IRQHandler+0x9a>
    if ((itsource & (TIM_IT_CC4)) == (TIM_IT_CC4))
 800a342:	06eb      	lsls	r3, r5, #27
 800a344:	d50e      	bpl.n	800a364 <HAL_TIM_IRQHandler+0x9a>
      __HAL_TIM_CLEAR_FLAG(htim, TIM_FLAG_CC4);
 800a346:	f06f 0210 	mvn.w	r2, #16
 800a34a:	6823      	ldr	r3, [r4, #0]
        HAL_TIM_IC_CaptureCallback(htim);
 800a34c:	4620      	mov	r0, r4
      __HAL_TIM_CLEAR_FLAG(htim, TIM_FLAG_CC4);
 800a34e:	611a      	str	r2, [r3, #16]
      htim->Channel = HAL_TIM_ACTIVE_CHANNEL_4;
 800a350:	2208      	movs	r2, #8
 800a352:	7722      	strb	r2, [r4, #28]
      if ((htim->Instance->CCMR2 & TIM_CCMR2_CC4S) != 0x00U)
 800a354:	69db      	ldr	r3, [r3, #28]
 800a356:	f413 7f40 	tst.w	r3, #768	@ 0x300
 800a35a:	d043      	beq.n	800a3e4 <HAL_TIM_IRQHandler+0x11a>
        HAL_TIM_IC_CaptureCallback(htim);
 800a35c:	f7ff ffb2 	bl	800a2c4 <HAL_TIM_IC_CaptureCallback>
      htim->Channel = HAL_TIM_ACTIVE_CHANNEL_CLEARED;
 800a360:	2300      	movs	r3, #0
 800a362:	7723      	strb	r3, [r4, #28]
  if ((itflag & (TIM_FLAG_UPDATE)) == (TIM_FLAG_UPDATE))
 800a364:	07f0      	lsls	r0, r6, #31
 800a366:	d508      	bpl.n	800a37a <HAL_TIM_IRQHandler+0xb0>
    if ((itsource & (TIM_IT_UPDATE)) == (TIM_IT_UPDATE))
 800a368:	07e9      	lsls	r1, r5, #31
 800a36a:	d506      	bpl.n	800a37a <HAL_TIM_IRQHandler+0xb0>
      __HAL_TIM_CLEAR_FLAG(htim, TIM_FLAG_UPDATE);
 800a36c:	f06f 0201 	mvn.w	r2, #1
 800a370:	6823      	ldr	r3, [r4, #0]
      HAL_TIM_PeriodElapsedCallback(htim);
 800a372:	4620      	mov	r0, r4
      __HAL_TIM_CLEAR_FLAG(htim, TIM_FLAG_UPDATE);
 800a374:	611a      	str	r2, [r3, #16]
      HAL_TIM_PeriodElapsedCallback(htim);
 800a376:	f7fc fcbd 	bl	8006cf4 <HAL_TIM_PeriodElapsedCallback>
  if ((itflag & (TIM_FLAG_BREAK)) == (TIM_FLAG_BREAK))
 800a37a:	0632      	lsls	r2, r6, #24
 800a37c:	d508      	bpl.n	800a390 <HAL_TIM_IRQHandler+0xc6>
    if ((itsource & (TIM_IT_BREAK)) == (TIM_IT_BREAK))
 800a37e:	062b      	lsls	r3, r5, #24
 800a380:	d506      	bpl.n	800a390 <HAL_TIM_IRQHandler+0xc6>
      __HAL_TIM_CLEAR_FLAG(htim, TIM_FLAG_BREAK);
 800a382:	f06f 0280 	mvn.w	r2, #128	@ 0x80
 800a386:	6823      	ldr	r3, [r4, #0]
      HAL_TIMEx_BreakCallback(htim);
 800a388:	4620      	mov	r0, r4
      __HAL_TIM_CLEAR_FLAG(htim, TIM_FLAG_BREAK);
 800a38a:	611a      	str	r2, [r3, #16]
      HAL_TIMEx_BreakCallback(htim);
 800a38c:	f000 fa71 	bl	800a872 <HAL_TIMEx_BreakCallback>
  if ((itflag & (TIM_FLAG_TRIGGER)) == (TIM_FLAG_TRIGGER))
 800a390:	0670      	lsls	r0, r6, #25
 800a392:	d508      	bpl.n	800a3a6 <HAL_TIM_IRQHandler+0xdc>
    if ((itsource & (TIM_IT_TRIGGER)) == (TIM_IT_TRIGGER))
 800a394:	0669      	lsls	r1, r5, #25
 800a396:	d506      	bpl.n	800a3a6 <HAL_TIM_IRQHandler+0xdc>
      __HAL_TIM_CLEAR_FLAG(htim, TIM_FLAG_TRIGGER);
 800a398:	f06f 0240 	mvn.w	r2, #64	@ 0x40
 800a39c:	6823      	ldr	r3, [r4, #0]
      HAL_TIM_TriggerCallback(htim);
 800a39e:	4620      	mov	r0, r4
      __HAL_TIM_CLEAR_FLAG(htim, TIM_FLAG_TRIGGER);
 800a3a0:	611a      	str	r2, [r3, #16]
      HAL_TIM_TriggerCallback(htim);
 800a3a2:	f7ff ff91 	bl	800a2c8 <HAL_TIM_TriggerCallback>
  if ((itflag & (TIM_FLAG_COM)) == (TIM_FLAG_COM))
 800a3a6:	06b2      	lsls	r2, r6, #26
 800a3a8:	d522      	bpl.n	800a3f0 <HAL_TIM_IRQHandler+0x126>
    if ((itsource & (TIM_IT_COM)) == (TIM_IT_COM))
 800a3aa:	06ab      	lsls	r3, r5, #26
 800a3ac:	d520      	bpl.n	800a3f0 <HAL_TIM_IRQHandler+0x126>
      __HAL_TIM_CLEAR_FLAG(htim, TIM_FLAG_COM);
 800a3ae:	f06f 0220 	mvn.w	r2, #32
 800a3b2:	6823      	ldr	r3, [r4, #0]
      HAL_TIMEx_CommutCallback(htim);
 800a3b4:	4620      	mov	r0, r4
}
 800a3b6:	e8bd 4070 	ldmia.w	sp!, {r4, r5, r6, lr}
      __HAL_TIM_CLEAR_FLAG(htim, TIM_FLAG_COM);
 800a3ba:	611a      	str	r2, [r3, #16]
      HAL_TIMEx_CommutCallback(htim);
 800a3bc:	f000 ba58 	b.w	800a870 <HAL_TIMEx_CommutCallback>
          HAL_TIM_OC_DelayElapsedCallback(htim);
 800a3c0:	f7ff ff7f 	bl	800a2c2 <HAL_TIM_OC_DelayElapsedCallback>
          HAL_TIM_PWM_PulseFinishedCallback(htim);
 800a3c4:	4620      	mov	r0, r4
 800a3c6:	f7ff ff7e 	bl	800a2c6 <HAL_TIM_PWM_PulseFinishedCallback>
 800a3ca:	e791      	b.n	800a2f0 <HAL_TIM_IRQHandler+0x26>
        HAL_TIM_OC_DelayElapsedCallback(htim);
 800a3cc:	f7ff ff79 	bl	800a2c2 <HAL_TIM_OC_DelayElapsedCallback>
        HAL_TIM_PWM_PulseFinishedCallback(htim);
 800a3d0:	4620      	mov	r0, r4
 800a3d2:	f7ff ff78 	bl	800a2c6 <HAL_TIM_PWM_PulseFinishedCallback>
 800a3d6:	e79e      	b.n	800a316 <HAL_TIM_IRQHandler+0x4c>
        HAL_TIM_OC_DelayElapsedCallback(htim);
 800a3d8:	f7ff ff73 	bl	800a2c2 <HAL_TIM_OC_DelayElapsedCallback>
        HAL_TIM_PWM_PulseFinishedCallback(htim);
 800a3dc:	4620      	mov	r0, r4
 800a3de:	f7ff ff72 	bl	800a2c6 <HAL_TIM_PWM_PulseFinishedCallback>
 800a3e2:	e7aa      	b.n	800a33a <HAL_TIM_IRQHandler+0x70>
        HAL_TIM_OC_DelayElapsedCallback(htim);
 800a3e4:	f7ff ff6d 	bl	800a2c2 <HAL_TIM_OC_DelayElapsedCallback>
        HAL_TIM_PWM_PulseFinishedCallback(htim);
 800a3e8:	4620      	mov	r0, r4
 800a3ea:	f7ff ff6c 	bl	800a2c6 <HAL_TIM_PWM_PulseFinishedCallback>
 800a3ee:	e7b7      	b.n	800a360 <HAL_TIM_IRQHandler+0x96>
}
 800a3f0:	bd70      	pop	{r4, r5, r6, pc}
	...

0800a3f4 <TIM_Base_SetConfig>:
  if (IS_TIM_COUNTER_MODE_SELECT_INSTANCE(TIMx))
 800a3f4:	4a17      	ldr	r2, [pc, #92]	@ (800a454 <TIM_Base_SetConfig+0x60>)
  tmpcr1 = TIMx->CR1;
 800a3f6:	6803      	ldr	r3, [r0, #0]
  if (IS_TIM_COUNTER_MODE_SELECT_INSTANCE(TIMx))
 800a3f8:	4290      	cmp	r0, r2
 800a3fa:	d00a      	beq.n	800a412 <TIM_Base_SetConfig+0x1e>
 800a3fc:	f1b0 4f80 	cmp.w	r0, #1073741824	@ 0x40000000
 800a400:	d007      	beq.n	800a412 <TIM_Base_SetConfig+0x1e>
 800a402:	f5a2 3294 	sub.w	r2, r2, #75776	@ 0x12800
 800a406:	4290      	cmp	r0, r2
 800a408:	d003      	beq.n	800a412 <TIM_Base_SetConfig+0x1e>
 800a40a:	f502 6280 	add.w	r2, r2, #1024	@ 0x400
 800a40e:	4290      	cmp	r0, r2
 800a410:	d107      	bne.n	800a422 <TIM_Base_SetConfig+0x2e>
    tmpcr1 |= Structure->CounterMode;
 800a412:	684a      	ldr	r2, [r1, #4]
    tmpcr1 &= ~(TIM_CR1_DIR | TIM_CR1_CMS);
 800a414:	f023 0370 	bic.w	r3, r3, #112	@ 0x70
    tmpcr1 |= Structure->CounterMode;
 800a418:	4313      	orrs	r3, r2
    tmpcr1 |= (uint32_t)Structure->ClockDivision;
 800a41a:	68ca      	ldr	r2, [r1, #12]
    tmpcr1 &= ~TIM_CR1_CKD;
 800a41c:	f423 7340 	bic.w	r3, r3, #768	@ 0x300
    tmpcr1 |= (uint32_t)Structure->ClockDivision;
 800a420:	4313      	orrs	r3, r2
  MODIFY_REG(tmpcr1, TIM_CR1_ARPE, Structure->AutoReloadPreload);
 800a422:	694a      	ldr	r2, [r1, #20]
 800a424:	f023 0380 	bic.w	r3, r3, #128	@ 0x80
 800a428:	4313      	orrs	r3, r2
  TIMx->CR1 = tmpcr1;
 800a42a:	6003      	str	r3, [r0, #0]
  TIMx->ARR = (uint32_t)Structure->Period ;
 800a42c:	688b      	ldr	r3, [r1, #8]
 800a42e:	62c3      	str	r3, [r0, #44]	@ 0x2c
  TIMx->PSC = Structure->Prescaler;
 800a430:	680b      	ldr	r3, [r1, #0]
 800a432:	6283      	str	r3, [r0, #40]	@ 0x28
  if (IS_TIM_REPETITION_COUNTER_INSTANCE(TIMx))
 800a434:	4b07      	ldr	r3, [pc, #28]	@ (800a454 <TIM_Base_SetConfig+0x60>)
 800a436:	4298      	cmp	r0, r3
    TIMx->RCR = Structure->RepetitionCounter;
 800a438:	bf04      	itt	eq
 800a43a:	690b      	ldreq	r3, [r1, #16]
 800a43c:	6303      	streq	r3, [r0, #48]	@ 0x30
  TIMx->EGR = TIM_EGR_UG;
 800a43e:	2301      	movs	r3, #1
 800a440:	6143      	str	r3, [r0, #20]
  if (HAL_IS_BIT_SET(TIMx->SR, TIM_FLAG_UPDATE))
 800a442:	6903      	ldr	r3, [r0, #16]
 800a444:	07db      	lsls	r3, r3, #31
    CLEAR_BIT(TIMx->SR, TIM_FLAG_UPDATE);
 800a446:	bf42      	ittt	mi
 800a448:	6903      	ldrmi	r3, [r0, #16]
 800a44a:	f023 0301 	bicmi.w	r3, r3, #1
 800a44e:	6103      	strmi	r3, [r0, #16]
}
 800a450:	4770      	bx	lr
 800a452:	bf00      	nop
 800a454:	40012c00 	.word	0x40012c00

0800a458 <HAL_TIM_Base_Init>:
{
 800a458:	b510      	push	{r4, lr}
  if (htim == NULL)
 800a45a:	4604      	mov	r4, r0
 800a45c:	b330      	cbz	r0, 800a4ac <HAL_TIM_Base_Init+0x54>
  if (htim->State == HAL_TIM_STATE_RESET)
 800a45e:	f890 303d 	ldrb.w	r3, [r0, #61]	@ 0x3d
 800a462:	f003 02ff 	and.w	r2, r3, #255	@ 0xff
 800a466:	b91b      	cbnz	r3, 800a470 <HAL_TIM_Base_Init+0x18>
    htim->Lock = HAL_UNLOCKED;
 800a468:	f880 203c 	strb.w	r2, [r0, #60]	@ 0x3c
    HAL_TIM_Base_MspInit(htim);
 800a46c:	f7fd ff6e 	bl	800834c <HAL_TIM_Base_MspInit>
  htim->State = HAL_TIM_STATE_BUSY;
 800a470:	2302      	movs	r3, #2
  TIM_Base_SetConfig(htim->Instance, &htim->Init);
 800a472:	6820      	ldr	r0, [r4, #0]
  htim->State = HAL_TIM_STATE_BUSY;
 800a474:	f884 303d 	strb.w	r3, [r4, #61]	@ 0x3d
  TIM_Base_SetConfig(htim->Instance, &htim->Init);
 800a478:	1d21      	adds	r1, r4, #4
 800a47a:	f7ff ffbb 	bl	800a3f4 <TIM_Base_SetConfig>
  htim->DMABurstState = HAL_DMA_BURST_STATE_READY;
 800a47e:	2301      	movs	r3, #1
  return HAL_OK;
 800a480:	2000      	movs	r0, #0
  htim->DMABurstState = HAL_DMA_BURST_STATE_READY;
 800a482:	f884 3046 	strb.w	r3, [r4, #70]	@ 0x46
  TIM_CHANNEL_STATE_SET_ALL(htim, HAL_TIM_CHANNEL_STATE_READY);
 800a486:	f884 303e 	strb.w	r3, [r4, #62]	@ 0x3e
 800a48a:	f884 303f 	strb.w	r3, [r4, #63]	@ 0x3f
 800a48e:	f884 3040 	strb.w	r3, [r4, #64]	@ 0x40
 800a492:	f884 3041 	strb.w	r3, [r4, #65]	@ 0x41
  TIM_CHANNEL_N_STATE_SET_ALL(htim, HAL_TIM_CHANNEL_STATE_READY);
 800a496:	f884 3042 	strb.w	r3, [r4, #66]	@ 0x42
 800a49a:	f884 3043 	strb.w	r3, [r4, #67]	@ 0x43
 800a49e:	f884 3044 	strb.w	r3, [r4, #68]	@ 0x44
 800a4a2:	f884 3045 	strb.w	r3, [r4, #69]	@ 0x45
  htim->State = HAL_TIM_STATE_READY;
 800a4a6:	f884 303d 	strb.w	r3, [r4, #61]	@ 0x3d
}
 800a4aa:	bd10      	pop	{r4, pc}
    return HAL_ERROR;
 800a4ac:	2001      	movs	r0, #1
 800a4ae:	e7fc      	b.n	800a4aa <HAL_TIM_Base_Init+0x52>

0800a4b0 <HAL_TIM_PWM_Init>:
{
 800a4b0:	b510      	push	{r4, lr}
  if (htim == NULL)
 800a4b2:	4604      	mov	r4, r0
 800a4b4:	b330      	cbz	r0, 800a504 <HAL_TIM_PWM_Init+0x54>
  if (htim->State == HAL_TIM_STATE_RESET)
 800a4b6:	f890 303d 	ldrb.w	r3, [r0, #61]	@ 0x3d
 800a4ba:	f003 02ff 	and.w	r2, r3, #255	@ 0xff
 800a4be:	b91b      	cbnz	r3, 800a4c8 <HAL_TIM_PWM_Init+0x18>
    htim->Lock = HAL_UNLOCKED;
 800a4c0:	f880 203c 	strb.w	r2, [r0, #60]	@ 0x3c
    HAL_TIM_PWM_MspInit(htim);
 800a4c4:	f7ff fefc 	bl	800a2c0 <HAL_TIM_PWM_MspInit>
  htim->State = HAL_TIM_STATE_BUSY;
 800a4c8:	2302      	movs	r3, #2
  TIM_Base_SetConfig(htim->Instance, &htim->Init);
 800a4ca:	6820      	ldr	r0, [r4, #0]
  htim->State = HAL_TIM_STATE_BUSY;
 800a4cc:	f884 303d 	strb.w	r3, [r4, #61]	@ 0x3d
  TIM_Base_SetConfig(htim->Instance, &htim->Init);
 800a4d0:	1d21      	adds	r1, r4, #4
 800a4d2:	f7ff ff8f 	bl	800a3f4 <TIM_Base_SetConfig>
  htim->DMABurstState = HAL_DMA_BURST_STATE_READY;
 800a4d6:	2301      	movs	r3, #1
  return HAL_OK;
 800a4d8:	2000      	movs	r0, #0
  htim->DMABurstState = HAL_DMA_BURST_STATE_READY;
 800a4da:	f884 3046 	strb.w	r3, [r4, #70]	@ 0x46
  TIM_CHANNEL_STATE_SET_ALL(htim, HAL_TIM_CHANNEL_STATE_READY);
 800a4de:	f884 303e 	strb.w	r3, [r4, #62]	@ 0x3e
 800a4e2:	f884 303f 	strb.w	r3, [r4, #63]	@ 0x3f
 800a4e6:	f884 3040 	strb.w	r3, [r4, #64]	@ 0x40
 800a4ea:	f884 3041 	strb.w	r3, [r4, #65]	@ 0x41
  TIM_CHANNEL_N_STATE_SET_ALL(htim, HAL_TIM_CHANNEL_STATE_READY);
 800a4ee:	f884 3042 	strb.w	r3, [r4, #66]	@ 0x42
 800a4f2:	f884 3043 	strb.w	r3, [r4, #67]	@ 0x43
 800a4f6:	f884 3044 	strb.w	r3, [r4, #68]	@ 0x44
 800a4fa:	f884 3045 	strb.w	r3, [r4, #69]	@ 0x45
  htim->State = HAL_TIM_STATE_READY;
 800a4fe:	f884 303d 	strb.w	r3, [r4, #61]	@ 0x3d
}
 800a502:	bd10      	pop	{r4, pc}
    return HAL_ERROR;
 800a504:	2001      	movs	r0, #1
 800a506:	e7fc      	b.n	800a502 <HAL_TIM_PWM_Init+0x52>

0800a508 <TIM_OC2_SetConfig>:
  tmpccer = TIMx->CCER;
 800a508:	6a03      	ldr	r3, [r0, #32]
  TIMx->CCER &= ~TIM_CCER_CC2E;
 800a50a:	6a02      	ldr	r2, [r0, #32]
{
 800a50c:	b570      	push	{r4, r5, r6, lr}
  TIMx->CCER &= ~TIM_CCER_CC2E;
 800a50e:	f022 0210 	bic.w	r2, r2, #16
 800a512:	6202      	str	r2, [r0, #32]
  tmpcr2 =  TIMx->CR2;
 800a514:	6844      	ldr	r4, [r0, #4]
  tmpccmrx = TIMx->CCMR1;
 800a516:	6982      	ldr	r2, [r0, #24]
  tmpccmrx |= (OC_Config->OCMode << 8U);
 800a518:	680d      	ldr	r5, [r1, #0]
  tmpccmrx &= ~TIM_CCMR1_CC2S;
 800a51a:	f422 42e6 	bic.w	r2, r2, #29440	@ 0x7300
  tmpccmrx |= (OC_Config->OCMode << 8U);
 800a51e:	ea42 2205 	orr.w	r2, r2, r5, lsl #8
  tmpccer |= (OC_Config->OCPolarity << 4U);
 800a522:	688d      	ldr	r5, [r1, #8]
  tmpccer &= ~TIM_CCER_CC2P;
 800a524:	f023 0320 	bic.w	r3, r3, #32
  tmpccer |= (OC_Config->OCPolarity << 4U);
 800a528:	ea43 1305 	orr.w	r3, r3, r5, lsl #4
  if (IS_TIM_CCXN_INSTANCE(TIMx, TIM_CHANNEL_2))
 800a52c:	4d0b      	ldr	r5, [pc, #44]	@ (800a55c <TIM_OC2_SetConfig+0x54>)
 800a52e:	42a8      	cmp	r0, r5
 800a530:	d10d      	bne.n	800a54e <TIM_OC2_SetConfig+0x46>
    tmpccer |= (OC_Config->OCNPolarity << 4U);
 800a532:	68cd      	ldr	r5, [r1, #12]
    tmpccer &= ~TIM_CCER_CC2NP;
 800a534:	f023 0380 	bic.w	r3, r3, #128	@ 0x80
    tmpccer |= (OC_Config->OCNPolarity << 4U);
 800a538:	ea43 1305 	orr.w	r3, r3, r5, lsl #4
    tmpcr2 &= ~TIM_CR2_OIS2N;
 800a53c:	f424 6440 	bic.w	r4, r4, #3072	@ 0xc00
    tmpcr2 |= (OC_Config->OCNIdleState << 2U);
 800a540:	e9d1 5605 	ldrd	r5, r6, [r1, #20]
 800a544:	4335      	orrs	r5, r6
    tmpccer &= ~TIM_CCER_CC2NE;
 800a546:	f023 0340 	bic.w	r3, r3, #64	@ 0x40
    tmpcr2 |= (OC_Config->OCNIdleState << 2U);
 800a54a:	ea44 0485 	orr.w	r4, r4, r5, lsl #2
  TIMx->CR2 = tmpcr2;
 800a54e:	6044      	str	r4, [r0, #4]
  TIMx->CCMR1 = tmpccmrx;
 800a550:	6182      	str	r2, [r0, #24]
  TIMx->CCR2 = OC_Config->Pulse;
 800a552:	684a      	ldr	r2, [r1, #4]
 800a554:	6382      	str	r2, [r0, #56]	@ 0x38
  TIMx->CCER = tmpccer;
 800a556:	6203      	str	r3, [r0, #32]
}
 800a558:	bd70      	pop	{r4, r5, r6, pc}
 800a55a:	bf00      	nop
 800a55c:	40012c00 	.word	0x40012c00

0800a560 <HAL_TIM_PWM_ConfigChannel>:
{
 800a560:	b538      	push	{r3, r4, r5, lr}
  __HAL_LOCK(htim);
 800a562:	f890 303c 	ldrb.w	r3, [r0, #60]	@ 0x3c
{
 800a566:	4604      	mov	r4, r0
  __HAL_LOCK(htim);
 800a568:	2b01      	cmp	r3, #1
 800a56a:	d04f      	beq.n	800a60c <HAL_TIM_PWM_ConfigChannel+0xac>
 800a56c:	2001      	movs	r0, #1
  switch (Channel)
 800a56e:	2a08      	cmp	r2, #8
  __HAL_LOCK(htim);
 800a570:	f884 003c 	strb.w	r0, [r4, #60]	@ 0x3c
  switch (Channel)
 800a574:	d03a      	beq.n	800a5ec <HAL_TIM_PWM_ConfigChannel+0x8c>
 800a576:	d806      	bhi.n	800a586 <HAL_TIM_PWM_ConfigChannel+0x26>
 800a578:	b1ba      	cbz	r2, 800a5aa <HAL_TIM_PWM_ConfigChannel+0x4a>
 800a57a:	2a04      	cmp	r2, #4
 800a57c:	d026      	beq.n	800a5cc <HAL_TIM_PWM_ConfigChannel+0x6c>
  __HAL_UNLOCK(htim);
 800a57e:	2300      	movs	r3, #0
 800a580:	f884 303c 	strb.w	r3, [r4, #60]	@ 0x3c
}
 800a584:	bd38      	pop	{r3, r4, r5, pc}
  switch (Channel)
 800a586:	2a0c      	cmp	r2, #12
 800a588:	d1f9      	bne.n	800a57e <HAL_TIM_PWM_ConfigChannel+0x1e>
      TIM_OC4_SetConfig(htim->Instance, sConfig);
 800a58a:	6820      	ldr	r0, [r4, #0]
 800a58c:	f7ff fe4c 	bl	800a228 <TIM_OC4_SetConfig>
      htim->Instance->CCMR2 |= TIM_CCMR2_OC4PE;
 800a590:	69c3      	ldr	r3, [r0, #28]
      htim->Instance->CCMR2 |= sConfig->OCFastMode << 8U;
 800a592:	690a      	ldr	r2, [r1, #16]
      htim->Instance->CCMR2 |= TIM_CCMR2_OC4PE;
 800a594:	f443 6300 	orr.w	r3, r3, #2048	@ 0x800
 800a598:	61c3      	str	r3, [r0, #28]
      htim->Instance->CCMR2 &= ~TIM_CCMR2_OC4FE;
 800a59a:	69c3      	ldr	r3, [r0, #28]
 800a59c:	f423 6380 	bic.w	r3, r3, #1024	@ 0x400
 800a5a0:	61c3      	str	r3, [r0, #28]
      htim->Instance->CCMR2 |= sConfig->OCFastMode << 8U;
 800a5a2:	69c3      	ldr	r3, [r0, #28]
 800a5a4:	ea43 2302 	orr.w	r3, r3, r2, lsl #8
 800a5a8:	e02e      	b.n	800a608 <HAL_TIM_PWM_ConfigChannel+0xa8>
      TIM_OC1_SetConfig(htim->Instance, sConfig);
 800a5aa:	6820      	ldr	r0, [r4, #0]
 800a5ac:	f7ff fdea 	bl	800a184 <TIM_OC1_SetConfig>
      htim->Instance->CCMR1 |= TIM_CCMR1_OC1PE;
 800a5b0:	6983      	ldr	r3, [r0, #24]
      htim->Instance->CCMR1 |= sConfig->OCFastMode;
 800a5b2:	690a      	ldr	r2, [r1, #16]
      htim->Instance->CCMR1 |= TIM_CCMR1_OC1PE;
 800a5b4:	f043 0308 	orr.w	r3, r3, #8
 800a5b8:	6183      	str	r3, [r0, #24]
      htim->Instance->CCMR1 &= ~TIM_CCMR1_OC1FE;
 800a5ba:	6983      	ldr	r3, [r0, #24]
 800a5bc:	f023 0304 	bic.w	r3, r3, #4
 800a5c0:	6183      	str	r3, [r0, #24]
      htim->Instance->CCMR1 |= sConfig->OCFastMode;
 800a5c2:	6983      	ldr	r3, [r0, #24]
 800a5c4:	4313      	orrs	r3, r2
      htim->Instance->CCMR1 |= sConfig->OCFastMode << 8U;
 800a5c6:	6183      	str	r3, [r0, #24]
  HAL_StatusTypeDef status = HAL_OK;
 800a5c8:	2000      	movs	r0, #0
 800a5ca:	e7d8      	b.n	800a57e <HAL_TIM_PWM_ConfigChannel+0x1e>
      TIM_OC2_SetConfig(htim->Instance, sConfig);
 800a5cc:	6820      	ldr	r0, [r4, #0]
 800a5ce:	f7ff ff9b 	bl	800a508 <TIM_OC2_SetConfig>
      htim->Instance->CCMR1 |= TIM_CCMR1_OC2PE;
 800a5d2:	6983      	ldr	r3, [r0, #24]
      htim->Instance->CCMR1 |= sConfig->OCFastMode << 8U;
 800a5d4:	690a      	ldr	r2, [r1, #16]
      htim->Instance->CCMR1 |= TIM_CCMR1_OC2PE;
 800a5d6:	f443 6300 	orr.w	r3, r3, #2048	@ 0x800
 800a5da:	6183      	str	r3, [r0, #24]
      htim->Instance->CCMR1 &= ~TIM_CCMR1_OC2FE;
 800a5dc:	6983      	ldr	r3, [r0, #24]
 800a5de:	f423 6380 	bic.w	r3, r3, #1024	@ 0x400
 800a5e2:	6183      	str	r3, [r0, #24]
      htim->Instance->CCMR1 |= sConfig->OCFastMode << 8U;
 800a5e4:	6983      	ldr	r3, [r0, #24]
 800a5e6:	ea43 2302 	orr.w	r3, r3, r2, lsl #8
 800a5ea:	e7ec      	b.n	800a5c6 <HAL_TIM_PWM_ConfigChannel+0x66>
      TIM_OC3_SetConfig(htim->Instance, sConfig);
 800a5ec:	6820      	ldr	r0, [r4, #0]
 800a5ee:	f7ff fdf1 	bl	800a1d4 <TIM_OC3_SetConfig>
      htim->Instance->CCMR2 |= TIM_CCMR2_OC3PE;
 800a5f2:	69c3      	ldr	r3, [r0, #28]
      htim->Instance->CCMR2 |= sConfig->OCFastMode;
 800a5f4:	690a      	ldr	r2, [r1, #16]
      htim->Instance->CCMR2 |= TIM_CCMR2_OC3PE;
 800a5f6:	f043 0308 	orr.w	r3, r3, #8
 800a5fa:	61c3      	str	r3, [r0, #28]
      htim->Instance->CCMR2 &= ~TIM_CCMR2_OC3FE;
 800a5fc:	69c3      	ldr	r3, [r0, #28]
 800a5fe:	f023 0304 	bic.w	r3, r3, #4
 800a602:	61c3      	str	r3, [r0, #28]
      htim->Instance->CCMR2 |= sConfig->OCFastMode;
 800a604:	69c3      	ldr	r3, [r0, #28]
 800a606:	4313      	orrs	r3, r2
      htim->Instance->CCMR2 |= sConfig->OCFastMode << 8U;
 800a608:	61c3      	str	r3, [r0, #28]
      break;
 800a60a:	e7dd      	b.n	800a5c8 <HAL_TIM_PWM_ConfigChannel+0x68>
  __HAL_LOCK(htim);
 800a60c:	2002      	movs	r0, #2
 800a60e:	e7b9      	b.n	800a584 <HAL_TIM_PWM_ConfigChannel+0x24>

0800a610 <TIM_ETR_SetConfig>:
  *          This parameter must be a value between 0x00 and 0x0F
  * @retval None
  */
void TIM_ETR_SetConfig(TIM_TypeDef *TIMx, uint32_t TIM_ExtTRGPrescaler,
                       uint32_t TIM_ExtTRGPolarity, uint32_t ExtTRGFilter)
{
 800a610:	b510      	push	{r4, lr}
  uint32_t tmpsmcr;

  tmpsmcr = TIMx->SMCR;
 800a612:	6884      	ldr	r4, [r0, #8]

  /* Reset the ETR Bits */
  tmpsmcr &= ~(TIM_SMCR_ETF | TIM_SMCR_ETPS | TIM_SMCR_ECE | TIM_SMCR_ETP);

  /* Set the Prescaler, the Filter value and the Polarity */
  tmpsmcr |= (uint32_t)(TIM_ExtTRGPrescaler | (TIM_ExtTRGPolarity | (ExtTRGFilter << 8U)));
 800a614:	430a      	orrs	r2, r1
  tmpsmcr &= ~(TIM_SMCR_ETF | TIM_SMCR_ETPS | TIM_SMCR_ECE | TIM_SMCR_ETP);
 800a616:	f424 447f 	bic.w	r4, r4, #65280	@ 0xff00
  tmpsmcr |= (uint32_t)(TIM_ExtTRGPrescaler | (TIM_ExtTRGPolarity | (ExtTRGFilter << 8U)));
 800a61a:	ea42 2203 	orr.w	r2, r2, r3, lsl #8
 800a61e:	4322      	orrs	r2, r4

  /* Write to TIMx SMCR */
  TIMx->SMCR = tmpsmcr;
 800a620:	6082      	str	r2, [r0, #8]
}
 800a622:	bd10      	pop	{r4, pc}

0800a624 <HAL_TIM_ConfigClockSource>:
{
 800a624:	b538      	push	{r3, r4, r5, lr}
  __HAL_LOCK(htim);
 800a626:	f890 303c 	ldrb.w	r3, [r0, #60]	@ 0x3c
{
 800a62a:	4604      	mov	r4, r0
  __HAL_LOCK(htim);
 800a62c:	2b01      	cmp	r3, #1
 800a62e:	f04f 0002 	mov.w	r0, #2
 800a632:	f000 808e 	beq.w	800a752 <HAL_TIM_ConfigClockSource+0x12e>
 800a636:	2201      	movs	r2, #1
  htim->State = HAL_TIM_STATE_BUSY;
 800a638:	f884 003d 	strb.w	r0, [r4, #61]	@ 0x3d
  tmpsmcr = htim->Instance->SMCR;
 800a63c:	6820      	ldr	r0, [r4, #0]
  __HAL_LOCK(htim);
 800a63e:	f884 203c 	strb.w	r2, [r4, #60]	@ 0x3c
  tmpsmcr = htim->Instance->SMCR;
 800a642:	6883      	ldr	r3, [r0, #8]
  tmpsmcr &= ~(TIM_SMCR_ETF | TIM_SMCR_ETPS | TIM_SMCR_ECE | TIM_SMCR_ETP);
 800a644:	f423 437f 	bic.w	r3, r3, #65280	@ 0xff00
 800a648:	f023 0377 	bic.w	r3, r3, #119	@ 0x77
  htim->Instance->SMCR = tmpsmcr;
 800a64c:	6083      	str	r3, [r0, #8]
  switch (sClockSourceConfig->ClockSource)
 800a64e:	680b      	ldr	r3, [r1, #0]
 800a650:	2b60      	cmp	r3, #96	@ 0x60
 800a652:	d04f      	beq.n	800a6f4 <HAL_TIM_ConfigClockSource+0xd0>
 800a654:	d832      	bhi.n	800a6bc <HAL_TIM_ConfigClockSource+0x98>
 800a656:	2b40      	cmp	r3, #64	@ 0x40
 800a658:	d064      	beq.n	800a724 <HAL_TIM_ConfigClockSource+0x100>
 800a65a:	d816      	bhi.n	800a68a <HAL_TIM_ConfigClockSource+0x66>
 800a65c:	2b20      	cmp	r3, #32
 800a65e:	d00d      	beq.n	800a67c <HAL_TIM_ConfigClockSource+0x58>
 800a660:	d80a      	bhi.n	800a678 <HAL_TIM_ConfigClockSource+0x54>
 800a662:	f033 0110 	bics.w	r1, r3, #16
 800a666:	d009      	beq.n	800a67c <HAL_TIM_ConfigClockSource+0x58>
  htim->State = HAL_TIM_STATE_READY;
 800a668:	2301      	movs	r3, #1
 800a66a:	f884 303d 	strb.w	r3, [r4, #61]	@ 0x3d
  __HAL_UNLOCK(htim);
 800a66e:	2300      	movs	r3, #0
 800a670:	f884 303c 	strb.w	r3, [r4, #60]	@ 0x3c
}
 800a674:	4610      	mov	r0, r2
 800a676:	bd38      	pop	{r3, r4, r5, pc}
  switch (sClockSourceConfig->ClockSource)
 800a678:	2b30      	cmp	r3, #48	@ 0x30
 800a67a:	d1f5      	bne.n	800a668 <HAL_TIM_ConfigClockSource+0x44>
  tmpsmcr = TIMx->SMCR;
 800a67c:	6882      	ldr	r2, [r0, #8]
  tmpsmcr &= ~TIM_SMCR_TS;
 800a67e:	f022 0270 	bic.w	r2, r2, #112	@ 0x70
  tmpsmcr |= (InputTriggerSource | TIM_SLAVEMODE_EXTERNAL1);
 800a682:	4313      	orrs	r3, r2
 800a684:	f043 0307 	orr.w	r3, r3, #7
  TIMx->SMCR = tmpsmcr;
 800a688:	e028      	b.n	800a6dc <HAL_TIM_ConfigClockSource+0xb8>
  switch (sClockSourceConfig->ClockSource)
 800a68a:	2b50      	cmp	r3, #80	@ 0x50
 800a68c:	d1ec      	bne.n	800a668 <HAL_TIM_ConfigClockSource+0x44>
                               sClockSourceConfig->ClockPolarity,
 800a68e:	684a      	ldr	r2, [r1, #4]
                               sClockSourceConfig->ClockFilter);
 800a690:	68cd      	ldr	r5, [r1, #12]
  tmpccer = TIMx->CCER;
 800a692:	6a01      	ldr	r1, [r0, #32]
  TIMx->CCER &= ~TIM_CCER_CC1E;
 800a694:	6a03      	ldr	r3, [r0, #32]
  tmpccer &= ~(TIM_CCER_CC1P | TIM_CCER_CC1NP);
 800a696:	f021 010a 	bic.w	r1, r1, #10
  TIMx->CCER &= ~TIM_CCER_CC1E;
 800a69a:	f023 0301 	bic.w	r3, r3, #1
 800a69e:	6203      	str	r3, [r0, #32]
  tmpccmr1 = TIMx->CCMR1;
 800a6a0:	6983      	ldr	r3, [r0, #24]
  tmpccer |= TIM_ICPolarity;
 800a6a2:	430a      	orrs	r2, r1
  tmpccmr1 &= ~TIM_CCMR1_IC1F;
 800a6a4:	f023 03f0 	bic.w	r3, r3, #240	@ 0xf0
  tmpccmr1 |= (TIM_ICFilter << 4U);
 800a6a8:	ea43 1305 	orr.w	r3, r3, r5, lsl #4
  TIMx->CCMR1 = tmpccmr1;
 800a6ac:	6183      	str	r3, [r0, #24]
  TIMx->CCER = tmpccer;
 800a6ae:	6202      	str	r2, [r0, #32]
  tmpsmcr = TIMx->SMCR;
 800a6b0:	6883      	ldr	r3, [r0, #8]
  tmpsmcr &= ~TIM_SMCR_TS;
 800a6b2:	f023 0370 	bic.w	r3, r3, #112	@ 0x70
  tmpsmcr |= (InputTriggerSource | TIM_SLAVEMODE_EXTERNAL1);
 800a6b6:	f043 0357 	orr.w	r3, r3, #87	@ 0x57
  TIMx->SMCR = tmpsmcr;
 800a6ba:	e00f      	b.n	800a6dc <HAL_TIM_ConfigClockSource+0xb8>
  switch (sClockSourceConfig->ClockSource)
 800a6bc:	f5b3 5f80 	cmp.w	r3, #4096	@ 0x1000
 800a6c0:	d00d      	beq.n	800a6de <HAL_TIM_ConfigClockSource+0xba>
 800a6c2:	f5b3 5f00 	cmp.w	r3, #8192	@ 0x2000
 800a6c6:	d00c      	beq.n	800a6e2 <HAL_TIM_ConfigClockSource+0xbe>
 800a6c8:	2b70      	cmp	r3, #112	@ 0x70
 800a6ca:	d1cd      	bne.n	800a668 <HAL_TIM_ConfigClockSource+0x44>
      TIM_ETR_SetConfig(htim->Instance,
 800a6cc:	68cb      	ldr	r3, [r1, #12]
 800a6ce:	e9d1 2101 	ldrd	r2, r1, [r1, #4]
 800a6d2:	f7ff ff9d 	bl	800a610 <TIM_ETR_SetConfig>
      tmpsmcr = htim->Instance->SMCR;
 800a6d6:	6883      	ldr	r3, [r0, #8]
      tmpsmcr |= (TIM_SLAVEMODE_EXTERNAL1 | TIM_CLOCKSOURCE_ETRMODE1);
 800a6d8:	f043 0377 	orr.w	r3, r3, #119	@ 0x77
      htim->Instance->SMCR = tmpsmcr;
 800a6dc:	6083      	str	r3, [r0, #8]
  HAL_StatusTypeDef status = HAL_OK;
 800a6de:	2200      	movs	r2, #0
 800a6e0:	e7c2      	b.n	800a668 <HAL_TIM_ConfigClockSource+0x44>
      TIM_ETR_SetConfig(htim->Instance,
 800a6e2:	68cb      	ldr	r3, [r1, #12]
 800a6e4:	e9d1 2101 	ldrd	r2, r1, [r1, #4]
 800a6e8:	f7ff ff92 	bl	800a610 <TIM_ETR_SetConfig>
      htim->Instance->SMCR |= TIM_SMCR_ECE;
 800a6ec:	6883      	ldr	r3, [r0, #8]
 800a6ee:	f443 4380 	orr.w	r3, r3, #16384	@ 0x4000
 800a6f2:	e7f3      	b.n	800a6dc <HAL_TIM_ConfigClockSource+0xb8>
  tmpccer = TIMx->CCER;
 800a6f4:	6a03      	ldr	r3, [r0, #32]
  TIMx->CCER &= ~TIM_CCER_CC2E;
 800a6f6:	6a02      	ldr	r2, [r0, #32]
                               sClockSourceConfig->ClockPolarity,
 800a6f8:	684d      	ldr	r5, [r1, #4]
  TIMx->CCER &= ~TIM_CCER_CC2E;
 800a6fa:	f022 0210 	bic.w	r2, r2, #16
                               sClockSourceConfig->ClockFilter);
 800a6fe:	68c9      	ldr	r1, [r1, #12]
  TIMx->CCER &= ~TIM_CCER_CC2E;
 800a700:	6202      	str	r2, [r0, #32]
  tmpccmr1 = TIMx->CCMR1;
 800a702:	6982      	ldr	r2, [r0, #24]
  tmpccer &= ~(TIM_CCER_CC2P | TIM_CCER_CC2NP);
 800a704:	f023 03a0 	bic.w	r3, r3, #160	@ 0xa0
  tmpccmr1 &= ~TIM_CCMR1_IC2F;
 800a708:	f422 4270 	bic.w	r2, r2, #61440	@ 0xf000
  tmpccer |= (TIM_ICPolarity << 4U);
 800a70c:	ea43 1305 	orr.w	r3, r3, r5, lsl #4
  tmpccmr1 |= (TIM_ICFilter << 12U);
 800a710:	ea42 3201 	orr.w	r2, r2, r1, lsl #12
  TIMx->CCMR1 = tmpccmr1 ;
 800a714:	6182      	str	r2, [r0, #24]
  TIMx->CCER = tmpccer;
 800a716:	6203      	str	r3, [r0, #32]
  tmpsmcr = TIMx->SMCR;
 800a718:	6883      	ldr	r3, [r0, #8]
  tmpsmcr &= ~TIM_SMCR_TS;
 800a71a:	f023 0370 	bic.w	r3, r3, #112	@ 0x70
  tmpsmcr |= (InputTriggerSource | TIM_SLAVEMODE_EXTERNAL1);
 800a71e:	f043 0367 	orr.w	r3, r3, #103	@ 0x67
  TIMx->SMCR = tmpsmcr;
 800a722:	e7db      	b.n	800a6dc <HAL_TIM_ConfigClockSource+0xb8>
                               sClockSourceConfig->ClockPolarity,
 800a724:	684a      	ldr	r2, [r1, #4]
                               sClockSourceConfig->ClockFilter);
 800a726:	68cd      	ldr	r5, [r1, #12]
  tmpccer = TIMx->CCER;
 800a728:	6a01      	ldr	r1, [r0, #32]
  TIMx->CCER &= ~TIM_CCER_CC1E;
 800a72a:	6a03      	ldr	r3, [r0, #32]
  tmpccer &= ~(TIM_CCER_CC1P | TIM_CCER_CC1NP);
 800a72c:	f021 010a 	bic.w	r1, r1, #10
  TIMx->CCER &= ~TIM_CCER_CC1E;
 800a730:	f023 0301 	bic.w	r3, r3, #1
 800a734:	6203      	str	r3, [r0, #32]
  tmpccmr1 = TIMx->CCMR1;
 800a736:	6983      	ldr	r3, [r0, #24]
  tmpccer |= TIM_ICPolarity;
 800a738:	430a      	orrs	r2, r1
  tmpccmr1 &= ~TIM_CCMR1_IC1F;
 800a73a:	f023 03f0 	bic.w	r3, r3, #240	@ 0xf0
  tmpccmr1 |= (TIM_ICFilter << 4U);
 800a73e:	ea43 1305 	orr.w	r3, r3, r5, lsl #4
  TIMx->CCMR1 = tmpccmr1;
 800a742:	6183      	str	r3, [r0, #24]
  TIMx->CCER = tmpccer;
 800a744:	6202      	str	r2, [r0, #32]
  tmpsmcr = TIMx->SMCR;
 800a746:	6883      	ldr	r3, [r0, #8]
  tmpsmcr &= ~TIM_SMCR_TS;
 800a748:	f023 0370 	bic.w	r3, r3, #112	@ 0x70
  tmpsmcr |= (InputTriggerSource | TIM_SLAVEMODE_EXTERNAL1);
 800a74c:	f043 0347 	orr.w	r3, r3, #71	@ 0x47
  TIMx->SMCR = tmpsmcr;
 800a750:	e7c4      	b.n	800a6dc <HAL_TIM_ConfigClockSource+0xb8>
  __HAL_LOCK(htim);
 800a752:	4602      	mov	r2, r0
 800a754:	e78e      	b.n	800a674 <HAL_TIM_ConfigClockSource+0x50>

0800a756 <TIM_CCxChannelCmd>:
  * @param  ChannelState specifies the TIM Channel CCxE bit new state.
  *          This parameter can be: TIM_CCx_ENABLE or TIM_CCx_DISABLE.
  * @retval None
  */
void TIM_CCxChannelCmd(TIM_TypeDef *TIMx, uint32_t Channel, uint32_t ChannelState)
{
 800a756:	b510      	push	{r4, lr}

  /* Check the parameters */
  assert_param(IS_TIM_CC1_INSTANCE(TIMx));
  assert_param(IS_TIM_CHANNELS(Channel));

  tmp = TIM_CCER_CC1E << (Channel & 0x1FU); /* 0x1FU = 31 bits max shift */
 800a758:	2401      	movs	r4, #1

  /* Reset the CCxE Bit */
  TIMx->CCER &= ~tmp;
 800a75a:	6a03      	ldr	r3, [r0, #32]
  tmp = TIM_CCER_CC1E << (Channel & 0x1FU); /* 0x1FU = 31 bits max shift */
 800a75c:	f001 011f 	and.w	r1, r1, #31
 800a760:	408c      	lsls	r4, r1
  TIMx->CCER &= ~tmp;
 800a762:	ea23 0304 	bic.w	r3, r3, r4
 800a766:	6203      	str	r3, [r0, #32]

  /* Set or reset the CCxE Bit */
  TIMx->CCER |= (uint32_t)(ChannelState << (Channel & 0x1FU)); /* 0x1FU = 31 bits max shift */
 800a768:	6a03      	ldr	r3, [r0, #32]
 800a76a:	408a      	lsls	r2, r1
 800a76c:	431a      	orrs	r2, r3
 800a76e:	6202      	str	r2, [r0, #32]
}
 800a770:	bd10      	pop	{r4, pc}
	...

0800a774 <HAL_TIM_OC_Start>:
{
 800a774:	b508      	push	{r3, lr}
  if (TIM_CHANNEL_STATE_GET(htim, Channel) != HAL_TIM_CHANNEL_STATE_READY)
 800a776:	b929      	cbnz	r1, 800a784 <HAL_TIM_OC_Start+0x10>
 800a778:	f890 303e 	ldrb.w	r3, [r0, #62]	@ 0x3e
 800a77c:	2b01      	cmp	r3, #1
 800a77e:	d01d      	beq.n	800a7bc <HAL_TIM_OC_Start+0x48>
    return HAL_ERROR;
 800a780:	2001      	movs	r0, #1
 800a782:	e02e      	b.n	800a7e2 <HAL_TIM_OC_Start+0x6e>
  if (TIM_CHANNEL_STATE_GET(htim, Channel) != HAL_TIM_CHANNEL_STATE_READY)
 800a784:	2904      	cmp	r1, #4
 800a786:	d107      	bne.n	800a798 <HAL_TIM_OC_Start+0x24>
 800a788:	f890 303f 	ldrb.w	r3, [r0, #63]	@ 0x3f
 800a78c:	2b01      	cmp	r3, #1
 800a78e:	d1f7      	bne.n	800a780 <HAL_TIM_OC_Start+0xc>
  TIM_CHANNEL_STATE_SET(htim, Channel, HAL_TIM_CHANNEL_STATE_BUSY);
 800a790:	2302      	movs	r3, #2
 800a792:	f880 303f 	strb.w	r3, [r0, #63]	@ 0x3f
 800a796:	e014      	b.n	800a7c2 <HAL_TIM_OC_Start+0x4e>
  if (TIM_CHANNEL_STATE_GET(htim, Channel) != HAL_TIM_CHANNEL_STATE_READY)
 800a798:	2908      	cmp	r1, #8
 800a79a:	d107      	bne.n	800a7ac <HAL_TIM_OC_Start+0x38>
 800a79c:	f890 3040 	ldrb.w	r3, [r0, #64]	@ 0x40
 800a7a0:	2b01      	cmp	r3, #1
 800a7a2:	d1ed      	bne.n	800a780 <HAL_TIM_OC_Start+0xc>
  TIM_CHANNEL_STATE_SET(htim, Channel, HAL_TIM_CHANNEL_STATE_BUSY);
 800a7a4:	2302      	movs	r3, #2
 800a7a6:	f880 3040 	strb.w	r3, [r0, #64]	@ 0x40
 800a7aa:	e00a      	b.n	800a7c2 <HAL_TIM_OC_Start+0x4e>
  if (TIM_CHANNEL_STATE_GET(htim, Channel) != HAL_TIM_CHANNEL_STATE_READY)
 800a7ac:	f890 3041 	ldrb.w	r3, [r0, #65]	@ 0x41
 800a7b0:	2b01      	cmp	r3, #1
 800a7b2:	d1e5      	bne.n	800a780 <HAL_TIM_OC_Start+0xc>
  TIM_CHANNEL_STATE_SET(htim, Channel, HAL_TIM_CHANNEL_STATE_BUSY);
 800a7b4:	2302      	movs	r3, #2
 800a7b6:	f880 3041 	strb.w	r3, [r0, #65]	@ 0x41
 800a7ba:	e002      	b.n	800a7c2 <HAL_TIM_OC_Start+0x4e>
 800a7bc:	2302      	movs	r3, #2
 800a7be:	f880 303e 	strb.w	r3, [r0, #62]	@ 0x3e
  TIM_CCxChannelCmd(htim->Instance, Channel, TIM_CCx_ENABLE);
 800a7c2:	6800      	ldr	r0, [r0, #0]
 800a7c4:	2201      	movs	r2, #1
 800a7c6:	f7ff ffc6 	bl	800a756 <TIM_CCxChannelCmd>
  if (IS_TIM_BREAK_INSTANCE(htim->Instance) != RESET)
 800a7ca:	4b0f      	ldr	r3, [pc, #60]	@ (800a808 <HAL_TIM_OC_Start+0x94>)
 800a7cc:	4298      	cmp	r0, r3
 800a7ce:	d009      	beq.n	800a7e4 <HAL_TIM_OC_Start+0x70>
  if (IS_TIM_SLAVE_INSTANCE(htim->Instance))
 800a7d0:	f1b0 4f80 	cmp.w	r0, #1073741824	@ 0x40000000
 800a7d4:	d10b      	bne.n	800a7ee <HAL_TIM_OC_Start+0x7a>
    tmpsmcr = htim->Instance->SMCR & TIM_SMCR_SMS;
 800a7d6:	6883      	ldr	r3, [r0, #8]
 800a7d8:	f003 0307 	and.w	r3, r3, #7
    if (!IS_TIM_SLAVEMODE_TRIGGER_ENABLED(tmpsmcr))
 800a7dc:	2b06      	cmp	r3, #6
 800a7de:	d10d      	bne.n	800a7fc <HAL_TIM_OC_Start+0x88>
  return HAL_OK;
 800a7e0:	2000      	movs	r0, #0
}
 800a7e2:	bd08      	pop	{r3, pc}
    __HAL_TIM_MOE_ENABLE(htim);
 800a7e4:	6c43      	ldr	r3, [r0, #68]	@ 0x44
 800a7e6:	f443 4300 	orr.w	r3, r3, #32768	@ 0x8000
 800a7ea:	6443      	str	r3, [r0, #68]	@ 0x44
  if (IS_TIM_SLAVE_INSTANCE(htim->Instance))
 800a7ec:	e7f3      	b.n	800a7d6 <HAL_TIM_OC_Start+0x62>
 800a7ee:	4b07      	ldr	r3, [pc, #28]	@ (800a80c <HAL_TIM_OC_Start+0x98>)
 800a7f0:	4298      	cmp	r0, r3
 800a7f2:	d0f0      	beq.n	800a7d6 <HAL_TIM_OC_Start+0x62>
 800a7f4:	f503 6380 	add.w	r3, r3, #1024	@ 0x400
 800a7f8:	4298      	cmp	r0, r3
 800a7fa:	d0ec      	beq.n	800a7d6 <HAL_TIM_OC_Start+0x62>
      __HAL_TIM_ENABLE(htim);
 800a7fc:	6803      	ldr	r3, [r0, #0]
 800a7fe:	f043 0301 	orr.w	r3, r3, #1
 800a802:	6003      	str	r3, [r0, #0]
 800a804:	e7ec      	b.n	800a7e0 <HAL_TIM_OC_Start+0x6c>
 800a806:	bf00      	nop
 800a808:	40012c00 	.word	0x40012c00
 800a80c:	40000400 	.word	0x40000400

0800a810 <HAL_TIM_PWM_Start>:
HAL_StatusTypeDef HAL_TIM_PWM_Start(TIM_HandleTypeDef *htim, uint32_t Channel)
 800a810:	f7ff bfb0 	b.w	800a774 <HAL_TIM_OC_Start>

0800a814 <HAL_TIMEx_MasterConfigSynchronization>:
  *         mode.
  * @retval HAL status
  */
HAL_StatusTypeDef HAL_TIMEx_MasterConfigSynchronization(TIM_HandleTypeDef *htim,
                                                        const TIM_MasterConfigTypeDef *sMasterConfig)
{
 800a814:	b530      	push	{r4, r5, lr}
  assert_param(IS_TIM_MASTER_INSTANCE(htim->Instance));
  assert_param(IS_TIM_TRGO_SOURCE(sMasterConfig->MasterOutputTrigger));
  assert_param(IS_TIM_MSM_STATE(sMasterConfig->MasterSlaveMode));

  /* Check input state */
  __HAL_LOCK(htim);
 800a816:	f890 303c 	ldrb.w	r3, [r0, #60]	@ 0x3c
{
 800a81a:	4602      	mov	r2, r0
  __HAL_LOCK(htim);
 800a81c:	2b01      	cmp	r3, #1
 800a81e:	f04f 0002 	mov.w	r0, #2
 800a822:	d022      	beq.n	800a86a <HAL_TIMEx_MasterConfigSynchronization+0x56>

  /* Change the handler state */
  htim->State = HAL_TIM_STATE_BUSY;

  /* Get the TIMx CR2 register value */
  tmpcr2 = htim->Instance->CR2;
 800a824:	6813      	ldr	r3, [r2, #0]
  htim->State = HAL_TIM_STATE_BUSY;
 800a826:	f882 003d 	strb.w	r0, [r2, #61]	@ 0x3d
  tmpcr2 = htim->Instance->CR2;
 800a82a:	685c      	ldr	r4, [r3, #4]
  tmpsmcr = htim->Instance->SMCR;

  /* Reset the MMS Bits */
  tmpcr2 &= ~TIM_CR2_MMS;
  /* Select the TRGO source */
  tmpcr2 |=  sMasterConfig->MasterOutputTrigger;
 800a82c:	680d      	ldr	r5, [r1, #0]
  tmpcr2 &= ~TIM_CR2_MMS;
 800a82e:	f024 0470 	bic.w	r4, r4, #112	@ 0x70
  tmpcr2 |=  sMasterConfig->MasterOutputTrigger;
 800a832:	432c      	orrs	r4, r5
  tmpsmcr = htim->Instance->SMCR;
 800a834:	6898      	ldr	r0, [r3, #8]

  /* Update TIMx CR2 */
  htim->Instance->CR2 = tmpcr2;
 800a836:	605c      	str	r4, [r3, #4]

  if (IS_TIM_SLAVE_INSTANCE(htim->Instance))
 800a838:	4c0c      	ldr	r4, [pc, #48]	@ (800a86c <HAL_TIMEx_MasterConfigSynchronization+0x58>)
 800a83a:	42a3      	cmp	r3, r4
 800a83c:	d00a      	beq.n	800a854 <HAL_TIMEx_MasterConfigSynchronization+0x40>
 800a83e:	f1b3 4f80 	cmp.w	r3, #1073741824	@ 0x40000000
 800a842:	d007      	beq.n	800a854 <HAL_TIMEx_MasterConfigSynchronization+0x40>
 800a844:	f5a4 3494 	sub.w	r4, r4, #75776	@ 0x12800
 800a848:	42a3      	cmp	r3, r4
 800a84a:	d003      	beq.n	800a854 <HAL_TIMEx_MasterConfigSynchronization+0x40>
 800a84c:	f504 6480 	add.w	r4, r4, #1024	@ 0x400
 800a850:	42a3      	cmp	r3, r4
 800a852:	d104      	bne.n	800a85e <HAL_TIMEx_MasterConfigSynchronization+0x4a>
  {
    /* Reset the MSM Bit */
    tmpsmcr &= ~TIM_SMCR_MSM;
    /* Set master mode */
    tmpsmcr |= sMasterConfig->MasterSlaveMode;
 800a854:	6849      	ldr	r1, [r1, #4]
    tmpsmcr &= ~TIM_SMCR_MSM;
 800a856:	f020 0080 	bic.w	r0, r0, #128	@ 0x80
    tmpsmcr |= sMasterConfig->MasterSlaveMode;
 800a85a:	4301      	orrs	r1, r0

    /* Update TIMx SMCR */
    htim->Instance->SMCR = tmpsmcr;
 800a85c:	6099      	str	r1, [r3, #8]
  }

  /* Change the htim state */
  htim->State = HAL_TIM_STATE_READY;
 800a85e:	2301      	movs	r3, #1

  __HAL_UNLOCK(htim);
 800a860:	2000      	movs	r0, #0
  htim->State = HAL_TIM_STATE_READY;
 800a862:	f882 303d 	strb.w	r3, [r2, #61]	@ 0x3d
  __HAL_UNLOCK(htim);
 800a866:	f882 003c 	strb.w	r0, [r2, #60]	@ 0x3c

  return HAL_OK;
}
 800a86a:	bd30      	pop	{r4, r5, pc}
 800a86c:	40012c00 	.word	0x40012c00

0800a870 <HAL_TIMEx_CommutCallback>:
/**
  * @brief  Commutation callback in non-blocking mode
  * @param  htim TIM handle
  * @retval None
  */
__weak void HAL_TIMEx_CommutCallback(TIM_HandleTypeDef *htim)
 800a870:	4770      	bx	lr

0800a872 <HAL_TIMEx_BreakCallback>:
/**
  * @brief  Break detection callback in non-blocking mode
  * @param  htim TIM handle
  * @retval None
  */
__weak void HAL_TIMEx_BreakCallback(TIM_HandleTypeDef *htim)
 800a872:	4770      	bx	lr

0800a874 <UART_EndRxTransfer>:
  * @retval None
  */
static void UART_EndRxTransfer(UART_HandleTypeDef *huart)
{
  /* Disable RXNE, PE and ERR (Frame error, noise error, overrun error) interrupts */
  ATOMIC_CLEAR_BIT(huart->Instance->CR1, (USART_CR1_RXNEIE | USART_CR1_PEIE));
 800a874:	6802      	ldr	r2, [r0, #0]
 */
__STATIC_FORCEINLINE uint32_t __LDREXW(volatile uint32_t *addr)
{
    uint32_t result;

   __ASM volatile ("ldrex %0, %1" : "=r" (result) : "Q" (*addr) );
 800a876:	f102 030c 	add.w	r3, r2, #12
 800a87a:	e853 3f00 	ldrex	r3, [r3]
 800a87e:	f423 7390 	bic.w	r3, r3, #288	@ 0x120
 */
__STATIC_FORCEINLINE uint32_t __STREXW(uint32_t value, volatile uint32_t *addr)
{
   uint32_t result;

   __ASM volatile ("strex %0, %2, %1" : "=&r" (result), "=Q" (*addr) : "r" (value) );
 800a882:	320c      	adds	r2, #12
 800a884:	e842 3100 	strex	r1, r3, [r2]
   return(result);
 800a888:	6802      	ldr	r2, [r0, #0]
 800a88a:	2900      	cmp	r1, #0
 800a88c:	d1f2      	bne.n	800a874 <UART_EndRxTransfer>
   __ASM volatile ("ldrex %0, %1" : "=r" (result) : "Q" (*addr) );
 800a88e:	f102 0314 	add.w	r3, r2, #20
 800a892:	e853 3f00 	ldrex	r3, [r3]
  ATOMIC_CLEAR_BIT(huart->Instance->CR3, USART_CR3_EIE);
 800a896:	f023 0301 	bic.w	r3, r3, #1
   __ASM volatile ("strex %0, %2, %1" : "=&r" (result), "=Q" (*addr) : "r" (value) );
 800a89a:	f102 0c14 	add.w	ip, r2, #20
 800a89e:	e84c 3100 	strex	r1, r3, [ip]
 800a8a2:	2900      	cmp	r1, #0
 800a8a4:	d1f3      	bne.n	800a88e <UART_EndRxTransfer+0x1a>

  /* In case of reception waiting for IDLE event, disable also the IDLE IE interrupt source */
  if (huart->ReceptionType == HAL_UART_RECEPTION_TOIDLE)
 800a8a6:	6b03      	ldr	r3, [r0, #48]	@ 0x30
 800a8a8:	2b01      	cmp	r3, #1
 800a8aa:	d10b      	bne.n	800a8c4 <UART_EndRxTransfer+0x50>
   __ASM volatile ("ldrex %0, %1" : "=r" (result) : "Q" (*addr) );
 800a8ac:	f102 030c 	add.w	r3, r2, #12
 800a8b0:	e853 3f00 	ldrex	r3, [r3]
  {
    ATOMIC_CLEAR_BIT(huart->Instance->CR1, USART_CR1_IDLEIE);
 800a8b4:	f023 0310 	bic.w	r3, r3, #16
   __ASM volatile ("strex %0, %2, %1" : "=&r" (result), "=Q" (*addr) : "r" (value) );
 800a8b8:	f102 0c0c 	add.w	ip, r2, #12
 800a8bc:	e84c 3100 	strex	r1, r3, [ip]
 800a8c0:	2900      	cmp	r1, #0
 800a8c2:	d1f3      	bne.n	800a8ac <UART_EndRxTransfer+0x38>
  }

  /* At end of Rx process, restore huart->RxState to Ready */
  huart->RxState = HAL_UART_STATE_READY;
 800a8c4:	2320      	movs	r3, #32
 800a8c6:	f880 3042 	strb.w	r3, [r0, #66]	@ 0x42
  huart->ReceptionType = HAL_UART_RECEPTION_STANDARD;
 800a8ca:	2300      	movs	r3, #0
 800a8cc:	6303      	str	r3, [r0, #48]	@ 0x30
}
 800a8ce:	4770      	bx	lr

0800a8d0 <UART_SetConfig>:
  * @param  huart  Pointer to a UART_HandleTypeDef structure that contains
  *                the configuration information for the specified UART module.
  * @retval None
  */
static void UART_SetConfig(UART_HandleTypeDef *huart)
{
 800a8d0:	b510      	push	{r4, lr}
 800a8d2:	4604      	mov	r4, r0
  assert_param(IS_UART_MODE(huart->Init.Mode));

  /*-------------------------- USART CR2 Configuration -----------------------*/
  /* Configure the UART Stop Bits: Set STOP[13:12] bits
     according to huart->Init.StopBits value */
  MODIFY_REG(huart->Instance->CR2, USART_CR2_STOP, huart->Init.StopBits);
 800a8d4:	6803      	ldr	r3, [r0, #0]
 800a8d6:	68c1      	ldr	r1, [r0, #12]
 800a8d8:	691a      	ldr	r2, [r3, #16]
 800a8da:	f422 5240 	bic.w	r2, r2, #12288	@ 0x3000
 800a8de:	430a      	orrs	r2, r1
 800a8e0:	611a      	str	r2, [r3, #16]
  tmpreg = (uint32_t)huart->Init.WordLength | huart->Init.Parity | huart->Init.Mode | huart->Init.OverSampling;
  MODIFY_REG(huart->Instance->CR1,
             (uint32_t)(USART_CR1_M | USART_CR1_PCE | USART_CR1_PS | USART_CR1_TE | USART_CR1_RE | USART_CR1_OVER8),
             tmpreg);
#else
  tmpreg = (uint32_t)huart->Init.WordLength | huart->Init.Parity | huart->Init.Mode;
 800a8e2:	6882      	ldr	r2, [r0, #8]
 800a8e4:	6900      	ldr	r0, [r0, #16]
  MODIFY_REG(huart->Instance->CR1,
 800a8e6:	68d9      	ldr	r1, [r3, #12]
  tmpreg = (uint32_t)huart->Init.WordLength | huart->Init.Parity | huart->Init.Mode;
 800a8e8:	4302      	orrs	r2, r0
 800a8ea:	6960      	ldr	r0, [r4, #20]
  MODIFY_REG(huart->Instance->CR1,
 800a8ec:	f421 51b0 	bic.w	r1, r1, #5632	@ 0x1600
 800a8f0:	f021 010c 	bic.w	r1, r1, #12
  tmpreg = (uint32_t)huart->Init.WordLength | huart->Init.Parity | huart->Init.Mode;
 800a8f4:	4302      	orrs	r2, r0
  MODIFY_REG(huart->Instance->CR1,
 800a8f6:	430a      	orrs	r2, r1
 800a8f8:	60da      	str	r2, [r3, #12]
             tmpreg);
#endif /* USART_CR1_OVER8 */

  /*-------------------------- USART CR3 Configuration -----------------------*/
  /* Configure the UART HFC: Set CTSE and RTSE bits according to huart->Init.HwFlowCtl value */
  MODIFY_REG(huart->Instance->CR3, (USART_CR3_RTSE | USART_CR3_CTSE), huart->Init.HwFlowCtl);
 800a8fa:	695a      	ldr	r2, [r3, #20]
 800a8fc:	69a1      	ldr	r1, [r4, #24]
 800a8fe:	f422 7240 	bic.w	r2, r2, #768	@ 0x300
 800a902:	430a      	orrs	r2, r1
 800a904:	615a      	str	r2, [r3, #20]


  if(huart->Instance == USART1)
 800a906:	4a0e      	ldr	r2, [pc, #56]	@ (800a940 <UART_SetConfig+0x70>)
 800a908:	4293      	cmp	r3, r2
 800a90a:	d115      	bne.n	800a938 <UART_SetConfig+0x68>
  {
    pclk = HAL_RCC_GetPCLK2Freq();
 800a90c:	f7ff f9a0 	bl	8009c50 <HAL_RCC_GetPCLK2Freq>
  else
  {
    huart->Instance->BRR = UART_BRR_SAMPLING16(pclk, huart->Init.BaudRate);
  }
#else
  huart->Instance->BRR = UART_BRR_SAMPLING16(pclk, huart->Init.BaudRate);
 800a910:	2319      	movs	r3, #25
 800a912:	4343      	muls	r3, r0
 800a914:	6862      	ldr	r2, [r4, #4]
 800a916:	6820      	ldr	r0, [r4, #0]
 800a918:	0092      	lsls	r2, r2, #2
 800a91a:	fbb3 f3f2 	udiv	r3, r3, r2
 800a91e:	2264      	movs	r2, #100	@ 0x64
 800a920:	fbb3 f1f2 	udiv	r1, r3, r2
 800a924:	fb02 3311 	mls	r3, r2, r1, r3
 800a928:	011b      	lsls	r3, r3, #4
 800a92a:	3332      	adds	r3, #50	@ 0x32
 800a92c:	fbb3 f3f2 	udiv	r3, r3, r2
 800a930:	eb03 1301 	add.w	r3, r3, r1, lsl #4
 800a934:	6083      	str	r3, [r0, #8]
#endif /* USART_CR1_OVER8 */
}
 800a936:	bd10      	pop	{r4, pc}
    pclk = HAL_RCC_GetPCLK1Freq();
 800a938:	f7ff f97a 	bl	8009c30 <HAL_RCC_GetPCLK1Freq>
 800a93c:	e7e8      	b.n	800a910 <UART_SetConfig+0x40>
 800a93e:	bf00      	nop
 800a940:	40013800 	.word	0x40013800

0800a944 <HAL_UART_Init>:
{
 800a944:	b510      	push	{r4, lr}
  if (huart == NULL)
 800a946:	4604      	mov	r4, r0
 800a948:	b348      	cbz	r0, 800a99e <HAL_UART_Init+0x5a>
  if (huart->gState == HAL_UART_STATE_RESET)
 800a94a:	f890 3041 	ldrb.w	r3, [r0, #65]	@ 0x41
 800a94e:	f003 02ff 	and.w	r2, r3, #255	@ 0xff
 800a952:	b91b      	cbnz	r3, 800a95c <HAL_UART_Init+0x18>
    huart->Lock = HAL_UNLOCKED;
 800a954:	f880 2040 	strb.w	r2, [r0, #64]	@ 0x40
    HAL_UART_MspInit(huart);
 800a958:	f7fd fe88 	bl	800866c <HAL_UART_MspInit>
  huart->gState = HAL_UART_STATE_BUSY;
 800a95c:	2324      	movs	r3, #36	@ 0x24
  __HAL_UART_DISABLE(huart);
 800a95e:	6822      	ldr	r2, [r4, #0]
  huart->gState = HAL_UART_STATE_BUSY;
 800a960:	f884 3041 	strb.w	r3, [r4, #65]	@ 0x41
  __HAL_UART_DISABLE(huart);
 800a964:	68d3      	ldr	r3, [r2, #12]
  UART_SetConfig(huart);
 800a966:	4620      	mov	r0, r4
  __HAL_UART_DISABLE(huart);
 800a968:	f423 5300 	bic.w	r3, r3, #8192	@ 0x2000
 800a96c:	60d3      	str	r3, [r2, #12]
  UART_SetConfig(huart);
 800a96e:	f7ff ffaf 	bl	800a8d0 <UART_SetConfig>
  CLEAR_BIT(huart->Instance->CR2, (USART_CR2_LINEN | USART_CR2_CLKEN));
 800a972:	6823      	ldr	r3, [r4, #0]
  huart->ErrorCode = HAL_UART_ERROR_NONE;
 800a974:	2000      	movs	r0, #0
  CLEAR_BIT(huart->Instance->CR2, (USART_CR2_LINEN | USART_CR2_CLKEN));
 800a976:	691a      	ldr	r2, [r3, #16]
 800a978:	f422 4290 	bic.w	r2, r2, #18432	@ 0x4800
 800a97c:	611a      	str	r2, [r3, #16]
  CLEAR_BIT(huart->Instance->CR3, (USART_CR3_SCEN | USART_CR3_HDSEL | USART_CR3_IREN));
 800a97e:	695a      	ldr	r2, [r3, #20]
 800a980:	f022 022a 	bic.w	r2, r2, #42	@ 0x2a
 800a984:	615a      	str	r2, [r3, #20]
  __HAL_UART_ENABLE(huart);
 800a986:	68da      	ldr	r2, [r3, #12]
 800a988:	f442 5200 	orr.w	r2, r2, #8192	@ 0x2000
 800a98c:	60da      	str	r2, [r3, #12]
  huart->gState = HAL_UART_STATE_READY;
 800a98e:	2320      	movs	r3, #32
  huart->ErrorCode = HAL_UART_ERROR_NONE;
 800a990:	6460      	str	r0, [r4, #68]	@ 0x44
  huart->gState = HAL_UART_STATE_READY;
 800a992:	f884 3041 	strb.w	r3, [r4, #65]	@ 0x41
  huart->RxState = HAL_UART_STATE_READY;
 800a996:	f884 3042 	strb.w	r3, [r4, #66]	@ 0x42
  huart->RxEventType = HAL_UART_RXEVENT_TC;
 800a99a:	6360      	str	r0, [r4, #52]	@ 0x34
}
 800a99c:	bd10      	pop	{r4, pc}
    return HAL_ERROR;
 800a99e:	2001      	movs	r0, #1
 800a9a0:	e7fc      	b.n	800a99c <HAL_UART_Init+0x58>

0800a9a2 <HAL_UART_Transmit_IT>:
  if (huart->gState == HAL_UART_STATE_READY)
 800a9a2:	f890 3041 	ldrb.w	r3, [r0, #65]	@ 0x41
 800a9a6:	2b20      	cmp	r3, #32
 800a9a8:	d110      	bne.n	800a9cc <HAL_UART_Transmit_IT+0x2a>
    if ((pData == NULL) || (Size == 0U))
 800a9aa:	b189      	cbz	r1, 800a9d0 <HAL_UART_Transmit_IT+0x2e>
 800a9ac:	b182      	cbz	r2, 800a9d0 <HAL_UART_Transmit_IT+0x2e>
    huart->TxXferCount = Size;
 800a9ae:	84c2      	strh	r2, [r0, #38]	@ 0x26
    huart->TxXferSize = Size;
 800a9b0:	8482      	strh	r2, [r0, #36]	@ 0x24
    huart->ErrorCode = HAL_UART_ERROR_NONE;
 800a9b2:	2300      	movs	r3, #0
    huart->gState = HAL_UART_STATE_BUSY_TX;
 800a9b4:	2221      	movs	r2, #33	@ 0x21
    huart->pTxBuffPtr = pData;
 800a9b6:	6201      	str	r1, [r0, #32]
    __HAL_UART_ENABLE_IT(huart, UART_IT_TXE);
 800a9b8:	6801      	ldr	r1, [r0, #0]
    huart->ErrorCode = HAL_UART_ERROR_NONE;
 800a9ba:	6443      	str	r3, [r0, #68]	@ 0x44
    huart->gState = HAL_UART_STATE_BUSY_TX;
 800a9bc:	f880 2041 	strb.w	r2, [r0, #65]	@ 0x41
    __HAL_UART_ENABLE_IT(huart, UART_IT_TXE);
 800a9c0:	68ca      	ldr	r2, [r1, #12]
    return HAL_OK;
 800a9c2:	4618      	mov	r0, r3
    __HAL_UART_ENABLE_IT(huart, UART_IT_TXE);
 800a9c4:	f042 0280 	orr.w	r2, r2, #128	@ 0x80
 800a9c8:	60ca      	str	r2, [r1, #12]
    return HAL_OK;
 800a9ca:	4770      	bx	lr
    return HAL_BUSY;
 800a9cc:	2002      	movs	r0, #2
 800a9ce:	4770      	bx	lr
      return HAL_ERROR;
 800a9d0:	2001      	movs	r0, #1
}
 800a9d2:	4770      	bx	lr

0800a9d4 <UART_DMAAbortOnError>:
{
 800a9d4:	b508      	push	{r3, lr}
  huart->RxXferCount = 0x00U;
 800a9d6:	2300      	movs	r3, #0
  UART_HandleTypeDef *huart = (UART_HandleTypeDef *)((DMA_HandleTypeDef *)hdma)->Parent;
 800a9d8:	6a40      	ldr	r0, [r0, #36]	@ 0x24
  huart->RxXferCount = 0x00U;
 800a9da:	85c3      	strh	r3, [r0, #46]	@ 0x2e
  huart->TxXferCount = 0x00U;
 800a9dc:	84c3      	strh	r3, [r0, #38]	@ 0x26
  HAL_UART_ErrorCallback(huart);
 800a9de:	f7fd ff1f 	bl	8008820 <HAL_UART_ErrorCallback>
}
 800a9e2:	bd08      	pop	{r3, pc}

0800a9e4 <HAL_UART_AbortReceiveCpltCallback>:
__weak void HAL_UART_AbortReceiveCpltCallback(UART_HandleTypeDef *huart)
 800a9e4:	4770      	bx	lr
	...

0800a9e8 <HAL_UART_AbortReceive_IT>:
{
 800a9e8:	b510      	push	{r4, lr}
 800a9ea:	4604      	mov	r4, r0
  ATOMIC_CLEAR_BIT(huart->Instance->CR1, (USART_CR1_RXNEIE | USART_CR1_PEIE));
 800a9ec:	6822      	ldr	r2, [r4, #0]
   __ASM volatile ("ldrex %0, %1" : "=r" (result) : "Q" (*addr) );
 800a9ee:	f102 030c 	add.w	r3, r2, #12
 800a9f2:	e853 3f00 	ldrex	r3, [r3]
 800a9f6:	f423 7390 	bic.w	r3, r3, #288	@ 0x120
   __ASM volatile ("strex %0, %2, %1" : "=&r" (result), "=Q" (*addr) : "r" (value) );
 800a9fa:	320c      	adds	r2, #12
 800a9fc:	e842 3100 	strex	r1, r3, [r2]
   return(result);
 800aa00:	6823      	ldr	r3, [r4, #0]
 800aa02:	2900      	cmp	r1, #0
 800aa04:	d1f2      	bne.n	800a9ec <HAL_UART_AbortReceive_IT+0x4>
   __ASM volatile ("ldrex %0, %1" : "=r" (result) : "Q" (*addr) );
 800aa06:	f103 0214 	add.w	r2, r3, #20
 800aa0a:	e852 2f00 	ldrex	r2, [r2]
  ATOMIC_CLEAR_BIT(huart->Instance->CR3, USART_CR3_EIE);
 800aa0e:	f022 0201 	bic.w	r2, r2, #1
   __ASM volatile ("strex %0, %2, %1" : "=&r" (result), "=Q" (*addr) : "r" (value) );
 800aa12:	f103 0014 	add.w	r0, r3, #20
 800aa16:	e840 2100 	strex	r1, r2, [r0]
 800aa1a:	2900      	cmp	r1, #0
 800aa1c:	d1f3      	bne.n	800aa06 <HAL_UART_AbortReceive_IT+0x1e>
  if (huart->ReceptionType == HAL_UART_RECEPTION_TOIDLE)
 800aa1e:	6b22      	ldr	r2, [r4, #48]	@ 0x30
 800aa20:	2a01      	cmp	r2, #1
 800aa22:	d10b      	bne.n	800aa3c <HAL_UART_AbortReceive_IT+0x54>
   __ASM volatile ("ldrex %0, %1" : "=r" (result) : "Q" (*addr) );
 800aa24:	f103 020c 	add.w	r2, r3, #12
 800aa28:	e852 2f00 	ldrex	r2, [r2]
    ATOMIC_CLEAR_BIT(huart->Instance->CR1, (USART_CR1_IDLEIE));
 800aa2c:	f022 0210 	bic.w	r2, r2, #16
   __ASM volatile ("strex %0, %2, %1" : "=&r" (result), "=Q" (*addr) : "r" (value) );
 800aa30:	f103 000c 	add.w	r0, r3, #12
 800aa34:	e840 2100 	strex	r1, r2, [r0]
 800aa38:	2900      	cmp	r1, #0
 800aa3a:	d1f3      	bne.n	800aa24 <HAL_UART_AbortReceive_IT+0x3c>
  if (HAL_IS_BIT_SET(huart->Instance->CR3, USART_CR3_DMAR))
 800aa3c:	695a      	ldr	r2, [r3, #20]
 800aa3e:	f012 0240 	ands.w	r2, r2, #64	@ 0x40
 800aa42:	d020      	beq.n	800aa86 <HAL_UART_AbortReceive_IT+0x9e>
   __ASM volatile ("ldrex %0, %1" : "=r" (result) : "Q" (*addr) );
 800aa44:	f103 0214 	add.w	r2, r3, #20
 800aa48:	e852 2f00 	ldrex	r2, [r2]
    ATOMIC_CLEAR_BIT(huart->Instance->CR3, USART_CR3_DMAR);
 800aa4c:	f022 0240 	bic.w	r2, r2, #64	@ 0x40
   __ASM volatile ("strex %0, %2, %1" : "=&r" (result), "=Q" (*addr) : "r" (value) );
 800aa50:	f103 0014 	add.w	r0, r3, #20
 800aa54:	e840 2100 	strex	r1, r2, [r0]
 800aa58:	2900      	cmp	r1, #0
 800aa5a:	d1f3      	bne.n	800aa44 <HAL_UART_AbortReceive_IT+0x5c>
    if (huart->hdmarx != NULL)
 800aa5c:	6be0      	ldr	r0, [r4, #60]	@ 0x3c
 800aa5e:	b148      	cbz	r0, 800aa74 <HAL_UART_AbortReceive_IT+0x8c>
      huart->hdmarx->XferAbortCallback = UART_DMARxOnlyAbortCallback;
 800aa60:	4b0c      	ldr	r3, [pc, #48]	@ (800aa94 <HAL_UART_AbortReceive_IT+0xac>)
 800aa62:	6343      	str	r3, [r0, #52]	@ 0x34
      if (HAL_DMA_Abort_IT(huart->hdmarx) != HAL_OK)
 800aa64:	f7fe fb92 	bl	800918c <HAL_DMA_Abort_IT>
 800aa68:	b110      	cbz	r0, 800aa70 <HAL_UART_AbortReceive_IT+0x88>
        huart->hdmarx->XferAbortCallback(huart->hdmarx);
 800aa6a:	6be0      	ldr	r0, [r4, #60]	@ 0x3c
 800aa6c:	6b43      	ldr	r3, [r0, #52]	@ 0x34
 800aa6e:	4798      	blx	r3
}
 800aa70:	2000      	movs	r0, #0
 800aa72:	bd10      	pop	{r4, pc}
      huart->RxState = HAL_UART_STATE_READY;
 800aa74:	2320      	movs	r3, #32
      huart->RxXferCount = 0x00U;
 800aa76:	85e0      	strh	r0, [r4, #46]	@ 0x2e
      huart->RxState = HAL_UART_STATE_READY;
 800aa78:	f884 3042 	strb.w	r3, [r4, #66]	@ 0x42
      huart->ReceptionType = HAL_UART_RECEPTION_STANDARD;
 800aa7c:	6320      	str	r0, [r4, #48]	@ 0x30
    HAL_UART_AbortReceiveCpltCallback(huart);
 800aa7e:	4620      	mov	r0, r4
 800aa80:	f7ff ffb0 	bl	800a9e4 <HAL_UART_AbortReceiveCpltCallback>
 800aa84:	e7f4      	b.n	800aa70 <HAL_UART_AbortReceive_IT+0x88>
    huart->RxState = HAL_UART_STATE_READY;
 800aa86:	2320      	movs	r3, #32
    huart->RxXferCount = 0x00U;
 800aa88:	85e2      	strh	r2, [r4, #46]	@ 0x2e
    huart->RxState = HAL_UART_STATE_READY;
 800aa8a:	f884 3042 	strb.w	r3, [r4, #66]	@ 0x42
    huart->ReceptionType = HAL_UART_RECEPTION_STANDARD;
 800aa8e:	6322      	str	r2, [r4, #48]	@ 0x30
 800aa90:	e7f5      	b.n	800aa7e <HAL_UART_AbortReceive_IT+0x96>
 800aa92:	bf00      	nop
 800aa94:	0800aa99 	.word	0x0800aa99

0800aa98 <UART_DMARxOnlyAbortCallback>:
{
 800aa98:	b508      	push	{r3, lr}
  huart->RxState = HAL_UART_STATE_READY;
 800aa9a:	2220      	movs	r2, #32
  huart->RxXferCount = 0x00U;
 800aa9c:	2300      	movs	r3, #0
  UART_HandleTypeDef *huart = (UART_HandleTypeDef *)((DMA_HandleTypeDef *)hdma)->Parent;
 800aa9e:	6a40      	ldr	r0, [r0, #36]	@ 0x24
  huart->RxXferCount = 0x00U;
 800aaa0:	85c3      	strh	r3, [r0, #46]	@ 0x2e
  huart->RxState = HAL_UART_STATE_READY;
 800aaa2:	f880 2042 	strb.w	r2, [r0, #66]	@ 0x42
  huart->ReceptionType = HAL_UART_RECEPTION_STANDARD;
 800aaa6:	6303      	str	r3, [r0, #48]	@ 0x30
  HAL_UART_AbortReceiveCpltCallback(huart);
 800aaa8:	f7ff ff9c 	bl	800a9e4 <HAL_UART_AbortReceiveCpltCallback>
}
 800aaac:	bd08      	pop	{r3, pc}

0800aaae <HAL_UARTEx_RxEventCallback>:
}
 800aaae:	4770      	bx	lr

0800aab0 <UART_Receive_IT.isra.0>:
  if (huart->RxState == HAL_UART_STATE_BUSY_RX)
 800aab0:	f890 3042 	ldrb.w	r3, [r0, #66]	@ 0x42
static HAL_StatusTypeDef UART_Receive_IT(UART_HandleTypeDef *huart)
 800aab4:	b507      	push	{r0, r1, r2, lr}
  if (huart->RxState == HAL_UART_STATE_BUSY_RX)
 800aab6:	2b22      	cmp	r3, #34	@ 0x22
 800aab8:	d142      	bne.n	800ab40 <UART_Receive_IT.isra.0+0x90>
    if ((huart->Init.WordLength == UART_WORDLENGTH_9B) && (huart->Init.Parity == UART_PARITY_NONE))
 800aaba:	6881      	ldr	r1, [r0, #8]
      *pdata16bits = (uint16_t)(huart->Instance->DR & (uint16_t)0x01FF);
 800aabc:	6802      	ldr	r2, [r0, #0]
    if ((huart->Init.WordLength == UART_WORDLENGTH_9B) && (huart->Init.Parity == UART_PARITY_NONE))
 800aabe:	f5b1 5f80 	cmp.w	r1, #4096	@ 0x1000
      pdata16bits = (uint16_t *) huart->pRxBuffPtr;
 800aac2:	6a83      	ldr	r3, [r0, #40]	@ 0x28
    if ((huart->Init.WordLength == UART_WORDLENGTH_9B) && (huart->Init.Parity == UART_PARITY_NONE))
 800aac4:	d13f      	bne.n	800ab46 <UART_Receive_IT.isra.0+0x96>
 800aac6:	6901      	ldr	r1, [r0, #16]
 800aac8:	2900      	cmp	r1, #0
 800aaca:	d13f      	bne.n	800ab4c <UART_Receive_IT.isra.0+0x9c>
      *pdata16bits = (uint16_t)(huart->Instance->DR & (uint16_t)0x01FF);
 800aacc:	6852      	ldr	r2, [r2, #4]
 800aace:	f3c2 0208 	ubfx	r2, r2, #0, #9
 800aad2:	f823 2b02 	strh.w	r2, [r3], #2
      huart->pRxBuffPtr += 2U;
 800aad6:	6283      	str	r3, [r0, #40]	@ 0x28
    if (--huart->RxXferCount == 0U)
 800aad8:	8dc3      	ldrh	r3, [r0, #46]	@ 0x2e
 800aada:	3b01      	subs	r3, #1
 800aadc:	b29b      	uxth	r3, r3
 800aade:	85c3      	strh	r3, [r0, #46]	@ 0x2e
 800aae0:	2b00      	cmp	r3, #0
 800aae2:	d12d      	bne.n	800ab40 <UART_Receive_IT.isra.0+0x90>
      __HAL_UART_DISABLE_IT(huart, UART_IT_RXNE);
 800aae4:	6802      	ldr	r2, [r0, #0]
 800aae6:	68d1      	ldr	r1, [r2, #12]
 800aae8:	f021 0120 	bic.w	r1, r1, #32
 800aaec:	60d1      	str	r1, [r2, #12]
      __HAL_UART_DISABLE_IT(huart, UART_IT_PE);
 800aaee:	68d1      	ldr	r1, [r2, #12]
 800aaf0:	f421 7180 	bic.w	r1, r1, #256	@ 0x100
 800aaf4:	60d1      	str	r1, [r2, #12]
      __HAL_UART_DISABLE_IT(huart, UART_IT_ERR);
 800aaf6:	6951      	ldr	r1, [r2, #20]
 800aaf8:	f021 0101 	bic.w	r1, r1, #1
 800aafc:	6151      	str	r1, [r2, #20]
      huart->RxState = HAL_UART_STATE_READY;
 800aafe:	2220      	movs	r2, #32
 800ab00:	f880 2042 	strb.w	r2, [r0, #66]	@ 0x42
      huart->RxEventType = HAL_UART_RXEVENT_TC;
 800ab04:	6343      	str	r3, [r0, #52]	@ 0x34
      if (huart->ReceptionType == HAL_UART_RECEPTION_TOIDLE)
 800ab06:	6b02      	ldr	r2, [r0, #48]	@ 0x30
 800ab08:	2a01      	cmp	r2, #1
 800ab0a:	6802      	ldr	r2, [r0, #0]
 800ab0c:	d128      	bne.n	800ab60 <UART_Receive_IT.isra.0+0xb0>
        huart->ReceptionType = HAL_UART_RECEPTION_STANDARD;
 800ab0e:	6303      	str	r3, [r0, #48]	@ 0x30
   __ASM volatile ("ldrex %0, %1" : "=r" (result) : "Q" (*addr) );
 800ab10:	f102 030c 	add.w	r3, r2, #12
 800ab14:	e853 3f00 	ldrex	r3, [r3]
        ATOMIC_CLEAR_BIT(huart->Instance->CR1, USART_CR1_IDLEIE);
 800ab18:	f023 0310 	bic.w	r3, r3, #16
   __ASM volatile ("strex %0, %2, %1" : "=&r" (result), "=Q" (*addr) : "r" (value) );
 800ab1c:	f102 0c0c 	add.w	ip, r2, #12
 800ab20:	e84c 3100 	strex	r1, r3, [ip]
 800ab24:	2900      	cmp	r1, #0
 800ab26:	d1f3      	bne.n	800ab10 <UART_Receive_IT.isra.0+0x60>
        if (__HAL_UART_GET_FLAG(huart, UART_FLAG_IDLE))
 800ab28:	6813      	ldr	r3, [r2, #0]
 800ab2a:	06db      	lsls	r3, r3, #27
 800ab2c:	d505      	bpl.n	800ab3a <UART_Receive_IT.isra.0+0x8a>
          __HAL_UART_CLEAR_IDLEFLAG(huart);
 800ab2e:	9101      	str	r1, [sp, #4]
 800ab30:	6813      	ldr	r3, [r2, #0]
 800ab32:	9301      	str	r3, [sp, #4]
 800ab34:	6853      	ldr	r3, [r2, #4]
 800ab36:	9301      	str	r3, [sp, #4]
 800ab38:	9b01      	ldr	r3, [sp, #4]
        HAL_UARTEx_RxEventCallback(huart, huart->RxXferSize);
 800ab3a:	8d81      	ldrh	r1, [r0, #44]	@ 0x2c
 800ab3c:	f7ff ffb7 	bl	800aaae <HAL_UARTEx_RxEventCallback>
}
 800ab40:	b003      	add	sp, #12
 800ab42:	f85d fb04 	ldr.w	pc, [sp], #4
      if ((huart->Init.WordLength == UART_WORDLENGTH_9B) || ((huart->Init.WordLength == UART_WORDLENGTH_8B) && (huart->Init.Parity == UART_PARITY_NONE)))
 800ab46:	b939      	cbnz	r1, 800ab58 <UART_Receive_IT.isra.0+0xa8>
 800ab48:	6901      	ldr	r1, [r0, #16]
 800ab4a:	b929      	cbnz	r1, 800ab58 <UART_Receive_IT.isra.0+0xa8>
        *pdata8bits = (uint8_t)(huart->Instance->DR & (uint8_t)0x00FF);
 800ab4c:	6852      	ldr	r2, [r2, #4]
 800ab4e:	b2d2      	uxtb	r2, r2
 800ab50:	701a      	strb	r2, [r3, #0]
      huart->pRxBuffPtr += 1U;
 800ab52:	6a83      	ldr	r3, [r0, #40]	@ 0x28
 800ab54:	3301      	adds	r3, #1
 800ab56:	e7be      	b.n	800aad6 <UART_Receive_IT.isra.0+0x26>
        *pdata8bits = (uint8_t)(huart->Instance->DR & (uint8_t)0x007F);
 800ab58:	6852      	ldr	r2, [r2, #4]
 800ab5a:	f002 027f 	and.w	r2, r2, #127	@ 0x7f
 800ab5e:	e7f7      	b.n	800ab50 <UART_Receive_IT.isra.0+0xa0>
        HAL_UART_RxCpltCallback(huart);
 800ab60:	f7fd fe1e 	bl	80087a0 <HAL_UART_RxCpltCallback>
 800ab64:	e7ec      	b.n	800ab40 <UART_Receive_IT.isra.0+0x90>
	...

0800ab68 <HAL_UART_IRQHandler>:
  uint32_t isrflags   = READ_REG(huart->Instance->SR);
 800ab68:	6803      	ldr	r3, [r0, #0]
{
 800ab6a:	b573      	push	{r0, r1, r4, r5, r6, lr}
  uint32_t isrflags   = READ_REG(huart->Instance->SR);
 800ab6c:	681a      	ldr	r2, [r3, #0]
{
 800ab6e:	4604      	mov	r4, r0
  if (errorflags == RESET)
 800ab70:	0716      	lsls	r6, r2, #28
  uint32_t cr1its     = READ_REG(huart->Instance->CR1);
 800ab72:	68d9      	ldr	r1, [r3, #12]
  uint32_t cr3its     = READ_REG(huart->Instance->CR3);
 800ab74:	695d      	ldr	r5, [r3, #20]
  if (errorflags == RESET)
 800ab76:	d108      	bne.n	800ab8a <HAL_UART_IRQHandler+0x22>
    if (((isrflags & USART_SR_RXNE) != RESET) && ((cr1its & USART_CR1_RXNEIE) != RESET))
 800ab78:	0696      	lsls	r6, r2, #26
 800ab7a:	d568      	bpl.n	800ac4e <HAL_UART_IRQHandler+0xe6>
 800ab7c:	068d      	lsls	r5, r1, #26
 800ab7e:	d566      	bpl.n	800ac4e <HAL_UART_IRQHandler+0xe6>
}
 800ab80:	b002      	add	sp, #8
 800ab82:	e8bd 4070 	ldmia.w	sp!, {r4, r5, r6, lr}
      UART_Receive_IT(huart);
 800ab86:	f7ff bf93 	b.w	800aab0 <UART_Receive_IT.isra.0>
  if ((errorflags != RESET) && (((cr3its & USART_CR3_EIE) != RESET)
 800ab8a:	f005 0001 	and.w	r0, r5, #1
                                || ((cr1its & (USART_CR1_RXNEIE | USART_CR1_PEIE)) != RESET)))
 800ab8e:	f401 7590 	and.w	r5, r1, #288	@ 0x120
 800ab92:	4305      	orrs	r5, r0
 800ab94:	d05b      	beq.n	800ac4e <HAL_UART_IRQHandler+0xe6>
    if (((isrflags & USART_SR_PE) != RESET) && ((cr1its & USART_CR1_PEIE) != RESET))
 800ab96:	07d6      	lsls	r6, r2, #31
 800ab98:	d505      	bpl.n	800aba6 <HAL_UART_IRQHandler+0x3e>
 800ab9a:	05cd      	lsls	r5, r1, #23
      huart->ErrorCode |= HAL_UART_ERROR_PE;
 800ab9c:	bf42      	ittt	mi
 800ab9e:	6c63      	ldrmi	r3, [r4, #68]	@ 0x44
 800aba0:	f043 0301 	orrmi.w	r3, r3, #1
 800aba4:	6463      	strmi	r3, [r4, #68]	@ 0x44
    if (((isrflags & USART_SR_NE) != RESET) && ((cr3its & USART_CR3_EIE) != RESET))
 800aba6:	0753      	lsls	r3, r2, #29
 800aba8:	d504      	bpl.n	800abb4 <HAL_UART_IRQHandler+0x4c>
 800abaa:	b118      	cbz	r0, 800abb4 <HAL_UART_IRQHandler+0x4c>
      huart->ErrorCode |= HAL_UART_ERROR_NE;
 800abac:	6c63      	ldr	r3, [r4, #68]	@ 0x44
 800abae:	f043 0302 	orr.w	r3, r3, #2
 800abb2:	6463      	str	r3, [r4, #68]	@ 0x44
    if (((isrflags & USART_SR_FE) != RESET) && ((cr3its & USART_CR3_EIE) != RESET))
 800abb4:	0796      	lsls	r6, r2, #30
 800abb6:	d504      	bpl.n	800abc2 <HAL_UART_IRQHandler+0x5a>
 800abb8:	b118      	cbz	r0, 800abc2 <HAL_UART_IRQHandler+0x5a>
      huart->ErrorCode |= HAL_UART_ERROR_FE;
 800abba:	6c63      	ldr	r3, [r4, #68]	@ 0x44
 800abbc:	f043 0304 	orr.w	r3, r3, #4
 800abc0:	6463      	str	r3, [r4, #68]	@ 0x44
    if (((isrflags & USART_SR_ORE) != RESET) && (((cr1its & USART_CR1_RXNEIE) != RESET)
 800abc2:	0715      	lsls	r5, r2, #28
 800abc4:	d507      	bpl.n	800abd6 <HAL_UART_IRQHandler+0x6e>
 800abc6:	f001 0320 	and.w	r3, r1, #32
 800abca:	4303      	orrs	r3, r0
      huart->ErrorCode |= HAL_UART_ERROR_ORE;
 800abcc:	bf1e      	ittt	ne
 800abce:	6c63      	ldrne	r3, [r4, #68]	@ 0x44
 800abd0:	f043 0308 	orrne.w	r3, r3, #8
 800abd4:	6463      	strne	r3, [r4, #68]	@ 0x44
    if (huart->ErrorCode != HAL_UART_ERROR_NONE)
 800abd6:	6c63      	ldr	r3, [r4, #68]	@ 0x44
 800abd8:	2b00      	cmp	r3, #0
 800abda:	d032      	beq.n	800ac42 <HAL_UART_IRQHandler+0xda>
      if (((isrflags & USART_SR_RXNE) != RESET) && ((cr1its & USART_CR1_RXNEIE) != RESET))
 800abdc:	0692      	lsls	r2, r2, #26
 800abde:	d504      	bpl.n	800abea <HAL_UART_IRQHandler+0x82>
 800abe0:	068b      	lsls	r3, r1, #26
 800abe2:	d502      	bpl.n	800abea <HAL_UART_IRQHandler+0x82>
        UART_Receive_IT(huart);
 800abe4:	4620      	mov	r0, r4
 800abe6:	f7ff ff63 	bl	800aab0 <UART_Receive_IT.isra.0>
      dmarequest = HAL_IS_BIT_SET(huart->Instance->CR3, USART_CR3_DMAR);
 800abea:	6826      	ldr	r6, [r4, #0]
        UART_EndRxTransfer(huart);
 800abec:	4620      	mov	r0, r4
      dmarequest = HAL_IS_BIT_SET(huart->Instance->CR3, USART_CR3_DMAR);
 800abee:	6973      	ldr	r3, [r6, #20]
      if (((huart->ErrorCode & HAL_UART_ERROR_ORE) != RESET) || dmarequest)
 800abf0:	6c62      	ldr	r2, [r4, #68]	@ 0x44
      dmarequest = HAL_IS_BIT_SET(huart->Instance->CR3, USART_CR3_DMAR);
 800abf2:	f003 0340 	and.w	r3, r3, #64	@ 0x40
      if (((huart->ErrorCode & HAL_UART_ERROR_ORE) != RESET) || dmarequest)
 800abf6:	f002 0208 	and.w	r2, r2, #8
 800abfa:	ea53 0502 	orrs.w	r5, r3, r2
 800abfe:	d022      	beq.n	800ac46 <HAL_UART_IRQHandler+0xde>
        UART_EndRxTransfer(huart);
 800ac00:	f7ff fe38 	bl	800a874 <UART_EndRxTransfer>
        if (HAL_IS_BIT_SET(huart->Instance->CR3, USART_CR3_DMAR))
 800ac04:	6973      	ldr	r3, [r6, #20]
 800ac06:	065e      	lsls	r6, r3, #25
 800ac08:	d518      	bpl.n	800ac3c <HAL_UART_IRQHandler+0xd4>
          ATOMIC_CLEAR_BIT(huart->Instance->CR3, USART_CR3_DMAR);
 800ac0a:	6822      	ldr	r2, [r4, #0]
   __ASM volatile ("ldrex %0, %1" : "=r" (result) : "Q" (*addr) );
 800ac0c:	f102 0314 	add.w	r3, r2, #20
 800ac10:	e853 3f00 	ldrex	r3, [r3]
 800ac14:	f023 0340 	bic.w	r3, r3, #64	@ 0x40
   __ASM volatile ("strex %0, %2, %1" : "=&r" (result), "=Q" (*addr) : "r" (value) );
 800ac18:	3214      	adds	r2, #20
 800ac1a:	e842 3100 	strex	r1, r3, [r2]
 800ac1e:	2900      	cmp	r1, #0
 800ac20:	d1f3      	bne.n	800ac0a <HAL_UART_IRQHandler+0xa2>
          if (huart->hdmarx != NULL)
 800ac22:	6be0      	ldr	r0, [r4, #60]	@ 0x3c
 800ac24:	b150      	cbz	r0, 800ac3c <HAL_UART_IRQHandler+0xd4>
            huart->hdmarx->XferAbortCallback = UART_DMAAbortOnError;
 800ac26:	4b74      	ldr	r3, [pc, #464]	@ (800adf8 <HAL_UART_IRQHandler+0x290>)
 800ac28:	6343      	str	r3, [r0, #52]	@ 0x34
            if (HAL_DMA_Abort_IT(huart->hdmarx) != HAL_OK)
 800ac2a:	f7fe faaf 	bl	800918c <HAL_DMA_Abort_IT>
 800ac2e:	b140      	cbz	r0, 800ac42 <HAL_UART_IRQHandler+0xda>
              huart->hdmarx->XferAbortCallback(huart->hdmarx);
 800ac30:	6be0      	ldr	r0, [r4, #60]	@ 0x3c
 800ac32:	6b43      	ldr	r3, [r0, #52]	@ 0x34
}
 800ac34:	b002      	add	sp, #8
 800ac36:	e8bd 4070 	ldmia.w	sp!, {r4, r5, r6, lr}
              huart->hdmarx->XferAbortCallback(huart->hdmarx);
 800ac3a:	4718      	bx	r3
            HAL_UART_ErrorCallback(huart);
 800ac3c:	4620      	mov	r0, r4
 800ac3e:	f7fd fdef 	bl	8008820 <HAL_UART_ErrorCallback>
}
 800ac42:	b002      	add	sp, #8
 800ac44:	bd70      	pop	{r4, r5, r6, pc}
        HAL_UART_ErrorCallback(huart);
 800ac46:	f7fd fdeb 	bl	8008820 <HAL_UART_ErrorCallback>
        huart->ErrorCode = HAL_UART_ERROR_NONE;
 800ac4a:	6465      	str	r5, [r4, #68]	@ 0x44
 800ac4c:	e7f9      	b.n	800ac42 <HAL_UART_IRQHandler+0xda>
  if ((huart->ReceptionType == HAL_UART_RECEPTION_TOIDLE)
 800ac4e:	6b20      	ldr	r0, [r4, #48]	@ 0x30
 800ac50:	2801      	cmp	r0, #1
 800ac52:	f040 8094 	bne.w	800ad7e <HAL_UART_IRQHandler+0x216>
      && ((isrflags & USART_SR_IDLE) != 0U)
 800ac56:	06d5      	lsls	r5, r2, #27
 800ac58:	f140 8091 	bpl.w	800ad7e <HAL_UART_IRQHandler+0x216>
      && ((cr1its & USART_SR_IDLE) != 0U))
 800ac5c:	06c8      	lsls	r0, r1, #27
 800ac5e:	f140 808e 	bpl.w	800ad7e <HAL_UART_IRQHandler+0x216>
    __HAL_UART_CLEAR_IDLEFLAG(huart);
 800ac62:	2200      	movs	r2, #0
 800ac64:	9201      	str	r2, [sp, #4]
 800ac66:	681a      	ldr	r2, [r3, #0]
 800ac68:	9201      	str	r2, [sp, #4]
 800ac6a:	685a      	ldr	r2, [r3, #4]
 800ac6c:	9201      	str	r2, [sp, #4]
 800ac6e:	9a01      	ldr	r2, [sp, #4]
    if (HAL_IS_BIT_SET(huart->Instance->CR3, USART_CR3_DMAR))
 800ac70:	695a      	ldr	r2, [r3, #20]
 800ac72:	0652      	lsls	r2, r2, #25
 800ac74:	d54d      	bpl.n	800ad12 <HAL_UART_IRQHandler+0x1aa>
      uint16_t nb_remaining_rx_data = (uint16_t) __HAL_DMA_GET_COUNTER(huart->hdmarx);
 800ac76:	6be1      	ldr	r1, [r4, #60]	@ 0x3c
 800ac78:	680a      	ldr	r2, [r1, #0]
 800ac7a:	6852      	ldr	r2, [r2, #4]
 800ac7c:	b292      	uxth	r2, r2
      if ((nb_remaining_rx_data > 0U)
 800ac7e:	2a00      	cmp	r2, #0
 800ac80:	d0df      	beq.n	800ac42 <HAL_UART_IRQHandler+0xda>
          && (nb_remaining_rx_data < huart->RxXferSize))
 800ac82:	8da0      	ldrh	r0, [r4, #44]	@ 0x2c
 800ac84:	4290      	cmp	r0, r2
 800ac86:	d9dc      	bls.n	800ac42 <HAL_UART_IRQHandler+0xda>
        huart->RxXferCount = nb_remaining_rx_data;
 800ac88:	85e2      	strh	r2, [r4, #46]	@ 0x2e
        if (huart->hdmarx->Init.Mode != DMA_CIRCULAR)
 800ac8a:	698a      	ldr	r2, [r1, #24]
 800ac8c:	2a20      	cmp	r2, #32
 800ac8e:	d036      	beq.n	800acfe <HAL_UART_IRQHandler+0x196>
   __ASM volatile ("ldrex %0, %1" : "=r" (result) : "Q" (*addr) );
 800ac90:	f103 020c 	add.w	r2, r3, #12
 800ac94:	e852 2f00 	ldrex	r2, [r2]
          ATOMIC_CLEAR_BIT(huart->Instance->CR1, USART_CR1_PEIE);
 800ac98:	f422 7280 	bic.w	r2, r2, #256	@ 0x100
   __ASM volatile ("strex %0, %2, %1" : "=&r" (result), "=Q" (*addr) : "r" (value) );
 800ac9c:	f103 000c 	add.w	r0, r3, #12
 800aca0:	e840 2100 	strex	r1, r2, [r0]
 800aca4:	2900      	cmp	r1, #0
 800aca6:	d1f3      	bne.n	800ac90 <HAL_UART_IRQHandler+0x128>
   __ASM volatile ("ldrex %0, %1" : "=r" (result) : "Q" (*addr) );
 800aca8:	f103 0214 	add.w	r2, r3, #20
 800acac:	e852 2f00 	ldrex	r2, [r2]
          ATOMIC_CLEAR_BIT(huart->Instance->CR3, USART_CR3_EIE);
 800acb0:	f022 0201 	bic.w	r2, r2, #1
   __ASM volatile ("strex %0, %2, %1" : "=&r" (result), "=Q" (*addr) : "r" (value) );
 800acb4:	f103 0014 	add.w	r0, r3, #20
 800acb8:	e840 2100 	strex	r1, r2, [r0]
 800acbc:	2900      	cmp	r1, #0
 800acbe:	d1f3      	bne.n	800aca8 <HAL_UART_IRQHandler+0x140>
   __ASM volatile ("ldrex %0, %1" : "=r" (result) : "Q" (*addr) );
 800acc0:	f103 0214 	add.w	r2, r3, #20
 800acc4:	e852 2f00 	ldrex	r2, [r2]
          ATOMIC_CLEAR_BIT(huart->Instance->CR3, USART_CR3_DMAR);
 800acc8:	f022 0240 	bic.w	r2, r2, #64	@ 0x40
   __ASM volatile ("strex %0, %2, %1" : "=&r" (result), "=Q" (*addr) : "r" (value) );
 800accc:	f103 0014 	add.w	r0, r3, #20
 800acd0:	e840 2100 	strex	r1, r2, [r0]
 800acd4:	2900      	cmp	r1, #0
 800acd6:	d1f3      	bne.n	800acc0 <HAL_UART_IRQHandler+0x158>
          huart->RxState = HAL_UART_STATE_READY;
 800acd8:	2220      	movs	r2, #32
 800acda:	f884 2042 	strb.w	r2, [r4, #66]	@ 0x42
          huart->ReceptionType = HAL_UART_RECEPTION_STANDARD;
 800acde:	6321      	str	r1, [r4, #48]	@ 0x30
   __ASM volatile ("ldrex %0, %1" : "=r" (result) : "Q" (*addr) );
 800ace0:	f103 020c 	add.w	r2, r3, #12
 800ace4:	e852 2f00 	ldrex	r2, [r2]
          ATOMIC_CLEAR_BIT(huart->Instance->CR1, USART_CR1_IDLEIE);
 800ace8:	f022 0210 	bic.w	r2, r2, #16
   __ASM volatile ("strex %0, %2, %1" : "=&r" (result), "=Q" (*addr) : "r" (value) );
 800acec:	f103 000c 	add.w	r0, r3, #12
 800acf0:	e840 2100 	strex	r1, r2, [r0]
 800acf4:	2900      	cmp	r1, #0
 800acf6:	d1f3      	bne.n	800ace0 <HAL_UART_IRQHandler+0x178>
          (void)HAL_DMA_Abort(huart->hdmarx);
 800acf8:	6be0      	ldr	r0, [r4, #60]	@ 0x3c
 800acfa:	f7fe fa27 	bl	800914c <HAL_DMA_Abort>
        huart->RxEventType = HAL_UART_RXEVENT_IDLE;
 800acfe:	2302      	movs	r3, #2
 800ad00:	6363      	str	r3, [r4, #52]	@ 0x34
        HAL_UARTEx_RxEventCallback(huart, (huart->RxXferSize - huart->RxXferCount));
 800ad02:	8de3      	ldrh	r3, [r4, #46]	@ 0x2e
 800ad04:	8da1      	ldrh	r1, [r4, #44]	@ 0x2c
 800ad06:	1ac9      	subs	r1, r1, r3
 800ad08:	b289      	uxth	r1, r1
        HAL_UARTEx_RxEventCallback(huart, nb_rx_data);
 800ad0a:	4620      	mov	r0, r4
 800ad0c:	f7ff fecf 	bl	800aaae <HAL_UARTEx_RxEventCallback>
 800ad10:	e797      	b.n	800ac42 <HAL_UART_IRQHandler+0xda>
      uint16_t nb_rx_data = huart->RxXferSize - huart->RxXferCount;
 800ad12:	8de2      	ldrh	r2, [r4, #46]	@ 0x2e
      if ((huart->RxXferCount > 0U)
 800ad14:	8de0      	ldrh	r0, [r4, #46]	@ 0x2e
      uint16_t nb_rx_data = huart->RxXferSize - huart->RxXferCount;
 800ad16:	8da1      	ldrh	r1, [r4, #44]	@ 0x2c
      if ((huart->RxXferCount > 0U)
 800ad18:	b280      	uxth	r0, r0
      uint16_t nb_rx_data = huart->RxXferSize - huart->RxXferCount;
 800ad1a:	b292      	uxth	r2, r2
      if ((huart->RxXferCount > 0U)
 800ad1c:	2800      	cmp	r0, #0
 800ad1e:	d090      	beq.n	800ac42 <HAL_UART_IRQHandler+0xda>
      uint16_t nb_rx_data = huart->RxXferSize - huart->RxXferCount;
 800ad20:	1a89      	subs	r1, r1, r2
 800ad22:	b289      	uxth	r1, r1
          && (nb_rx_data > 0U))
 800ad24:	2900      	cmp	r1, #0
 800ad26:	d08c      	beq.n	800ac42 <HAL_UART_IRQHandler+0xda>
   __ASM volatile ("ldrex %0, %1" : "=r" (result) : "Q" (*addr) );
 800ad28:	f103 020c 	add.w	r2, r3, #12
 800ad2c:	e852 2f00 	ldrex	r2, [r2]
        ATOMIC_CLEAR_BIT(huart->Instance->CR1, (USART_CR1_RXNEIE | USART_CR1_PEIE));
 800ad30:	f422 7290 	bic.w	r2, r2, #288	@ 0x120
   __ASM volatile ("strex %0, %2, %1" : "=&r" (result), "=Q" (*addr) : "r" (value) );
 800ad34:	f103 050c 	add.w	r5, r3, #12
 800ad38:	e845 2000 	strex	r0, r2, [r5]
 800ad3c:	2800      	cmp	r0, #0
 800ad3e:	d1f3      	bne.n	800ad28 <HAL_UART_IRQHandler+0x1c0>
   __ASM volatile ("ldrex %0, %1" : "=r" (result) : "Q" (*addr) );
 800ad40:	f103 0214 	add.w	r2, r3, #20
 800ad44:	e852 2f00 	ldrex	r2, [r2]
        ATOMIC_CLEAR_BIT(huart->Instance->CR3, USART_CR3_EIE);
 800ad48:	f022 0201 	bic.w	r2, r2, #1
   __ASM volatile ("strex %0, %2, %1" : "=&r" (result), "=Q" (*addr) : "r" (value) );
 800ad4c:	f103 0514 	add.w	r5, r3, #20
 800ad50:	e845 2000 	strex	r0, r2, [r5]
 800ad54:	2800      	cmp	r0, #0
 800ad56:	d1f3      	bne.n	800ad40 <HAL_UART_IRQHandler+0x1d8>
        huart->RxState = HAL_UART_STATE_READY;
 800ad58:	2220      	movs	r2, #32
 800ad5a:	f884 2042 	strb.w	r2, [r4, #66]	@ 0x42
        huart->ReceptionType = HAL_UART_RECEPTION_STANDARD;
 800ad5e:	6320      	str	r0, [r4, #48]	@ 0x30
   __ASM volatile ("ldrex %0, %1" : "=r" (result) : "Q" (*addr) );
 800ad60:	f103 020c 	add.w	r2, r3, #12
 800ad64:	e852 2f00 	ldrex	r2, [r2]
        ATOMIC_CLEAR_BIT(huart->Instance->CR1, USART_CR1_IDLEIE);
 800ad68:	f022 0210 	bic.w	r2, r2, #16
   __ASM volatile ("strex %0, %2, %1" : "=&r" (result), "=Q" (*addr) : "r" (value) );
 800ad6c:	f103 050c 	add.w	r5, r3, #12
 800ad70:	e845 2000 	strex	r0, r2, [r5]
 800ad74:	2800      	cmp	r0, #0
 800ad76:	d1f3      	bne.n	800ad60 <HAL_UART_IRQHandler+0x1f8>
        huart->RxEventType = HAL_UART_RXEVENT_IDLE;
 800ad78:	2302      	movs	r3, #2
 800ad7a:	6363      	str	r3, [r4, #52]	@ 0x34
 800ad7c:	e7c5      	b.n	800ad0a <HAL_UART_IRQHandler+0x1a2>
  if (((isrflags & USART_SR_TXE) != RESET) && ((cr1its & USART_CR1_TXEIE) != RESET))
 800ad7e:	0616      	lsls	r6, r2, #24
 800ad80:	d528      	bpl.n	800add4 <HAL_UART_IRQHandler+0x26c>
 800ad82:	060d      	lsls	r5, r1, #24
 800ad84:	d526      	bpl.n	800add4 <HAL_UART_IRQHandler+0x26c>
  if (huart->gState == HAL_UART_STATE_BUSY_TX)
 800ad86:	f894 2041 	ldrb.w	r2, [r4, #65]	@ 0x41
 800ad8a:	2a21      	cmp	r2, #33	@ 0x21
 800ad8c:	f47f af59 	bne.w	800ac42 <HAL_UART_IRQHandler+0xda>
    if ((huart->Init.WordLength == UART_WORDLENGTH_9B) && (huart->Init.Parity == UART_PARITY_NONE))
 800ad90:	68a1      	ldr	r1, [r4, #8]
      tmp = (const uint16_t *) huart->pTxBuffPtr;
 800ad92:	6a22      	ldr	r2, [r4, #32]
    if ((huart->Init.WordLength == UART_WORDLENGTH_9B) && (huart->Init.Parity == UART_PARITY_NONE))
 800ad94:	f5b1 5f80 	cmp.w	r1, #4096	@ 0x1000
 800ad98:	d117      	bne.n	800adca <HAL_UART_IRQHandler+0x262>
 800ad9a:	6921      	ldr	r1, [r4, #16]
 800ad9c:	b9a9      	cbnz	r1, 800adca <HAL_UART_IRQHandler+0x262>
      huart->Instance->DR = (uint16_t)(*tmp & (uint16_t)0x01FF);
 800ad9e:	f832 1b02 	ldrh.w	r1, [r2], #2
 800ada2:	f3c1 0108 	ubfx	r1, r1, #0, #9
 800ada6:	6059      	str	r1, [r3, #4]
      huart->pTxBuffPtr += 2U;
 800ada8:	6222      	str	r2, [r4, #32]
    if (--huart->TxXferCount == 0U)
 800adaa:	8ce2      	ldrh	r2, [r4, #38]	@ 0x26
 800adac:	3a01      	subs	r2, #1
 800adae:	b292      	uxth	r2, r2
 800adb0:	84e2      	strh	r2, [r4, #38]	@ 0x26
 800adb2:	2a00      	cmp	r2, #0
 800adb4:	f47f af45 	bne.w	800ac42 <HAL_UART_IRQHandler+0xda>
      __HAL_UART_DISABLE_IT(huart, UART_IT_TXE);
 800adb8:	68da      	ldr	r2, [r3, #12]
 800adba:	f022 0280 	bic.w	r2, r2, #128	@ 0x80
 800adbe:	60da      	str	r2, [r3, #12]
      __HAL_UART_ENABLE_IT(huart, UART_IT_TC);
 800adc0:	68da      	ldr	r2, [r3, #12]
 800adc2:	f042 0240 	orr.w	r2, r2, #64	@ 0x40
 800adc6:	60da      	str	r2, [r3, #12]
 800adc8:	e73b      	b.n	800ac42 <HAL_UART_IRQHandler+0xda>
      huart->Instance->DR = (uint8_t)(*huart->pTxBuffPtr++ & (uint8_t)0x00FF);
 800adca:	1c51      	adds	r1, r2, #1
 800adcc:	6221      	str	r1, [r4, #32]
 800adce:	7812      	ldrb	r2, [r2, #0]
 800add0:	605a      	str	r2, [r3, #4]
 800add2:	e7ea      	b.n	800adaa <HAL_UART_IRQHandler+0x242>
  if (((isrflags & USART_SR_TC) != RESET) && ((cr1its & USART_CR1_TCIE) != RESET))
 800add4:	0650      	lsls	r0, r2, #25
 800add6:	f57f af34 	bpl.w	800ac42 <HAL_UART_IRQHandler+0xda>
 800adda:	064a      	lsls	r2, r1, #25
 800addc:	f57f af31 	bpl.w	800ac42 <HAL_UART_IRQHandler+0xda>
  __HAL_UART_DISABLE_IT(huart, UART_IT_TC);
 800ade0:	68da      	ldr	r2, [r3, #12]
  HAL_UART_TxCpltCallback(huart);
 800ade2:	4620      	mov	r0, r4
  __HAL_UART_DISABLE_IT(huart, UART_IT_TC);
 800ade4:	f022 0240 	bic.w	r2, r2, #64	@ 0x40
 800ade8:	60da      	str	r2, [r3, #12]
  huart->gState = HAL_UART_STATE_READY;
 800adea:	2320      	movs	r3, #32
 800adec:	f884 3041 	strb.w	r3, [r4, #65]	@ 0x41
  HAL_UART_TxCpltCallback(huart);
 800adf0:	f7fd fd14 	bl	800881c <HAL_UART_TxCpltCallback>
  return HAL_OK;
 800adf4:	e725      	b.n	800ac42 <HAL_UART_IRQHandler+0xda>
 800adf6:	bf00      	nop
 800adf8:	0800a9d5 	.word	0x0800a9d5

0800adfc <UART_Start_Receive_IT>:
  huart->ErrorCode = HAL_UART_ERROR_NONE;
 800adfc:	2300      	movs	r3, #0
  huart->RxXferCount = Size;
 800adfe:	85c2      	strh	r2, [r0, #46]	@ 0x2e
  huart->ErrorCode = HAL_UART_ERROR_NONE;
 800ae00:	6443      	str	r3, [r0, #68]	@ 0x44
  huart->RxState = HAL_UART_STATE_BUSY_RX;
 800ae02:	2322      	movs	r3, #34	@ 0x22
  huart->RxXferSize = Size;
 800ae04:	8582      	strh	r2, [r0, #44]	@ 0x2c
  if (huart->Init.Parity != UART_PARITY_NONE)
 800ae06:	6902      	ldr	r2, [r0, #16]
  huart->RxState = HAL_UART_STATE_BUSY_RX;
 800ae08:	f880 3042 	strb.w	r3, [r0, #66]	@ 0x42
  huart->pRxBuffPtr = pData;
 800ae0c:	6281      	str	r1, [r0, #40]	@ 0x28
    __HAL_UART_ENABLE_IT(huart, UART_IT_PE);
 800ae0e:	6803      	ldr	r3, [r0, #0]
  if (huart->Init.Parity != UART_PARITY_NONE)
 800ae10:	b11a      	cbz	r2, 800ae1a <UART_Start_Receive_IT+0x1e>
    __HAL_UART_ENABLE_IT(huart, UART_IT_PE);
 800ae12:	68da      	ldr	r2, [r3, #12]
 800ae14:	f442 7280 	orr.w	r2, r2, #256	@ 0x100
 800ae18:	60da      	str	r2, [r3, #12]
  __HAL_UART_ENABLE_IT(huart, UART_IT_ERR);
 800ae1a:	695a      	ldr	r2, [r3, #20]
}
 800ae1c:	2000      	movs	r0, #0
  __HAL_UART_ENABLE_IT(huart, UART_IT_ERR);
 800ae1e:	f042 0201 	orr.w	r2, r2, #1
 800ae22:	615a      	str	r2, [r3, #20]
  __HAL_UART_ENABLE_IT(huart, UART_IT_RXNE);
 800ae24:	68da      	ldr	r2, [r3, #12]
 800ae26:	f042 0220 	orr.w	r2, r2, #32
 800ae2a:	60da      	str	r2, [r3, #12]
}
 800ae2c:	4770      	bx	lr

0800ae2e <HAL_UART_Receive_IT>:
{
 800ae2e:	b470      	push	{r4, r5, r6}
  if (huart->RxState == HAL_UART_STATE_READY)
 800ae30:	f890 6042 	ldrb.w	r6, [r0, #66]	@ 0x42
 800ae34:	2e20      	cmp	r6, #32
 800ae36:	d106      	bne.n	800ae46 <HAL_UART_Receive_IT+0x18>
    if ((pData == NULL) || (Size == 0U))
 800ae38:	b141      	cbz	r1, 800ae4c <HAL_UART_Receive_IT+0x1e>
 800ae3a:	b13a      	cbz	r2, 800ae4c <HAL_UART_Receive_IT+0x1e>
    huart->ReceptionType = HAL_UART_RECEPTION_STANDARD;
 800ae3c:	2400      	movs	r4, #0
 800ae3e:	6304      	str	r4, [r0, #48]	@ 0x30
}
 800ae40:	bc70      	pop	{r4, r5, r6}
    return (UART_Start_Receive_IT(huart, pData, Size));
 800ae42:	f7ff bfdb 	b.w	800adfc <UART_Start_Receive_IT>
    return HAL_BUSY;
 800ae46:	2002      	movs	r0, #2
}
 800ae48:	bc70      	pop	{r4, r5, r6}
 800ae4a:	4770      	bx	lr
      return HAL_ERROR;
 800ae4c:	2001      	movs	r0, #1
 800ae4e:	e7fb      	b.n	800ae48 <HAL_UART_Receive_IT+0x1a>

0800ae50 <std>:
 800ae50:	2300      	movs	r3, #0
 800ae52:	b510      	push	{r4, lr}
 800ae54:	4604      	mov	r4, r0
 800ae56:	e9c0 3300 	strd	r3, r3, [r0]
 800ae5a:	e9c0 3304 	strd	r3, r3, [r0, #16]
 800ae5e:	6083      	str	r3, [r0, #8]
 800ae60:	8181      	strh	r1, [r0, #12]
 800ae62:	6643      	str	r3, [r0, #100]	@ 0x64
 800ae64:	81c2      	strh	r2, [r0, #14]
 800ae66:	6183      	str	r3, [r0, #24]
 800ae68:	4619      	mov	r1, r3
 800ae6a:	2208      	movs	r2, #8
 800ae6c:	305c      	adds	r0, #92	@ 0x5c
 800ae6e:	f000 f9e7 	bl	800b240 <memset>
 800ae72:	4b0d      	ldr	r3, [pc, #52]	@ (800aea8 <std+0x58>)
 800ae74:	6224      	str	r4, [r4, #32]
 800ae76:	6263      	str	r3, [r4, #36]	@ 0x24
 800ae78:	4b0c      	ldr	r3, [pc, #48]	@ (800aeac <std+0x5c>)
 800ae7a:	62a3      	str	r3, [r4, #40]	@ 0x28
 800ae7c:	4b0c      	ldr	r3, [pc, #48]	@ (800aeb0 <std+0x60>)
 800ae7e:	62e3      	str	r3, [r4, #44]	@ 0x2c
 800ae80:	4b0c      	ldr	r3, [pc, #48]	@ (800aeb4 <std+0x64>)
 800ae82:	6323      	str	r3, [r4, #48]	@ 0x30
 800ae84:	4b0c      	ldr	r3, [pc, #48]	@ (800aeb8 <std+0x68>)
 800ae86:	429c      	cmp	r4, r3
 800ae88:	d006      	beq.n	800ae98 <std+0x48>
 800ae8a:	f103 0268 	add.w	r2, r3, #104	@ 0x68
 800ae8e:	4294      	cmp	r4, r2
 800ae90:	d002      	beq.n	800ae98 <std+0x48>
 800ae92:	33d0      	adds	r3, #208	@ 0xd0
 800ae94:	429c      	cmp	r4, r3
 800ae96:	d105      	bne.n	800aea4 <std+0x54>
 800ae98:	f104 0058 	add.w	r0, r4, #88	@ 0x58
 800ae9c:	e8bd 4010 	ldmia.w	sp!, {r4, lr}
 800aea0:	f000 ba46 	b.w	800b330 <__retarget_lock_init_recursive>
 800aea4:	bd10      	pop	{r4, pc}
 800aea6:	bf00      	nop
 800aea8:	0800b091 	.word	0x0800b091
 800aeac:	0800b0b3 	.word	0x0800b0b3
 800aeb0:	0800b0eb 	.word	0x0800b0eb
 800aeb4:	0800b10f 	.word	0x0800b10f
 800aeb8:	20001740 	.word	0x20001740

0800aebc <stdio_exit_handler>:
 800aebc:	4a02      	ldr	r2, [pc, #8]	@ (800aec8 <stdio_exit_handler+0xc>)
 800aebe:	4903      	ldr	r1, [pc, #12]	@ (800aecc <stdio_exit_handler+0x10>)
 800aec0:	4803      	ldr	r0, [pc, #12]	@ (800aed0 <stdio_exit_handler+0x14>)
 800aec2:	f000 b869 	b.w	800af98 <_fwalk_sglue>
 800aec6:	bf00      	nop
 800aec8:	20000014 	.word	0x20000014
 800aecc:	0800b625 	.word	0x0800b625
 800aed0:	20000024 	.word	0x20000024

0800aed4 <cleanup_stdio>:
 800aed4:	6841      	ldr	r1, [r0, #4]
 800aed6:	4b0c      	ldr	r3, [pc, #48]	@ (800af08 <cleanup_stdio+0x34>)
 800aed8:	b510      	push	{r4, lr}
 800aeda:	4299      	cmp	r1, r3
 800aedc:	4604      	mov	r4, r0
 800aede:	d001      	beq.n	800aee4 <cleanup_stdio+0x10>
 800aee0:	f000 fba0 	bl	800b624 <_fflush_r>
 800aee4:	68a1      	ldr	r1, [r4, #8]
 800aee6:	4b09      	ldr	r3, [pc, #36]	@ (800af0c <cleanup_stdio+0x38>)
 800aee8:	4299      	cmp	r1, r3
 800aeea:	d002      	beq.n	800aef2 <cleanup_stdio+0x1e>
 800aeec:	4620      	mov	r0, r4
 800aeee:	f000 fb99 	bl	800b624 <_fflush_r>
 800aef2:	68e1      	ldr	r1, [r4, #12]
 800aef4:	4b06      	ldr	r3, [pc, #24]	@ (800af10 <cleanup_stdio+0x3c>)
 800aef6:	4299      	cmp	r1, r3
 800aef8:	d004      	beq.n	800af04 <cleanup_stdio+0x30>
 800aefa:	4620      	mov	r0, r4
 800aefc:	e8bd 4010 	ldmia.w	sp!, {r4, lr}
 800af00:	f000 bb90 	b.w	800b624 <_fflush_r>
 800af04:	bd10      	pop	{r4, pc}
 800af06:	bf00      	nop
 800af08:	20001740 	.word	0x20001740
 800af0c:	200017a8 	.word	0x200017a8
 800af10:	20001810 	.word	0x20001810

0800af14 <global_stdio_init.part.0>:
 800af14:	b510      	push	{r4, lr}
 800af16:	4b0b      	ldr	r3, [pc, #44]	@ (800af44 <global_stdio_init.part.0+0x30>)
 800af18:	4c0b      	ldr	r4, [pc, #44]	@ (800af48 <global_stdio_init.part.0+0x34>)
 800af1a:	4a0c      	ldr	r2, [pc, #48]	@ (800af4c <global_stdio_init.part.0+0x38>)
 800af1c:	4620      	mov	r0, r4
 800af1e:	601a      	str	r2, [r3, #0]
 800af20:	2104      	movs	r1, #4
 800af22:	2200      	movs	r2, #0
 800af24:	f7ff ff94 	bl	800ae50 <std>
 800af28:	f104 0068 	add.w	r0, r4, #104	@ 0x68
 800af2c:	2201      	movs	r2, #1
 800af2e:	2109      	movs	r1, #9
 800af30:	f7ff ff8e 	bl	800ae50 <std>
 800af34:	f104 00d0 	add.w	r0, r4, #208	@ 0xd0
 800af38:	2202      	movs	r2, #2
 800af3a:	e8bd 4010 	ldmia.w	sp!, {r4, lr}
 800af3e:	2112      	movs	r1, #18
 800af40:	f7ff bf86 	b.w	800ae50 <std>
 800af44:	20001878 	.word	0x20001878
 800af48:	20001740 	.word	0x20001740
 800af4c:	0800aebd 	.word	0x0800aebd

0800af50 <__sfp_lock_acquire>:
 800af50:	4801      	ldr	r0, [pc, #4]	@ (800af58 <__sfp_lock_acquire+0x8>)
 800af52:	f000 b9ee 	b.w	800b332 <__retarget_lock_acquire_recursive>
 800af56:	bf00      	nop
 800af58:	20001881 	.word	0x20001881

0800af5c <__sfp_lock_release>:
 800af5c:	4801      	ldr	r0, [pc, #4]	@ (800af64 <__sfp_lock_release+0x8>)
 800af5e:	f000 b9e9 	b.w	800b334 <__retarget_lock_release_recursive>
 800af62:	bf00      	nop
 800af64:	20001881 	.word	0x20001881

0800af68 <__sinit>:
 800af68:	b510      	push	{r4, lr}
 800af6a:	4604      	mov	r4, r0
 800af6c:	f7ff fff0 	bl	800af50 <__sfp_lock_acquire>
 800af70:	6a23      	ldr	r3, [r4, #32]
 800af72:	b11b      	cbz	r3, 800af7c <__sinit+0x14>
 800af74:	e8bd 4010 	ldmia.w	sp!, {r4, lr}
 800af78:	f7ff bff0 	b.w	800af5c <__sfp_lock_release>
 800af7c:	4b04      	ldr	r3, [pc, #16]	@ (800af90 <__sinit+0x28>)
 800af7e:	6223      	str	r3, [r4, #32]
 800af80:	4b04      	ldr	r3, [pc, #16]	@ (800af94 <__sinit+0x2c>)
 800af82:	681b      	ldr	r3, [r3, #0]
 800af84:	2b00      	cmp	r3, #0
 800af86:	d1f5      	bne.n	800af74 <__sinit+0xc>
 800af88:	f7ff ffc4 	bl	800af14 <global_stdio_init.part.0>
 800af8c:	e7f2      	b.n	800af74 <__sinit+0xc>
 800af8e:	bf00      	nop
 800af90:	0800aed5 	.word	0x0800aed5
 800af94:	20001878 	.word	0x20001878

0800af98 <_fwalk_sglue>:
 800af98:	e92d 43f8 	stmdb	sp!, {r3, r4, r5, r6, r7, r8, r9, lr}
 800af9c:	4607      	mov	r7, r0
 800af9e:	4688      	mov	r8, r1
 800afa0:	4614      	mov	r4, r2
 800afa2:	2600      	movs	r6, #0
 800afa4:	e9d4 9501 	ldrd	r9, r5, [r4, #4]
 800afa8:	f1b9 0901 	subs.w	r9, r9, #1
 800afac:	d505      	bpl.n	800afba <_fwalk_sglue+0x22>
 800afae:	6824      	ldr	r4, [r4, #0]
 800afb0:	2c00      	cmp	r4, #0
 800afb2:	d1f7      	bne.n	800afa4 <_fwalk_sglue+0xc>
 800afb4:	4630      	mov	r0, r6
 800afb6:	e8bd 83f8 	ldmia.w	sp!, {r3, r4, r5, r6, r7, r8, r9, pc}
 800afba:	89ab      	ldrh	r3, [r5, #12]
 800afbc:	2b01      	cmp	r3, #1
 800afbe:	d907      	bls.n	800afd0 <_fwalk_sglue+0x38>
 800afc0:	f9b5 300e 	ldrsh.w	r3, [r5, #14]
 800afc4:	3301      	adds	r3, #1
 800afc6:	d003      	beq.n	800afd0 <_fwalk_sglue+0x38>
 800afc8:	4629      	mov	r1, r5
 800afca:	4638      	mov	r0, r7
 800afcc:	47c0      	blx	r8
 800afce:	4306      	orrs	r6, r0
 800afd0:	3568      	adds	r5, #104	@ 0x68
 800afd2:	e7e9      	b.n	800afa8 <_fwalk_sglue+0x10>

0800afd4 <_puts_r>:
 800afd4:	6a03      	ldr	r3, [r0, #32]
 800afd6:	b570      	push	{r4, r5, r6, lr}
 800afd8:	4605      	mov	r5, r0
 800afda:	460e      	mov	r6, r1
 800afdc:	6884      	ldr	r4, [r0, #8]
 800afde:	b90b      	cbnz	r3, 800afe4 <_puts_r+0x10>
 800afe0:	f7ff ffc2 	bl	800af68 <__sinit>
 800afe4:	6e63      	ldr	r3, [r4, #100]	@ 0x64
 800afe6:	07db      	lsls	r3, r3, #31
 800afe8:	d405      	bmi.n	800aff6 <_puts_r+0x22>
 800afea:	89a3      	ldrh	r3, [r4, #12]
 800afec:	0598      	lsls	r0, r3, #22
 800afee:	d402      	bmi.n	800aff6 <_puts_r+0x22>
 800aff0:	6da0      	ldr	r0, [r4, #88]	@ 0x58
 800aff2:	f000 f99e 	bl	800b332 <__retarget_lock_acquire_recursive>
 800aff6:	89a3      	ldrh	r3, [r4, #12]
 800aff8:	0719      	lsls	r1, r3, #28
 800affa:	d502      	bpl.n	800b002 <_puts_r+0x2e>
 800affc:	6923      	ldr	r3, [r4, #16]
 800affe:	2b00      	cmp	r3, #0
 800b000:	d135      	bne.n	800b06e <_puts_r+0x9a>
 800b002:	4621      	mov	r1, r4
 800b004:	4628      	mov	r0, r5
 800b006:	f000 f8c5 	bl	800b194 <__swsetup_r>
 800b00a:	b380      	cbz	r0, 800b06e <_puts_r+0x9a>
 800b00c:	f04f 35ff 	mov.w	r5, #4294967295
 800b010:	6e63      	ldr	r3, [r4, #100]	@ 0x64
 800b012:	07da      	lsls	r2, r3, #31
 800b014:	d405      	bmi.n	800b022 <_puts_r+0x4e>
 800b016:	89a3      	ldrh	r3, [r4, #12]
 800b018:	059b      	lsls	r3, r3, #22
 800b01a:	d402      	bmi.n	800b022 <_puts_r+0x4e>
 800b01c:	6da0      	ldr	r0, [r4, #88]	@ 0x58
 800b01e:	f000 f989 	bl	800b334 <__retarget_lock_release_recursive>
 800b022:	4628      	mov	r0, r5
 800b024:	bd70      	pop	{r4, r5, r6, pc}
 800b026:	2b00      	cmp	r3, #0
 800b028:	da04      	bge.n	800b034 <_puts_r+0x60>
 800b02a:	69a2      	ldr	r2, [r4, #24]
 800b02c:	429a      	cmp	r2, r3
 800b02e:	dc17      	bgt.n	800b060 <_puts_r+0x8c>
 800b030:	290a      	cmp	r1, #10
 800b032:	d015      	beq.n	800b060 <_puts_r+0x8c>
 800b034:	6823      	ldr	r3, [r4, #0]
 800b036:	1c5a      	adds	r2, r3, #1
 800b038:	6022      	str	r2, [r4, #0]
 800b03a:	7019      	strb	r1, [r3, #0]
 800b03c:	68a3      	ldr	r3, [r4, #8]
 800b03e:	f816 1f01 	ldrb.w	r1, [r6, #1]!
 800b042:	3b01      	subs	r3, #1
 800b044:	60a3      	str	r3, [r4, #8]
 800b046:	2900      	cmp	r1, #0
 800b048:	d1ed      	bne.n	800b026 <_puts_r+0x52>
 800b04a:	2b00      	cmp	r3, #0
 800b04c:	da11      	bge.n	800b072 <_puts_r+0x9e>
 800b04e:	4622      	mov	r2, r4
 800b050:	210a      	movs	r1, #10
 800b052:	4628      	mov	r0, r5
 800b054:	f000 f85f 	bl	800b116 <__swbuf_r>
 800b058:	3001      	adds	r0, #1
 800b05a:	d0d7      	beq.n	800b00c <_puts_r+0x38>
 800b05c:	250a      	movs	r5, #10
 800b05e:	e7d7      	b.n	800b010 <_puts_r+0x3c>
 800b060:	4622      	mov	r2, r4
 800b062:	4628      	mov	r0, r5
 800b064:	f000 f857 	bl	800b116 <__swbuf_r>
 800b068:	3001      	adds	r0, #1
 800b06a:	d1e7      	bne.n	800b03c <_puts_r+0x68>
 800b06c:	e7ce      	b.n	800b00c <_puts_r+0x38>
 800b06e:	3e01      	subs	r6, #1
 800b070:	e7e4      	b.n	800b03c <_puts_r+0x68>
 800b072:	6823      	ldr	r3, [r4, #0]
 800b074:	1c5a      	adds	r2, r3, #1
 800b076:	6022      	str	r2, [r4, #0]
 800b078:	220a      	movs	r2, #10
 800b07a:	701a      	strb	r2, [r3, #0]
 800b07c:	e7ee      	b.n	800b05c <_puts_r+0x88>
	...

0800b080 <puts>:
 800b080:	4b02      	ldr	r3, [pc, #8]	@ (800b08c <puts+0xc>)
 800b082:	4601      	mov	r1, r0
 800b084:	6818      	ldr	r0, [r3, #0]
 800b086:	f7ff bfa5 	b.w	800afd4 <_puts_r>
 800b08a:	bf00      	nop
 800b08c:	20000020 	.word	0x20000020

0800b090 <__sread>:
 800b090:	b510      	push	{r4, lr}
 800b092:	460c      	mov	r4, r1
 800b094:	f9b1 100e 	ldrsh.w	r1, [r1, #14]
 800b098:	f000 f8fc 	bl	800b294 <_read_r>
 800b09c:	2800      	cmp	r0, #0
 800b09e:	bfab      	itete	ge
 800b0a0:	6d63      	ldrge	r3, [r4, #84]	@ 0x54
 800b0a2:	89a3      	ldrhlt	r3, [r4, #12]
 800b0a4:	181b      	addge	r3, r3, r0
 800b0a6:	f423 5380 	biclt.w	r3, r3, #4096	@ 0x1000
 800b0aa:	bfac      	ite	ge
 800b0ac:	6563      	strge	r3, [r4, #84]	@ 0x54
 800b0ae:	81a3      	strhlt	r3, [r4, #12]
 800b0b0:	bd10      	pop	{r4, pc}

0800b0b2 <__swrite>:
 800b0b2:	e92d 41f0 	stmdb	sp!, {r4, r5, r6, r7, r8, lr}
 800b0b6:	461f      	mov	r7, r3
 800b0b8:	898b      	ldrh	r3, [r1, #12]
 800b0ba:	4605      	mov	r5, r0
 800b0bc:	05db      	lsls	r3, r3, #23
 800b0be:	460c      	mov	r4, r1
 800b0c0:	4616      	mov	r6, r2
 800b0c2:	d505      	bpl.n	800b0d0 <__swrite+0x1e>
 800b0c4:	2302      	movs	r3, #2
 800b0c6:	2200      	movs	r2, #0
 800b0c8:	f9b1 100e 	ldrsh.w	r1, [r1, #14]
 800b0cc:	f000 f8d0 	bl	800b270 <_lseek_r>
 800b0d0:	89a3      	ldrh	r3, [r4, #12]
 800b0d2:	4632      	mov	r2, r6
 800b0d4:	f423 5380 	bic.w	r3, r3, #4096	@ 0x1000
 800b0d8:	81a3      	strh	r3, [r4, #12]
 800b0da:	4628      	mov	r0, r5
 800b0dc:	463b      	mov	r3, r7
 800b0de:	f9b4 100e 	ldrsh.w	r1, [r4, #14]
 800b0e2:	e8bd 41f0 	ldmia.w	sp!, {r4, r5, r6, r7, r8, lr}
 800b0e6:	f000 b8e7 	b.w	800b2b8 <_write_r>

0800b0ea <__sseek>:
 800b0ea:	b510      	push	{r4, lr}
 800b0ec:	460c      	mov	r4, r1
 800b0ee:	f9b1 100e 	ldrsh.w	r1, [r1, #14]
 800b0f2:	f000 f8bd 	bl	800b270 <_lseek_r>
 800b0f6:	1c43      	adds	r3, r0, #1
 800b0f8:	89a3      	ldrh	r3, [r4, #12]
 800b0fa:	bf15      	itete	ne
 800b0fc:	6560      	strne	r0, [r4, #84]	@ 0x54
 800b0fe:	f423 5380 	biceq.w	r3, r3, #4096	@ 0x1000
 800b102:	f443 5380 	orrne.w	r3, r3, #4096	@ 0x1000
 800b106:	81a3      	strheq	r3, [r4, #12]
 800b108:	bf18      	it	ne
 800b10a:	81a3      	strhne	r3, [r4, #12]
 800b10c:	bd10      	pop	{r4, pc}

0800b10e <__sclose>:
 800b10e:	f9b1 100e 	ldrsh.w	r1, [r1, #14]
 800b112:	f000 b89d 	b.w	800b250 <_close_r>

0800b116 <__swbuf_r>:
 800b116:	b5f8      	push	{r3, r4, r5, r6, r7, lr}
 800b118:	460e      	mov	r6, r1
 800b11a:	4614      	mov	r4, r2
 800b11c:	4605      	mov	r5, r0
 800b11e:	b118      	cbz	r0, 800b128 <__swbuf_r+0x12>
 800b120:	6a03      	ldr	r3, [r0, #32]
 800b122:	b90b      	cbnz	r3, 800b128 <__swbuf_r+0x12>
 800b124:	f7ff ff20 	bl	800af68 <__sinit>
 800b128:	69a3      	ldr	r3, [r4, #24]
 800b12a:	60a3      	str	r3, [r4, #8]
 800b12c:	89a3      	ldrh	r3, [r4, #12]
 800b12e:	071a      	lsls	r2, r3, #28
 800b130:	d501      	bpl.n	800b136 <__swbuf_r+0x20>
 800b132:	6923      	ldr	r3, [r4, #16]
 800b134:	b943      	cbnz	r3, 800b148 <__swbuf_r+0x32>
 800b136:	4621      	mov	r1, r4
 800b138:	4628      	mov	r0, r5
 800b13a:	f000 f82b 	bl	800b194 <__swsetup_r>
 800b13e:	b118      	cbz	r0, 800b148 <__swbuf_r+0x32>
 800b140:	f04f 37ff 	mov.w	r7, #4294967295
 800b144:	4638      	mov	r0, r7
 800b146:	bdf8      	pop	{r3, r4, r5, r6, r7, pc}
 800b148:	6823      	ldr	r3, [r4, #0]
 800b14a:	6922      	ldr	r2, [r4, #16]
 800b14c:	b2f6      	uxtb	r6, r6
 800b14e:	1a98      	subs	r0, r3, r2
 800b150:	6963      	ldr	r3, [r4, #20]
 800b152:	4637      	mov	r7, r6
 800b154:	4283      	cmp	r3, r0
 800b156:	dc05      	bgt.n	800b164 <__swbuf_r+0x4e>
 800b158:	4621      	mov	r1, r4
 800b15a:	4628      	mov	r0, r5
 800b15c:	f000 fa62 	bl	800b624 <_fflush_r>
 800b160:	2800      	cmp	r0, #0
 800b162:	d1ed      	bne.n	800b140 <__swbuf_r+0x2a>
 800b164:	68a3      	ldr	r3, [r4, #8]
 800b166:	3b01      	subs	r3, #1
 800b168:	60a3      	str	r3, [r4, #8]
 800b16a:	6823      	ldr	r3, [r4, #0]
 800b16c:	1c5a      	adds	r2, r3, #1
 800b16e:	6022      	str	r2, [r4, #0]
 800b170:	701e      	strb	r6, [r3, #0]
 800b172:	6962      	ldr	r2, [r4, #20]
 800b174:	1c43      	adds	r3, r0, #1
 800b176:	429a      	cmp	r2, r3
 800b178:	d004      	beq.n	800b184 <__swbuf_r+0x6e>
 800b17a:	89a3      	ldrh	r3, [r4, #12]
 800b17c:	07db      	lsls	r3, r3, #31
 800b17e:	d5e1      	bpl.n	800b144 <__swbuf_r+0x2e>
 800b180:	2e0a      	cmp	r6, #10
 800b182:	d1df      	bne.n	800b144 <__swbuf_r+0x2e>
 800b184:	4621      	mov	r1, r4
 800b186:	4628      	mov	r0, r5
 800b188:	f000 fa4c 	bl	800b624 <_fflush_r>
 800b18c:	2800      	cmp	r0, #0
 800b18e:	d0d9      	beq.n	800b144 <__swbuf_r+0x2e>
 800b190:	e7d6      	b.n	800b140 <__swbuf_r+0x2a>
	...

0800b194 <__swsetup_r>:
 800b194:	b538      	push	{r3, r4, r5, lr}
 800b196:	4b29      	ldr	r3, [pc, #164]	@ (800b23c <__swsetup_r+0xa8>)
 800b198:	4605      	mov	r5, r0
 800b19a:	6818      	ldr	r0, [r3, #0]
 800b19c:	460c      	mov	r4, r1
 800b19e:	b118      	cbz	r0, 800b1a8 <__swsetup_r+0x14>
 800b1a0:	6a03      	ldr	r3, [r0, #32]
 800b1a2:	b90b      	cbnz	r3, 800b1a8 <__swsetup_r+0x14>
 800b1a4:	f7ff fee0 	bl	800af68 <__sinit>
 800b1a8:	f9b4 300c 	ldrsh.w	r3, [r4, #12]
 800b1ac:	0719      	lsls	r1, r3, #28
 800b1ae:	d422      	bmi.n	800b1f6 <__swsetup_r+0x62>
 800b1b0:	06da      	lsls	r2, r3, #27
 800b1b2:	d407      	bmi.n	800b1c4 <__swsetup_r+0x30>
 800b1b4:	2209      	movs	r2, #9
 800b1b6:	602a      	str	r2, [r5, #0]
 800b1b8:	f043 0340 	orr.w	r3, r3, #64	@ 0x40
 800b1bc:	f04f 30ff 	mov.w	r0, #4294967295
 800b1c0:	81a3      	strh	r3, [r4, #12]
 800b1c2:	e033      	b.n	800b22c <__swsetup_r+0x98>
 800b1c4:	0758      	lsls	r0, r3, #29
 800b1c6:	d512      	bpl.n	800b1ee <__swsetup_r+0x5a>
 800b1c8:	6b61      	ldr	r1, [r4, #52]	@ 0x34
 800b1ca:	b141      	cbz	r1, 800b1de <__swsetup_r+0x4a>
 800b1cc:	f104 0344 	add.w	r3, r4, #68	@ 0x44
 800b1d0:	4299      	cmp	r1, r3
 800b1d2:	d002      	beq.n	800b1da <__swsetup_r+0x46>
 800b1d4:	4628      	mov	r0, r5
 800b1d6:	f000 f8af 	bl	800b338 <_free_r>
 800b1da:	2300      	movs	r3, #0
 800b1dc:	6363      	str	r3, [r4, #52]	@ 0x34
 800b1de:	89a3      	ldrh	r3, [r4, #12]
 800b1e0:	f023 0324 	bic.w	r3, r3, #36	@ 0x24
 800b1e4:	81a3      	strh	r3, [r4, #12]
 800b1e6:	2300      	movs	r3, #0
 800b1e8:	6063      	str	r3, [r4, #4]
 800b1ea:	6923      	ldr	r3, [r4, #16]
 800b1ec:	6023      	str	r3, [r4, #0]
 800b1ee:	89a3      	ldrh	r3, [r4, #12]
 800b1f0:	f043 0308 	orr.w	r3, r3, #8
 800b1f4:	81a3      	strh	r3, [r4, #12]
 800b1f6:	6923      	ldr	r3, [r4, #16]
 800b1f8:	b94b      	cbnz	r3, 800b20e <__swsetup_r+0x7a>
 800b1fa:	89a3      	ldrh	r3, [r4, #12]
 800b1fc:	f403 7320 	and.w	r3, r3, #640	@ 0x280
 800b200:	f5b3 7f00 	cmp.w	r3, #512	@ 0x200
 800b204:	d003      	beq.n	800b20e <__swsetup_r+0x7a>
 800b206:	4621      	mov	r1, r4
 800b208:	4628      	mov	r0, r5
 800b20a:	f000 fa58 	bl	800b6be <__smakebuf_r>
 800b20e:	f9b4 300c 	ldrsh.w	r3, [r4, #12]
 800b212:	f013 0201 	ands.w	r2, r3, #1
 800b216:	d00a      	beq.n	800b22e <__swsetup_r+0x9a>
 800b218:	2200      	movs	r2, #0
 800b21a:	60a2      	str	r2, [r4, #8]
 800b21c:	6962      	ldr	r2, [r4, #20]
 800b21e:	4252      	negs	r2, r2
 800b220:	61a2      	str	r2, [r4, #24]
 800b222:	6922      	ldr	r2, [r4, #16]
 800b224:	b942      	cbnz	r2, 800b238 <__swsetup_r+0xa4>
 800b226:	f013 0080 	ands.w	r0, r3, #128	@ 0x80
 800b22a:	d1c5      	bne.n	800b1b8 <__swsetup_r+0x24>
 800b22c:	bd38      	pop	{r3, r4, r5, pc}
 800b22e:	0799      	lsls	r1, r3, #30
 800b230:	bf58      	it	pl
 800b232:	6962      	ldrpl	r2, [r4, #20]
 800b234:	60a2      	str	r2, [r4, #8]
 800b236:	e7f4      	b.n	800b222 <__swsetup_r+0x8e>
 800b238:	2000      	movs	r0, #0
 800b23a:	e7f7      	b.n	800b22c <__swsetup_r+0x98>
 800b23c:	20000020 	.word	0x20000020

0800b240 <memset>:
 800b240:	4603      	mov	r3, r0
 800b242:	4402      	add	r2, r0
 800b244:	4293      	cmp	r3, r2
 800b246:	d100      	bne.n	800b24a <memset+0xa>
 800b248:	4770      	bx	lr
 800b24a:	f803 1b01 	strb.w	r1, [r3], #1
 800b24e:	e7f9      	b.n	800b244 <memset+0x4>

0800b250 <_close_r>:
 800b250:	b538      	push	{r3, r4, r5, lr}
 800b252:	2300      	movs	r3, #0
 800b254:	4d05      	ldr	r5, [pc, #20]	@ (800b26c <_close_r+0x1c>)
 800b256:	4604      	mov	r4, r0
 800b258:	4608      	mov	r0, r1
 800b25a:	602b      	str	r3, [r5, #0]
 800b25c:	f7fc ff7a 	bl	8008154 <_close>
 800b260:	1c43      	adds	r3, r0, #1
 800b262:	d102      	bne.n	800b26a <_close_r+0x1a>
 800b264:	682b      	ldr	r3, [r5, #0]
 800b266:	b103      	cbz	r3, 800b26a <_close_r+0x1a>
 800b268:	6023      	str	r3, [r4, #0]
 800b26a:	bd38      	pop	{r3, r4, r5, pc}
 800b26c:	2000187c 	.word	0x2000187c

0800b270 <_lseek_r>:
 800b270:	b538      	push	{r3, r4, r5, lr}
 800b272:	4604      	mov	r4, r0
 800b274:	4608      	mov	r0, r1
 800b276:	4611      	mov	r1, r2
 800b278:	2200      	movs	r2, #0
 800b27a:	4d05      	ldr	r5, [pc, #20]	@ (800b290 <_lseek_r+0x20>)
 800b27c:	602a      	str	r2, [r5, #0]
 800b27e:	461a      	mov	r2, r3
 800b280:	f7fc ff72 	bl	8008168 <_lseek>
 800b284:	1c43      	adds	r3, r0, #1
 800b286:	d102      	bne.n	800b28e <_lseek_r+0x1e>
 800b288:	682b      	ldr	r3, [r5, #0]
 800b28a:	b103      	cbz	r3, 800b28e <_lseek_r+0x1e>
 800b28c:	6023      	str	r3, [r4, #0]
 800b28e:	bd38      	pop	{r3, r4, r5, pc}
 800b290:	2000187c 	.word	0x2000187c

0800b294 <_read_r>:
 800b294:	b538      	push	{r3, r4, r5, lr}
 800b296:	4604      	mov	r4, r0
 800b298:	4608      	mov	r0, r1
 800b29a:	4611      	mov	r1, r2
 800b29c:	2200      	movs	r2, #0
 800b29e:	4d05      	ldr	r5, [pc, #20]	@ (800b2b4 <_read_r+0x20>)
 800b2a0:	602a      	str	r2, [r5, #0]
 800b2a2:	461a      	mov	r2, r3
 800b2a4:	f7fc ff3a 	bl	800811c <_read>
 800b2a8:	1c43      	adds	r3, r0, #1
 800b2aa:	d102      	bne.n	800b2b2 <_read_r+0x1e>
 800b2ac:	682b      	ldr	r3, [r5, #0]
 800b2ae:	b103      	cbz	r3, 800b2b2 <_read_r+0x1e>
 800b2b0:	6023      	str	r3, [r4, #0]
 800b2b2:	bd38      	pop	{r3, r4, r5, pc}
 800b2b4:	2000187c 	.word	0x2000187c

0800b2b8 <_write_r>:
 800b2b8:	b538      	push	{r3, r4, r5, lr}
 800b2ba:	4604      	mov	r4, r0
 800b2bc:	4608      	mov	r0, r1
 800b2be:	4611      	mov	r1, r2
 800b2c0:	2200      	movs	r2, #0
 800b2c2:	4d05      	ldr	r5, [pc, #20]	@ (800b2d8 <_write_r+0x20>)
 800b2c4:	602a      	str	r2, [r5, #0]
 800b2c6:	461a      	mov	r2, r3
 800b2c8:	f7fc ff36 	bl	8008138 <_write>
 800b2cc:	1c43      	adds	r3, r0, #1
 800b2ce:	d102      	bne.n	800b2d6 <_write_r+0x1e>
 800b2d0:	682b      	ldr	r3, [r5, #0]
 800b2d2:	b103      	cbz	r3, 800b2d6 <_write_r+0x1e>
 800b2d4:	6023      	str	r3, [r4, #0]
 800b2d6:	bd38      	pop	{r3, r4, r5, pc}
 800b2d8:	2000187c 	.word	0x2000187c

0800b2dc <__errno>:
 800b2dc:	4b01      	ldr	r3, [pc, #4]	@ (800b2e4 <__errno+0x8>)
 800b2de:	6818      	ldr	r0, [r3, #0]
 800b2e0:	4770      	bx	lr
 800b2e2:	bf00      	nop
 800b2e4:	20000020 	.word	0x20000020

0800b2e8 <__libc_init_array>:
 800b2e8:	b570      	push	{r4, r5, r6, lr}
 800b2ea:	2600      	movs	r6, #0
 800b2ec:	4d0c      	ldr	r5, [pc, #48]	@ (800b320 <__libc_init_array+0x38>)
 800b2ee:	4c0d      	ldr	r4, [pc, #52]	@ (800b324 <__libc_init_array+0x3c>)
 800b2f0:	1b64      	subs	r4, r4, r5
 800b2f2:	10a4      	asrs	r4, r4, #2
 800b2f4:	42a6      	cmp	r6, r4
 800b2f6:	d109      	bne.n	800b30c <__libc_init_array+0x24>
 800b2f8:	f000 fc3c 	bl	800bb74 <_init>
 800b2fc:	2600      	movs	r6, #0
 800b2fe:	4d0a      	ldr	r5, [pc, #40]	@ (800b328 <__libc_init_array+0x40>)
 800b300:	4c0a      	ldr	r4, [pc, #40]	@ (800b32c <__libc_init_array+0x44>)
 800b302:	1b64      	subs	r4, r4, r5
 800b304:	10a4      	asrs	r4, r4, #2
 800b306:	42a6      	cmp	r6, r4
 800b308:	d105      	bne.n	800b316 <__libc_init_array+0x2e>
 800b30a:	bd70      	pop	{r4, r5, r6, pc}
 800b30c:	f855 3b04 	ldr.w	r3, [r5], #4
 800b310:	4798      	blx	r3
 800b312:	3601      	adds	r6, #1
 800b314:	e7ee      	b.n	800b2f4 <__libc_init_array+0xc>
 800b316:	f855 3b04 	ldr.w	r3, [r5], #4
 800b31a:	4798      	blx	r3
 800b31c:	3601      	adds	r6, #1
 800b31e:	e7f2      	b.n	800b306 <__libc_init_array+0x1e>
 800b320:	0800bbfc 	.word	0x0800bbfc
 800b324:	0800bbfc 	.word	0x0800bbfc
 800b328:	0800bbfc 	.word	0x0800bbfc
 800b32c:	0800bc00 	.word	0x0800bc00

0800b330 <__retarget_lock_init_recursive>:
 800b330:	4770      	bx	lr

0800b332 <__retarget_lock_acquire_recursive>:
 800b332:	4770      	bx	lr

0800b334 <__retarget_lock_release_recursive>:
 800b334:	4770      	bx	lr
	...

0800b338 <_free_r>:
 800b338:	b538      	push	{r3, r4, r5, lr}
 800b33a:	4605      	mov	r5, r0
 800b33c:	2900      	cmp	r1, #0
 800b33e:	d040      	beq.n	800b3c2 <_free_r+0x8a>
 800b340:	f851 3c04 	ldr.w	r3, [r1, #-4]
 800b344:	1f0c      	subs	r4, r1, #4
 800b346:	2b00      	cmp	r3, #0
 800b348:	bfb8      	it	lt
 800b34a:	18e4      	addlt	r4, r4, r3
 800b34c:	f000 f8de 	bl	800b50c <__malloc_lock>
 800b350:	4a1c      	ldr	r2, [pc, #112]	@ (800b3c4 <_free_r+0x8c>)
 800b352:	6813      	ldr	r3, [r2, #0]
 800b354:	b933      	cbnz	r3, 800b364 <_free_r+0x2c>
 800b356:	6063      	str	r3, [r4, #4]
 800b358:	6014      	str	r4, [r2, #0]
 800b35a:	4628      	mov	r0, r5
 800b35c:	e8bd 4038 	ldmia.w	sp!, {r3, r4, r5, lr}
 800b360:	f000 b8da 	b.w	800b518 <__malloc_unlock>
 800b364:	42a3      	cmp	r3, r4
 800b366:	d908      	bls.n	800b37a <_free_r+0x42>
 800b368:	6820      	ldr	r0, [r4, #0]
 800b36a:	1821      	adds	r1, r4, r0
 800b36c:	428b      	cmp	r3, r1
 800b36e:	bf01      	itttt	eq
 800b370:	6819      	ldreq	r1, [r3, #0]
 800b372:	685b      	ldreq	r3, [r3, #4]
 800b374:	1809      	addeq	r1, r1, r0
 800b376:	6021      	streq	r1, [r4, #0]
 800b378:	e7ed      	b.n	800b356 <_free_r+0x1e>
 800b37a:	461a      	mov	r2, r3
 800b37c:	685b      	ldr	r3, [r3, #4]
 800b37e:	b10b      	cbz	r3, 800b384 <_free_r+0x4c>
 800b380:	42a3      	cmp	r3, r4
 800b382:	d9fa      	bls.n	800b37a <_free_r+0x42>
 800b384:	6811      	ldr	r1, [r2, #0]
 800b386:	1850      	adds	r0, r2, r1
 800b388:	42a0      	cmp	r0, r4
 800b38a:	d10b      	bne.n	800b3a4 <_free_r+0x6c>
 800b38c:	6820      	ldr	r0, [r4, #0]
 800b38e:	4401      	add	r1, r0
 800b390:	1850      	adds	r0, r2, r1
 800b392:	4283      	cmp	r3, r0
 800b394:	6011      	str	r1, [r2, #0]
 800b396:	d1e0      	bne.n	800b35a <_free_r+0x22>
 800b398:	6818      	ldr	r0, [r3, #0]
 800b39a:	685b      	ldr	r3, [r3, #4]
 800b39c:	4408      	add	r0, r1
 800b39e:	6010      	str	r0, [r2, #0]
 800b3a0:	6053      	str	r3, [r2, #4]
 800b3a2:	e7da      	b.n	800b35a <_free_r+0x22>
 800b3a4:	d902      	bls.n	800b3ac <_free_r+0x74>
 800b3a6:	230c      	movs	r3, #12
 800b3a8:	602b      	str	r3, [r5, #0]
 800b3aa:	e7d6      	b.n	800b35a <_free_r+0x22>
 800b3ac:	6820      	ldr	r0, [r4, #0]
 800b3ae:	1821      	adds	r1, r4, r0
 800b3b0:	428b      	cmp	r3, r1
 800b3b2:	bf01      	itttt	eq
 800b3b4:	6819      	ldreq	r1, [r3, #0]
 800b3b6:	685b      	ldreq	r3, [r3, #4]
 800b3b8:	1809      	addeq	r1, r1, r0
 800b3ba:	6021      	streq	r1, [r4, #0]
 800b3bc:	6063      	str	r3, [r4, #4]
 800b3be:	6054      	str	r4, [r2, #4]
 800b3c0:	e7cb      	b.n	800b35a <_free_r+0x22>
 800b3c2:	bd38      	pop	{r3, r4, r5, pc}
 800b3c4:	20001888 	.word	0x20001888

0800b3c8 <sbrk_aligned>:
 800b3c8:	b570      	push	{r4, r5, r6, lr}
 800b3ca:	4e0f      	ldr	r6, [pc, #60]	@ (800b408 <sbrk_aligned+0x40>)
 800b3cc:	460c      	mov	r4, r1
 800b3ce:	6831      	ldr	r1, [r6, #0]
 800b3d0:	4605      	mov	r5, r0
 800b3d2:	b911      	cbnz	r1, 800b3da <sbrk_aligned+0x12>
 800b3d4:	f000 f9d2 	bl	800b77c <_sbrk_r>
 800b3d8:	6030      	str	r0, [r6, #0]
 800b3da:	4621      	mov	r1, r4
 800b3dc:	4628      	mov	r0, r5
 800b3de:	f000 f9cd 	bl	800b77c <_sbrk_r>
 800b3e2:	1c43      	adds	r3, r0, #1
 800b3e4:	d103      	bne.n	800b3ee <sbrk_aligned+0x26>
 800b3e6:	f04f 34ff 	mov.w	r4, #4294967295
 800b3ea:	4620      	mov	r0, r4
 800b3ec:	bd70      	pop	{r4, r5, r6, pc}
 800b3ee:	1cc4      	adds	r4, r0, #3
 800b3f0:	f024 0403 	bic.w	r4, r4, #3
 800b3f4:	42a0      	cmp	r0, r4
 800b3f6:	d0f8      	beq.n	800b3ea <sbrk_aligned+0x22>
 800b3f8:	1a21      	subs	r1, r4, r0
 800b3fa:	4628      	mov	r0, r5
 800b3fc:	f000 f9be 	bl	800b77c <_sbrk_r>
 800b400:	3001      	adds	r0, #1
 800b402:	d1f2      	bne.n	800b3ea <sbrk_aligned+0x22>
 800b404:	e7ef      	b.n	800b3e6 <sbrk_aligned+0x1e>
 800b406:	bf00      	nop
 800b408:	20001884 	.word	0x20001884

0800b40c <_malloc_r>:
 800b40c:	e92d 43f8 	stmdb	sp!, {r3, r4, r5, r6, r7, r8, r9, lr}
 800b410:	1ccd      	adds	r5, r1, #3
 800b412:	f025 0503 	bic.w	r5, r5, #3
 800b416:	3508      	adds	r5, #8
 800b418:	2d0c      	cmp	r5, #12
 800b41a:	bf38      	it	cc
 800b41c:	250c      	movcc	r5, #12
 800b41e:	2d00      	cmp	r5, #0
 800b420:	4606      	mov	r6, r0
 800b422:	db01      	blt.n	800b428 <_malloc_r+0x1c>
 800b424:	42a9      	cmp	r1, r5
 800b426:	d904      	bls.n	800b432 <_malloc_r+0x26>
 800b428:	230c      	movs	r3, #12
 800b42a:	6033      	str	r3, [r6, #0]
 800b42c:	2000      	movs	r0, #0
 800b42e:	e8bd 83f8 	ldmia.w	sp!, {r3, r4, r5, r6, r7, r8, r9, pc}
 800b432:	f8df 80d4 	ldr.w	r8, [pc, #212]	@ 800b508 <_malloc_r+0xfc>
 800b436:	f000 f869 	bl	800b50c <__malloc_lock>
 800b43a:	f8d8 3000 	ldr.w	r3, [r8]
 800b43e:	461c      	mov	r4, r3
 800b440:	bb44      	cbnz	r4, 800b494 <_malloc_r+0x88>
 800b442:	4629      	mov	r1, r5
 800b444:	4630      	mov	r0, r6
 800b446:	f7ff ffbf 	bl	800b3c8 <sbrk_aligned>
 800b44a:	1c43      	adds	r3, r0, #1
 800b44c:	4604      	mov	r4, r0
 800b44e:	d158      	bne.n	800b502 <_malloc_r+0xf6>
 800b450:	f8d8 4000 	ldr.w	r4, [r8]
 800b454:	4627      	mov	r7, r4
 800b456:	2f00      	cmp	r7, #0
 800b458:	d143      	bne.n	800b4e2 <_malloc_r+0xd6>
 800b45a:	2c00      	cmp	r4, #0
 800b45c:	d04b      	beq.n	800b4f6 <_malloc_r+0xea>
 800b45e:	6823      	ldr	r3, [r4, #0]
 800b460:	4639      	mov	r1, r7
 800b462:	4630      	mov	r0, r6
 800b464:	eb04 0903 	add.w	r9, r4, r3
 800b468:	f000 f988 	bl	800b77c <_sbrk_r>
 800b46c:	4581      	cmp	r9, r0
 800b46e:	d142      	bne.n	800b4f6 <_malloc_r+0xea>
 800b470:	6821      	ldr	r1, [r4, #0]
 800b472:	4630      	mov	r0, r6
 800b474:	1a6d      	subs	r5, r5, r1
 800b476:	4629      	mov	r1, r5
 800b478:	f7ff ffa6 	bl	800b3c8 <sbrk_aligned>
 800b47c:	3001      	adds	r0, #1
 800b47e:	d03a      	beq.n	800b4f6 <_malloc_r+0xea>
 800b480:	6823      	ldr	r3, [r4, #0]
 800b482:	442b      	add	r3, r5
 800b484:	6023      	str	r3, [r4, #0]
 800b486:	f8d8 3000 	ldr.w	r3, [r8]
 800b48a:	685a      	ldr	r2, [r3, #4]
 800b48c:	bb62      	cbnz	r2, 800b4e8 <_malloc_r+0xdc>
 800b48e:	f8c8 7000 	str.w	r7, [r8]
 800b492:	e00f      	b.n	800b4b4 <_malloc_r+0xa8>
 800b494:	6822      	ldr	r2, [r4, #0]
 800b496:	1b52      	subs	r2, r2, r5
 800b498:	d420      	bmi.n	800b4dc <_malloc_r+0xd0>
 800b49a:	2a0b      	cmp	r2, #11
 800b49c:	d917      	bls.n	800b4ce <_malloc_r+0xc2>
 800b49e:	1961      	adds	r1, r4, r5
 800b4a0:	42a3      	cmp	r3, r4
 800b4a2:	6025      	str	r5, [r4, #0]
 800b4a4:	bf18      	it	ne
 800b4a6:	6059      	strne	r1, [r3, #4]
 800b4a8:	6863      	ldr	r3, [r4, #4]
 800b4aa:	bf08      	it	eq
 800b4ac:	f8c8 1000 	streq.w	r1, [r8]
 800b4b0:	5162      	str	r2, [r4, r5]
 800b4b2:	604b      	str	r3, [r1, #4]
 800b4b4:	4630      	mov	r0, r6
 800b4b6:	f000 f82f 	bl	800b518 <__malloc_unlock>
 800b4ba:	f104 000b 	add.w	r0, r4, #11
 800b4be:	1d23      	adds	r3, r4, #4
 800b4c0:	f020 0007 	bic.w	r0, r0, #7
 800b4c4:	1ac2      	subs	r2, r0, r3
 800b4c6:	bf1c      	itt	ne
 800b4c8:	1a1b      	subne	r3, r3, r0
 800b4ca:	50a3      	strne	r3, [r4, r2]
 800b4cc:	e7af      	b.n	800b42e <_malloc_r+0x22>
 800b4ce:	6862      	ldr	r2, [r4, #4]
 800b4d0:	42a3      	cmp	r3, r4
 800b4d2:	bf0c      	ite	eq
 800b4d4:	f8c8 2000 	streq.w	r2, [r8]
 800b4d8:	605a      	strne	r2, [r3, #4]
 800b4da:	e7eb      	b.n	800b4b4 <_malloc_r+0xa8>
 800b4dc:	4623      	mov	r3, r4
 800b4de:	6864      	ldr	r4, [r4, #4]
 800b4e0:	e7ae      	b.n	800b440 <_malloc_r+0x34>
 800b4e2:	463c      	mov	r4, r7
 800b4e4:	687f      	ldr	r7, [r7, #4]
 800b4e6:	e7b6      	b.n	800b456 <_malloc_r+0x4a>
 800b4e8:	461a      	mov	r2, r3
 800b4ea:	685b      	ldr	r3, [r3, #4]
 800b4ec:	42a3      	cmp	r3, r4
 800b4ee:	d1fb      	bne.n	800b4e8 <_malloc_r+0xdc>
 800b4f0:	2300      	movs	r3, #0
 800b4f2:	6053      	str	r3, [r2, #4]
 800b4f4:	e7de      	b.n	800b4b4 <_malloc_r+0xa8>
 800b4f6:	230c      	movs	r3, #12
 800b4f8:	4630      	mov	r0, r6
 800b4fa:	6033      	str	r3, [r6, #0]
 800b4fc:	f000 f80c 	bl	800b518 <__malloc_unlock>
 800b500:	e794      	b.n	800b42c <_malloc_r+0x20>
 800b502:	6005      	str	r5, [r0, #0]
 800b504:	e7d6      	b.n	800b4b4 <_malloc_r+0xa8>
 800b506:	bf00      	nop
 800b508:	20001888 	.word	0x20001888

0800b50c <__malloc_lock>:
 800b50c:	4801      	ldr	r0, [pc, #4]	@ (800b514 <__malloc_lock+0x8>)
 800b50e:	f7ff bf10 	b.w	800b332 <__retarget_lock_acquire_recursive>
 800b512:	bf00      	nop
 800b514:	20001880 	.word	0x20001880

0800b518 <__malloc_unlock>:
 800b518:	4801      	ldr	r0, [pc, #4]	@ (800b520 <__malloc_unlock+0x8>)
 800b51a:	f7ff bf0b 	b.w	800b334 <__retarget_lock_release_recursive>
 800b51e:	bf00      	nop
 800b520:	20001880 	.word	0x20001880

0800b524 <__sflush_r>:
 800b524:	f9b1 200c 	ldrsh.w	r2, [r1, #12]
 800b528:	b5f8      	push	{r3, r4, r5, r6, r7, lr}
 800b52a:	0716      	lsls	r6, r2, #28
 800b52c:	4605      	mov	r5, r0
 800b52e:	460c      	mov	r4, r1
 800b530:	d454      	bmi.n	800b5dc <__sflush_r+0xb8>
 800b532:	684b      	ldr	r3, [r1, #4]
 800b534:	2b00      	cmp	r3, #0
 800b536:	dc02      	bgt.n	800b53e <__sflush_r+0x1a>
 800b538:	6c0b      	ldr	r3, [r1, #64]	@ 0x40
 800b53a:	2b00      	cmp	r3, #0
 800b53c:	dd48      	ble.n	800b5d0 <__sflush_r+0xac>
 800b53e:	6ae6      	ldr	r6, [r4, #44]	@ 0x2c
 800b540:	2e00      	cmp	r6, #0
 800b542:	d045      	beq.n	800b5d0 <__sflush_r+0xac>
 800b544:	2300      	movs	r3, #0
 800b546:	f412 5280 	ands.w	r2, r2, #4096	@ 0x1000
 800b54a:	682f      	ldr	r7, [r5, #0]
 800b54c:	6a21      	ldr	r1, [r4, #32]
 800b54e:	602b      	str	r3, [r5, #0]
 800b550:	d030      	beq.n	800b5b4 <__sflush_r+0x90>
 800b552:	6d62      	ldr	r2, [r4, #84]	@ 0x54
 800b554:	89a3      	ldrh	r3, [r4, #12]
 800b556:	0759      	lsls	r1, r3, #29
 800b558:	d505      	bpl.n	800b566 <__sflush_r+0x42>
 800b55a:	6863      	ldr	r3, [r4, #4]
 800b55c:	1ad2      	subs	r2, r2, r3
 800b55e:	6b63      	ldr	r3, [r4, #52]	@ 0x34
 800b560:	b10b      	cbz	r3, 800b566 <__sflush_r+0x42>
 800b562:	6c23      	ldr	r3, [r4, #64]	@ 0x40
 800b564:	1ad2      	subs	r2, r2, r3
 800b566:	2300      	movs	r3, #0
 800b568:	4628      	mov	r0, r5
 800b56a:	6ae6      	ldr	r6, [r4, #44]	@ 0x2c
 800b56c:	6a21      	ldr	r1, [r4, #32]
 800b56e:	47b0      	blx	r6
 800b570:	1c43      	adds	r3, r0, #1
 800b572:	89a3      	ldrh	r3, [r4, #12]
 800b574:	d106      	bne.n	800b584 <__sflush_r+0x60>
 800b576:	6829      	ldr	r1, [r5, #0]
 800b578:	291d      	cmp	r1, #29
 800b57a:	d82b      	bhi.n	800b5d4 <__sflush_r+0xb0>
 800b57c:	4a28      	ldr	r2, [pc, #160]	@ (800b620 <__sflush_r+0xfc>)
 800b57e:	40ca      	lsrs	r2, r1
 800b580:	07d6      	lsls	r6, r2, #31
 800b582:	d527      	bpl.n	800b5d4 <__sflush_r+0xb0>
 800b584:	2200      	movs	r2, #0
 800b586:	6062      	str	r2, [r4, #4]
 800b588:	6922      	ldr	r2, [r4, #16]
 800b58a:	04d9      	lsls	r1, r3, #19
 800b58c:	6022      	str	r2, [r4, #0]
 800b58e:	d504      	bpl.n	800b59a <__sflush_r+0x76>
 800b590:	1c42      	adds	r2, r0, #1
 800b592:	d101      	bne.n	800b598 <__sflush_r+0x74>
 800b594:	682b      	ldr	r3, [r5, #0]
 800b596:	b903      	cbnz	r3, 800b59a <__sflush_r+0x76>
 800b598:	6560      	str	r0, [r4, #84]	@ 0x54
 800b59a:	6b61      	ldr	r1, [r4, #52]	@ 0x34
 800b59c:	602f      	str	r7, [r5, #0]
 800b59e:	b1b9      	cbz	r1, 800b5d0 <__sflush_r+0xac>
 800b5a0:	f104 0344 	add.w	r3, r4, #68	@ 0x44
 800b5a4:	4299      	cmp	r1, r3
 800b5a6:	d002      	beq.n	800b5ae <__sflush_r+0x8a>
 800b5a8:	4628      	mov	r0, r5
 800b5aa:	f7ff fec5 	bl	800b338 <_free_r>
 800b5ae:	2300      	movs	r3, #0
 800b5b0:	6363      	str	r3, [r4, #52]	@ 0x34
 800b5b2:	e00d      	b.n	800b5d0 <__sflush_r+0xac>
 800b5b4:	2301      	movs	r3, #1
 800b5b6:	4628      	mov	r0, r5
 800b5b8:	47b0      	blx	r6
 800b5ba:	4602      	mov	r2, r0
 800b5bc:	1c50      	adds	r0, r2, #1
 800b5be:	d1c9      	bne.n	800b554 <__sflush_r+0x30>
 800b5c0:	682b      	ldr	r3, [r5, #0]
 800b5c2:	2b00      	cmp	r3, #0
 800b5c4:	d0c6      	beq.n	800b554 <__sflush_r+0x30>
 800b5c6:	2b1d      	cmp	r3, #29
 800b5c8:	d001      	beq.n	800b5ce <__sflush_r+0xaa>
 800b5ca:	2b16      	cmp	r3, #22
 800b5cc:	d11d      	bne.n	800b60a <__sflush_r+0xe6>
 800b5ce:	602f      	str	r7, [r5, #0]
 800b5d0:	2000      	movs	r0, #0
 800b5d2:	e021      	b.n	800b618 <__sflush_r+0xf4>
 800b5d4:	f043 0340 	orr.w	r3, r3, #64	@ 0x40
 800b5d8:	b21b      	sxth	r3, r3
 800b5da:	e01a      	b.n	800b612 <__sflush_r+0xee>
 800b5dc:	690f      	ldr	r7, [r1, #16]
 800b5de:	2f00      	cmp	r7, #0
 800b5e0:	d0f6      	beq.n	800b5d0 <__sflush_r+0xac>
 800b5e2:	0793      	lsls	r3, r2, #30
 800b5e4:	bf18      	it	ne
 800b5e6:	2300      	movne	r3, #0
 800b5e8:	680e      	ldr	r6, [r1, #0]
 800b5ea:	bf08      	it	eq
 800b5ec:	694b      	ldreq	r3, [r1, #20]
 800b5ee:	1bf6      	subs	r6, r6, r7
 800b5f0:	600f      	str	r7, [r1, #0]
 800b5f2:	608b      	str	r3, [r1, #8]
 800b5f4:	2e00      	cmp	r6, #0
 800b5f6:	ddeb      	ble.n	800b5d0 <__sflush_r+0xac>
 800b5f8:	4633      	mov	r3, r6
 800b5fa:	463a      	mov	r2, r7
 800b5fc:	4628      	mov	r0, r5
 800b5fe:	6a21      	ldr	r1, [r4, #32]
 800b600:	f8d4 c028 	ldr.w	ip, [r4, #40]	@ 0x28
 800b604:	47e0      	blx	ip
 800b606:	2800      	cmp	r0, #0
 800b608:	dc07      	bgt.n	800b61a <__sflush_r+0xf6>
 800b60a:	f9b4 300c 	ldrsh.w	r3, [r4, #12]
 800b60e:	f043 0340 	orr.w	r3, r3, #64	@ 0x40
 800b612:	f04f 30ff 	mov.w	r0, #4294967295
 800b616:	81a3      	strh	r3, [r4, #12]
 800b618:	bdf8      	pop	{r3, r4, r5, r6, r7, pc}
 800b61a:	4407      	add	r7, r0
 800b61c:	1a36      	subs	r6, r6, r0
 800b61e:	e7e9      	b.n	800b5f4 <__sflush_r+0xd0>
 800b620:	20400001 	.word	0x20400001

0800b624 <_fflush_r>:
 800b624:	b538      	push	{r3, r4, r5, lr}
 800b626:	690b      	ldr	r3, [r1, #16]
 800b628:	4605      	mov	r5, r0
 800b62a:	460c      	mov	r4, r1
 800b62c:	b913      	cbnz	r3, 800b634 <_fflush_r+0x10>
 800b62e:	2500      	movs	r5, #0
 800b630:	4628      	mov	r0, r5
 800b632:	bd38      	pop	{r3, r4, r5, pc}
 800b634:	b118      	cbz	r0, 800b63e <_fflush_r+0x1a>
 800b636:	6a03      	ldr	r3, [r0, #32]
 800b638:	b90b      	cbnz	r3, 800b63e <_fflush_r+0x1a>
 800b63a:	f7ff fc95 	bl	800af68 <__sinit>
 800b63e:	f9b4 300c 	ldrsh.w	r3, [r4, #12]
 800b642:	2b00      	cmp	r3, #0
 800b644:	d0f3      	beq.n	800b62e <_fflush_r+0xa>
 800b646:	6e62      	ldr	r2, [r4, #100]	@ 0x64
 800b648:	07d0      	lsls	r0, r2, #31
 800b64a:	d404      	bmi.n	800b656 <_fflush_r+0x32>
 800b64c:	0599      	lsls	r1, r3, #22
 800b64e:	d402      	bmi.n	800b656 <_fflush_r+0x32>
 800b650:	6da0      	ldr	r0, [r4, #88]	@ 0x58
 800b652:	f7ff fe6e 	bl	800b332 <__retarget_lock_acquire_recursive>
 800b656:	4628      	mov	r0, r5
 800b658:	4621      	mov	r1, r4
 800b65a:	f7ff ff63 	bl	800b524 <__sflush_r>
 800b65e:	6e63      	ldr	r3, [r4, #100]	@ 0x64
 800b660:	4605      	mov	r5, r0
 800b662:	07da      	lsls	r2, r3, #31
 800b664:	d4e4      	bmi.n	800b630 <_fflush_r+0xc>
 800b666:	89a3      	ldrh	r3, [r4, #12]
 800b668:	059b      	lsls	r3, r3, #22
 800b66a:	d4e1      	bmi.n	800b630 <_fflush_r+0xc>
 800b66c:	6da0      	ldr	r0, [r4, #88]	@ 0x58
 800b66e:	f7ff fe61 	bl	800b334 <__retarget_lock_release_recursive>
 800b672:	e7dd      	b.n	800b630 <_fflush_r+0xc>

0800b674 <__swhatbuf_r>:
 800b674:	b570      	push	{r4, r5, r6, lr}
 800b676:	460c      	mov	r4, r1
 800b678:	f9b1 100e 	ldrsh.w	r1, [r1, #14]
 800b67c:	4615      	mov	r5, r2
 800b67e:	2900      	cmp	r1, #0
 800b680:	461e      	mov	r6, r3
 800b682:	b096      	sub	sp, #88	@ 0x58
 800b684:	da0c      	bge.n	800b6a0 <__swhatbuf_r+0x2c>
 800b686:	89a3      	ldrh	r3, [r4, #12]
 800b688:	2100      	movs	r1, #0
 800b68a:	f013 0f80 	tst.w	r3, #128	@ 0x80
 800b68e:	bf14      	ite	ne
 800b690:	2340      	movne	r3, #64	@ 0x40
 800b692:	f44f 6380 	moveq.w	r3, #1024	@ 0x400
 800b696:	2000      	movs	r0, #0
 800b698:	6031      	str	r1, [r6, #0]
 800b69a:	602b      	str	r3, [r5, #0]
 800b69c:	b016      	add	sp, #88	@ 0x58
 800b69e:	bd70      	pop	{r4, r5, r6, pc}
 800b6a0:	466a      	mov	r2, sp
 800b6a2:	f000 f849 	bl	800b738 <_fstat_r>
 800b6a6:	2800      	cmp	r0, #0
 800b6a8:	dbed      	blt.n	800b686 <__swhatbuf_r+0x12>
 800b6aa:	9901      	ldr	r1, [sp, #4]
 800b6ac:	f401 4170 	and.w	r1, r1, #61440	@ 0xf000
 800b6b0:	f5a1 5300 	sub.w	r3, r1, #8192	@ 0x2000
 800b6b4:	4259      	negs	r1, r3
 800b6b6:	4159      	adcs	r1, r3
 800b6b8:	f44f 6380 	mov.w	r3, #1024	@ 0x400
 800b6bc:	e7eb      	b.n	800b696 <__swhatbuf_r+0x22>

0800b6be <__smakebuf_r>:
 800b6be:	898b      	ldrh	r3, [r1, #12]
 800b6c0:	b5f7      	push	{r0, r1, r2, r4, r5, r6, r7, lr}
 800b6c2:	079d      	lsls	r5, r3, #30
 800b6c4:	4606      	mov	r6, r0
 800b6c6:	460c      	mov	r4, r1
 800b6c8:	d507      	bpl.n	800b6da <__smakebuf_r+0x1c>
 800b6ca:	f104 0347 	add.w	r3, r4, #71	@ 0x47
 800b6ce:	6023      	str	r3, [r4, #0]
 800b6d0:	6123      	str	r3, [r4, #16]
 800b6d2:	2301      	movs	r3, #1
 800b6d4:	6163      	str	r3, [r4, #20]
 800b6d6:	b003      	add	sp, #12
 800b6d8:	bdf0      	pop	{r4, r5, r6, r7, pc}
 800b6da:	466a      	mov	r2, sp
 800b6dc:	ab01      	add	r3, sp, #4
 800b6de:	f7ff ffc9 	bl	800b674 <__swhatbuf_r>
 800b6e2:	9f00      	ldr	r7, [sp, #0]
 800b6e4:	4605      	mov	r5, r0
 800b6e6:	4639      	mov	r1, r7
 800b6e8:	4630      	mov	r0, r6
 800b6ea:	f7ff fe8f 	bl	800b40c <_malloc_r>
 800b6ee:	b948      	cbnz	r0, 800b704 <__smakebuf_r+0x46>
 800b6f0:	f9b4 300c 	ldrsh.w	r3, [r4, #12]
 800b6f4:	059a      	lsls	r2, r3, #22
 800b6f6:	d4ee      	bmi.n	800b6d6 <__smakebuf_r+0x18>
 800b6f8:	f023 0303 	bic.w	r3, r3, #3
 800b6fc:	f043 0302 	orr.w	r3, r3, #2
 800b700:	81a3      	strh	r3, [r4, #12]
 800b702:	e7e2      	b.n	800b6ca <__smakebuf_r+0xc>
 800b704:	89a3      	ldrh	r3, [r4, #12]
 800b706:	e9c4 0704 	strd	r0, r7, [r4, #16]
 800b70a:	f043 0380 	orr.w	r3, r3, #128	@ 0x80
 800b70e:	81a3      	strh	r3, [r4, #12]
 800b710:	9b01      	ldr	r3, [sp, #4]
 800b712:	6020      	str	r0, [r4, #0]
 800b714:	b15b      	cbz	r3, 800b72e <__smakebuf_r+0x70>
 800b716:	4630      	mov	r0, r6
 800b718:	f9b4 100e 	ldrsh.w	r1, [r4, #14]
 800b71c:	f000 f81e 	bl	800b75c <_isatty_r>
 800b720:	b128      	cbz	r0, 800b72e <__smakebuf_r+0x70>
 800b722:	89a3      	ldrh	r3, [r4, #12]
 800b724:	f023 0303 	bic.w	r3, r3, #3
 800b728:	f043 0301 	orr.w	r3, r3, #1
 800b72c:	81a3      	strh	r3, [r4, #12]
 800b72e:	89a3      	ldrh	r3, [r4, #12]
 800b730:	431d      	orrs	r5, r3
 800b732:	81a5      	strh	r5, [r4, #12]
 800b734:	e7cf      	b.n	800b6d6 <__smakebuf_r+0x18>
	...

0800b738 <_fstat_r>:
 800b738:	b538      	push	{r3, r4, r5, lr}
 800b73a:	2300      	movs	r3, #0
 800b73c:	4d06      	ldr	r5, [pc, #24]	@ (800b758 <_fstat_r+0x20>)
 800b73e:	4604      	mov	r4, r0
 800b740:	4608      	mov	r0, r1
 800b742:	4611      	mov	r1, r2
 800b744:	602b      	str	r3, [r5, #0]
 800b746:	f7fc fd08 	bl	800815a <_fstat>
 800b74a:	1c43      	adds	r3, r0, #1
 800b74c:	d102      	bne.n	800b754 <_fstat_r+0x1c>
 800b74e:	682b      	ldr	r3, [r5, #0]
 800b750:	b103      	cbz	r3, 800b754 <_fstat_r+0x1c>
 800b752:	6023      	str	r3, [r4, #0]
 800b754:	bd38      	pop	{r3, r4, r5, pc}
 800b756:	bf00      	nop
 800b758:	2000187c 	.word	0x2000187c

0800b75c <_isatty_r>:
 800b75c:	b538      	push	{r3, r4, r5, lr}
 800b75e:	2300      	movs	r3, #0
 800b760:	4d05      	ldr	r5, [pc, #20]	@ (800b778 <_isatty_r+0x1c>)
 800b762:	4604      	mov	r4, r0
 800b764:	4608      	mov	r0, r1
 800b766:	602b      	str	r3, [r5, #0]
 800b768:	f7fc fcfc 	bl	8008164 <_isatty>
 800b76c:	1c43      	adds	r3, r0, #1
 800b76e:	d102      	bne.n	800b776 <_isatty_r+0x1a>
 800b770:	682b      	ldr	r3, [r5, #0]
 800b772:	b103      	cbz	r3, 800b776 <_isatty_r+0x1a>
 800b774:	6023      	str	r3, [r4, #0]
 800b776:	bd38      	pop	{r3, r4, r5, pc}
 800b778:	2000187c 	.word	0x2000187c

0800b77c <_sbrk_r>:
 800b77c:	b538      	push	{r3, r4, r5, lr}
 800b77e:	2300      	movs	r3, #0
 800b780:	4d05      	ldr	r5, [pc, #20]	@ (800b798 <_sbrk_r+0x1c>)
 800b782:	4604      	mov	r4, r0
 800b784:	4608      	mov	r0, r1
 800b786:	602b      	str	r3, [r5, #0]
 800b788:	f7fc fcf0 	bl	800816c <_sbrk>
 800b78c:	1c43      	adds	r3, r0, #1
 800b78e:	d102      	bne.n	800b796 <_sbrk_r+0x1a>
 800b790:	682b      	ldr	r3, [r5, #0]
 800b792:	b103      	cbz	r3, 800b796 <_sbrk_r+0x1a>
 800b794:	6023      	str	r3, [r4, #0]
 800b796:	bd38      	pop	{r3, r4, r5, pc}
 800b798:	2000187c 	.word	0x2000187c

0800b79c <log>:
 800b79c:	b5f8      	push	{r3, r4, r5, r6, r7, lr}
 800b79e:	4604      	mov	r4, r0
 800b7a0:	460d      	mov	r5, r1
 800b7a2:	f000 f835 	bl	800b810 <__ieee754_log>
 800b7a6:	4622      	mov	r2, r4
 800b7a8:	4606      	mov	r6, r0
 800b7aa:	460f      	mov	r7, r1
 800b7ac:	462b      	mov	r3, r5
 800b7ae:	4620      	mov	r0, r4
 800b7b0:	4629      	mov	r1, r5
 800b7b2:	f7f8 fd23 	bl	80041fc <__aeabi_dcmpun>
 800b7b6:	b998      	cbnz	r0, 800b7e0 <log+0x44>
 800b7b8:	2200      	movs	r2, #0
 800b7ba:	2300      	movs	r3, #0
 800b7bc:	4620      	mov	r0, r4
 800b7be:	4629      	mov	r1, r5
 800b7c0:	f7f8 fd12 	bl	80041e8 <__aeabi_dcmpgt>
 800b7c4:	b960      	cbnz	r0, 800b7e0 <log+0x44>
 800b7c6:	2200      	movs	r2, #0
 800b7c8:	2300      	movs	r3, #0
 800b7ca:	4620      	mov	r0, r4
 800b7cc:	4629      	mov	r1, r5
 800b7ce:	f7f8 fce3 	bl	8004198 <__aeabi_dcmpeq>
 800b7d2:	b140      	cbz	r0, 800b7e6 <log+0x4a>
 800b7d4:	f7ff fd82 	bl	800b2dc <__errno>
 800b7d8:	2322      	movs	r3, #34	@ 0x22
 800b7da:	2600      	movs	r6, #0
 800b7dc:	4f06      	ldr	r7, [pc, #24]	@ (800b7f8 <log+0x5c>)
 800b7de:	6003      	str	r3, [r0, #0]
 800b7e0:	4630      	mov	r0, r6
 800b7e2:	4639      	mov	r1, r7
 800b7e4:	bdf8      	pop	{r3, r4, r5, r6, r7, pc}
 800b7e6:	f7ff fd79 	bl	800b2dc <__errno>
 800b7ea:	2321      	movs	r3, #33	@ 0x21
 800b7ec:	6003      	str	r3, [r0, #0]
 800b7ee:	4803      	ldr	r0, [pc, #12]	@ (800b7fc <log+0x60>)
 800b7f0:	e8bd 40f8 	ldmia.w	sp!, {r3, r4, r5, r6, r7, lr}
 800b7f4:	f000 b804 	b.w	800b800 <nan>
 800b7f8:	fff00000 	.word	0xfff00000
 800b7fc:	0800bba3 	.word	0x0800bba3

0800b800 <nan>:
 800b800:	2000      	movs	r0, #0
 800b802:	4901      	ldr	r1, [pc, #4]	@ (800b808 <nan+0x8>)
 800b804:	4770      	bx	lr
 800b806:	bf00      	nop
 800b808:	7ff80000 	.word	0x7ff80000
 800b80c:	00000000 	.word	0x00000000

0800b810 <__ieee754_log>:
 800b810:	e92d 4ff0 	stmdb	sp!, {r4, r5, r6, r7, r8, r9, sl, fp, lr}
 800b814:	f5b1 1f80 	cmp.w	r1, #1048576	@ 0x100000
 800b818:	4602      	mov	r2, r0
 800b81a:	460b      	mov	r3, r1
 800b81c:	460d      	mov	r5, r1
 800b81e:	b087      	sub	sp, #28
 800b820:	da24      	bge.n	800b86c <__ieee754_log+0x5c>
 800b822:	f021 4400 	bic.w	r4, r1, #2147483648	@ 0x80000000
 800b826:	4304      	orrs	r4, r0
 800b828:	d108      	bne.n	800b83c <__ieee754_log+0x2c>
 800b82a:	2200      	movs	r2, #0
 800b82c:	2300      	movs	r3, #0
 800b82e:	2000      	movs	r0, #0
 800b830:	49cb      	ldr	r1, [pc, #812]	@ (800bb60 <__ieee754_log+0x350>)
 800b832:	f7f8 fb73 	bl	8003f1c <__aeabi_ddiv>
 800b836:	b007      	add	sp, #28
 800b838:	e8bd 8ff0 	ldmia.w	sp!, {r4, r5, r6, r7, r8, r9, sl, fp, pc}
 800b83c:	2900      	cmp	r1, #0
 800b83e:	da04      	bge.n	800b84a <__ieee754_log+0x3a>
 800b840:	f7f8 f88a 	bl	8003958 <__aeabi_dsub>
 800b844:	2200      	movs	r2, #0
 800b846:	2300      	movs	r3, #0
 800b848:	e7f3      	b.n	800b832 <__ieee754_log+0x22>
 800b84a:	2200      	movs	r2, #0
 800b84c:	4bc5      	ldr	r3, [pc, #788]	@ (800bb64 <__ieee754_log+0x354>)
 800b84e:	f7f8 fa3b 	bl	8003cc8 <__aeabi_dmul>
 800b852:	460b      	mov	r3, r1
 800b854:	460d      	mov	r5, r1
 800b856:	4602      	mov	r2, r0
 800b858:	f06f 0135 	mvn.w	r1, #53	@ 0x35
 800b85c:	48c2      	ldr	r0, [pc, #776]	@ (800bb68 <__ieee754_log+0x358>)
 800b85e:	4285      	cmp	r5, r0
 800b860:	dd06      	ble.n	800b870 <__ieee754_log+0x60>
 800b862:	4610      	mov	r0, r2
 800b864:	4619      	mov	r1, r3
 800b866:	f7f8 f879 	bl	800395c <__adddf3>
 800b86a:	e7e4      	b.n	800b836 <__ieee754_log+0x26>
 800b86c:	2100      	movs	r1, #0
 800b86e:	e7f5      	b.n	800b85c <__ieee754_log+0x4c>
 800b870:	152c      	asrs	r4, r5, #20
 800b872:	f2a4 34ff 	subw	r4, r4, #1023	@ 0x3ff
 800b876:	f3c5 0513 	ubfx	r5, r5, #0, #20
 800b87a:	440c      	add	r4, r1
 800b87c:	f505 2115 	add.w	r1, r5, #610304	@ 0x95000
 800b880:	f601 7164 	addw	r1, r1, #3940	@ 0xf64
 800b884:	f401 1680 	and.w	r6, r1, #1048576	@ 0x100000
 800b888:	f086 517f 	eor.w	r1, r6, #1069547520	@ 0x3fc00000
 800b88c:	f481 1140 	eor.w	r1, r1, #3145728	@ 0x300000
 800b890:	ea41 0305 	orr.w	r3, r1, r5
 800b894:	4610      	mov	r0, r2
 800b896:	4619      	mov	r1, r3
 800b898:	2200      	movs	r2, #0
 800b89a:	4bb4      	ldr	r3, [pc, #720]	@ (800bb6c <__ieee754_log+0x35c>)
 800b89c:	f7f8 f85c 	bl	8003958 <__aeabi_dsub>
 800b8a0:	1cab      	adds	r3, r5, #2
 800b8a2:	f3c3 0313 	ubfx	r3, r3, #0, #20
 800b8a6:	2b02      	cmp	r3, #2
 800b8a8:	4682      	mov	sl, r0
 800b8aa:	468b      	mov	fp, r1
 800b8ac:	f04f 0200 	mov.w	r2, #0
 800b8b0:	eb04 5416 	add.w	r4, r4, r6, lsr #20
 800b8b4:	dc53      	bgt.n	800b95e <__ieee754_log+0x14e>
 800b8b6:	2300      	movs	r3, #0
 800b8b8:	f7f8 fc6e 	bl	8004198 <__aeabi_dcmpeq>
 800b8bc:	b1d0      	cbz	r0, 800b8f4 <__ieee754_log+0xe4>
 800b8be:	2c00      	cmp	r4, #0
 800b8c0:	f000 8120 	beq.w	800bb04 <__ieee754_log+0x2f4>
 800b8c4:	4620      	mov	r0, r4
 800b8c6:	f7f8 f995 	bl	8003bf4 <__aeabi_i2d>
 800b8ca:	a391      	add	r3, pc, #580	@ (adr r3, 800bb10 <__ieee754_log+0x300>)
 800b8cc:	e9d3 2300 	ldrd	r2, r3, [r3]
 800b8d0:	4606      	mov	r6, r0
 800b8d2:	460f      	mov	r7, r1
 800b8d4:	f7f8 f9f8 	bl	8003cc8 <__aeabi_dmul>
 800b8d8:	a38f      	add	r3, pc, #572	@ (adr r3, 800bb18 <__ieee754_log+0x308>)
 800b8da:	e9d3 2300 	ldrd	r2, r3, [r3]
 800b8de:	4604      	mov	r4, r0
 800b8e0:	460d      	mov	r5, r1
 800b8e2:	4630      	mov	r0, r6
 800b8e4:	4639      	mov	r1, r7
 800b8e6:	f7f8 f9ef 	bl	8003cc8 <__aeabi_dmul>
 800b8ea:	4602      	mov	r2, r0
 800b8ec:	460b      	mov	r3, r1
 800b8ee:	4620      	mov	r0, r4
 800b8f0:	4629      	mov	r1, r5
 800b8f2:	e7b8      	b.n	800b866 <__ieee754_log+0x56>
 800b8f4:	a38a      	add	r3, pc, #552	@ (adr r3, 800bb20 <__ieee754_log+0x310>)
 800b8f6:	e9d3 2300 	ldrd	r2, r3, [r3]
 800b8fa:	4650      	mov	r0, sl
 800b8fc:	4659      	mov	r1, fp
 800b8fe:	f7f8 f9e3 	bl	8003cc8 <__aeabi_dmul>
 800b902:	4602      	mov	r2, r0
 800b904:	460b      	mov	r3, r1
 800b906:	2000      	movs	r0, #0
 800b908:	4999      	ldr	r1, [pc, #612]	@ (800bb70 <__ieee754_log+0x360>)
 800b90a:	f7f8 f825 	bl	8003958 <__aeabi_dsub>
 800b90e:	4652      	mov	r2, sl
 800b910:	4606      	mov	r6, r0
 800b912:	460f      	mov	r7, r1
 800b914:	465b      	mov	r3, fp
 800b916:	4650      	mov	r0, sl
 800b918:	4659      	mov	r1, fp
 800b91a:	f7f8 f9d5 	bl	8003cc8 <__aeabi_dmul>
 800b91e:	4602      	mov	r2, r0
 800b920:	460b      	mov	r3, r1
 800b922:	4630      	mov	r0, r6
 800b924:	4639      	mov	r1, r7
 800b926:	f7f8 f9cf 	bl	8003cc8 <__aeabi_dmul>
 800b92a:	4606      	mov	r6, r0
 800b92c:	460f      	mov	r7, r1
 800b92e:	b914      	cbnz	r4, 800b936 <__ieee754_log+0x126>
 800b930:	4632      	mov	r2, r6
 800b932:	463b      	mov	r3, r7
 800b934:	e0a0      	b.n	800ba78 <__ieee754_log+0x268>
 800b936:	4620      	mov	r0, r4
 800b938:	f7f8 f95c 	bl	8003bf4 <__aeabi_i2d>
 800b93c:	a374      	add	r3, pc, #464	@ (adr r3, 800bb10 <__ieee754_log+0x300>)
 800b93e:	e9d3 2300 	ldrd	r2, r3, [r3]
 800b942:	4680      	mov	r8, r0
 800b944:	4689      	mov	r9, r1
 800b946:	f7f8 f9bf 	bl	8003cc8 <__aeabi_dmul>
 800b94a:	a373      	add	r3, pc, #460	@ (adr r3, 800bb18 <__ieee754_log+0x308>)
 800b94c:	e9d3 2300 	ldrd	r2, r3, [r3]
 800b950:	4604      	mov	r4, r0
 800b952:	460d      	mov	r5, r1
 800b954:	4640      	mov	r0, r8
 800b956:	4649      	mov	r1, r9
 800b958:	f7f8 f9b6 	bl	8003cc8 <__aeabi_dmul>
 800b95c:	e0a5      	b.n	800baaa <__ieee754_log+0x29a>
 800b95e:	f04f 4380 	mov.w	r3, #1073741824	@ 0x40000000
 800b962:	f7f7 fffb 	bl	800395c <__adddf3>
 800b966:	4602      	mov	r2, r0
 800b968:	460b      	mov	r3, r1
 800b96a:	4650      	mov	r0, sl
 800b96c:	4659      	mov	r1, fp
 800b96e:	f7f8 fad5 	bl	8003f1c <__aeabi_ddiv>
 800b972:	e9cd 0100 	strd	r0, r1, [sp]
 800b976:	4620      	mov	r0, r4
 800b978:	f7f8 f93c 	bl	8003bf4 <__aeabi_i2d>
 800b97c:	e9dd 2300 	ldrd	r2, r3, [sp]
 800b980:	e9cd 0102 	strd	r0, r1, [sp, #8]
 800b984:	4610      	mov	r0, r2
 800b986:	4619      	mov	r1, r3
 800b988:	f7f8 f99e 	bl	8003cc8 <__aeabi_dmul>
 800b98c:	4602      	mov	r2, r0
 800b98e:	460b      	mov	r3, r1
 800b990:	e9cd 2304 	strd	r2, r3, [sp, #16]
 800b994:	f7f8 f998 	bl	8003cc8 <__aeabi_dmul>
 800b998:	a363      	add	r3, pc, #396	@ (adr r3, 800bb28 <__ieee754_log+0x318>)
 800b99a:	e9d3 2300 	ldrd	r2, r3, [r3]
 800b99e:	4680      	mov	r8, r0
 800b9a0:	4689      	mov	r9, r1
 800b9a2:	f7f8 f991 	bl	8003cc8 <__aeabi_dmul>
 800b9a6:	a362      	add	r3, pc, #392	@ (adr r3, 800bb30 <__ieee754_log+0x320>)
 800b9a8:	e9d3 2300 	ldrd	r2, r3, [r3]
 800b9ac:	f7f7 ffd6 	bl	800395c <__adddf3>
 800b9b0:	4642      	mov	r2, r8
 800b9b2:	464b      	mov	r3, r9
 800b9b4:	f7f8 f988 	bl	8003cc8 <__aeabi_dmul>
 800b9b8:	a35f      	add	r3, pc, #380	@ (adr r3, 800bb38 <__ieee754_log+0x328>)
 800b9ba:	e9d3 2300 	ldrd	r2, r3, [r3]
 800b9be:	f7f7 ffcd 	bl	800395c <__adddf3>
 800b9c2:	4642      	mov	r2, r8
 800b9c4:	464b      	mov	r3, r9
 800b9c6:	f7f8 f97f 	bl	8003cc8 <__aeabi_dmul>
 800b9ca:	a35d      	add	r3, pc, #372	@ (adr r3, 800bb40 <__ieee754_log+0x330>)
 800b9cc:	e9d3 2300 	ldrd	r2, r3, [r3]
 800b9d0:	f7f7 ffc4 	bl	800395c <__adddf3>
 800b9d4:	e9dd 2304 	ldrd	r2, r3, [sp, #16]
 800b9d8:	f7f8 f976 	bl	8003cc8 <__aeabi_dmul>
 800b9dc:	a35a      	add	r3, pc, #360	@ (adr r3, 800bb48 <__ieee754_log+0x338>)
 800b9de:	e9d3 2300 	ldrd	r2, r3, [r3]
 800b9e2:	e9cd 0104 	strd	r0, r1, [sp, #16]
 800b9e6:	4640      	mov	r0, r8
 800b9e8:	4649      	mov	r1, r9
 800b9ea:	f7f8 f96d 	bl	8003cc8 <__aeabi_dmul>
 800b9ee:	a358      	add	r3, pc, #352	@ (adr r3, 800bb50 <__ieee754_log+0x340>)
 800b9f0:	e9d3 2300 	ldrd	r2, r3, [r3]
 800b9f4:	f7f7 ffb2 	bl	800395c <__adddf3>
 800b9f8:	4642      	mov	r2, r8
 800b9fa:	464b      	mov	r3, r9
 800b9fc:	f7f8 f964 	bl	8003cc8 <__aeabi_dmul>
 800ba00:	a355      	add	r3, pc, #340	@ (adr r3, 800bb58 <__ieee754_log+0x348>)
 800ba02:	e9d3 2300 	ldrd	r2, r3, [r3]
 800ba06:	f7f7 ffa9 	bl	800395c <__adddf3>
 800ba0a:	4642      	mov	r2, r8
 800ba0c:	464b      	mov	r3, r9
 800ba0e:	f7f8 f95b 	bl	8003cc8 <__aeabi_dmul>
 800ba12:	4602      	mov	r2, r0
 800ba14:	460b      	mov	r3, r1
 800ba16:	e9dd 0104 	ldrd	r0, r1, [sp, #16]
 800ba1a:	f7f7 ff9f 	bl	800395c <__adddf3>
 800ba1e:	f5a5 26c2 	sub.w	r6, r5, #397312	@ 0x61000
 800ba22:	f5c5 25d7 	rsb	r5, r5, #440320	@ 0x6b800
 800ba26:	f2a6 467a 	subw	r6, r6, #1146	@ 0x47a
 800ba2a:	3551      	adds	r5, #81	@ 0x51
 800ba2c:	4335      	orrs	r5, r6
 800ba2e:	2d00      	cmp	r5, #0
 800ba30:	4680      	mov	r8, r0
 800ba32:	4689      	mov	r9, r1
 800ba34:	dd48      	ble.n	800bac8 <__ieee754_log+0x2b8>
 800ba36:	2200      	movs	r2, #0
 800ba38:	4b4d      	ldr	r3, [pc, #308]	@ (800bb70 <__ieee754_log+0x360>)
 800ba3a:	4650      	mov	r0, sl
 800ba3c:	4659      	mov	r1, fp
 800ba3e:	f7f8 f943 	bl	8003cc8 <__aeabi_dmul>
 800ba42:	4652      	mov	r2, sl
 800ba44:	465b      	mov	r3, fp
 800ba46:	f7f8 f93f 	bl	8003cc8 <__aeabi_dmul>
 800ba4a:	4602      	mov	r2, r0
 800ba4c:	460b      	mov	r3, r1
 800ba4e:	4606      	mov	r6, r0
 800ba50:	460f      	mov	r7, r1
 800ba52:	4640      	mov	r0, r8
 800ba54:	4649      	mov	r1, r9
 800ba56:	f7f7 ff81 	bl	800395c <__adddf3>
 800ba5a:	e9dd 2300 	ldrd	r2, r3, [sp]
 800ba5e:	f7f8 f933 	bl	8003cc8 <__aeabi_dmul>
 800ba62:	4680      	mov	r8, r0
 800ba64:	4689      	mov	r9, r1
 800ba66:	b964      	cbnz	r4, 800ba82 <__ieee754_log+0x272>
 800ba68:	4602      	mov	r2, r0
 800ba6a:	460b      	mov	r3, r1
 800ba6c:	4630      	mov	r0, r6
 800ba6e:	4639      	mov	r1, r7
 800ba70:	f7f7 ff72 	bl	8003958 <__aeabi_dsub>
 800ba74:	4602      	mov	r2, r0
 800ba76:	460b      	mov	r3, r1
 800ba78:	4650      	mov	r0, sl
 800ba7a:	4659      	mov	r1, fp
 800ba7c:	f7f7 ff6c 	bl	8003958 <__aeabi_dsub>
 800ba80:	e6d9      	b.n	800b836 <__ieee754_log+0x26>
 800ba82:	a323      	add	r3, pc, #140	@ (adr r3, 800bb10 <__ieee754_log+0x300>)
 800ba84:	e9d3 2300 	ldrd	r2, r3, [r3]
 800ba88:	e9dd 0102 	ldrd	r0, r1, [sp, #8]
 800ba8c:	f7f8 f91c 	bl	8003cc8 <__aeabi_dmul>
 800ba90:	a321      	add	r3, pc, #132	@ (adr r3, 800bb18 <__ieee754_log+0x308>)
 800ba92:	e9d3 2300 	ldrd	r2, r3, [r3]
 800ba96:	4604      	mov	r4, r0
 800ba98:	460d      	mov	r5, r1
 800ba9a:	e9dd 0102 	ldrd	r0, r1, [sp, #8]
 800ba9e:	f7f8 f913 	bl	8003cc8 <__aeabi_dmul>
 800baa2:	4642      	mov	r2, r8
 800baa4:	464b      	mov	r3, r9
 800baa6:	f7f7 ff59 	bl	800395c <__adddf3>
 800baaa:	4602      	mov	r2, r0
 800baac:	460b      	mov	r3, r1
 800baae:	4630      	mov	r0, r6
 800bab0:	4639      	mov	r1, r7
 800bab2:	f7f7 ff51 	bl	8003958 <__aeabi_dsub>
 800bab6:	4652      	mov	r2, sl
 800bab8:	465b      	mov	r3, fp
 800baba:	f7f7 ff4d 	bl	8003958 <__aeabi_dsub>
 800babe:	4602      	mov	r2, r0
 800bac0:	460b      	mov	r3, r1
 800bac2:	4620      	mov	r0, r4
 800bac4:	4629      	mov	r1, r5
 800bac6:	e7d9      	b.n	800ba7c <__ieee754_log+0x26c>
 800bac8:	4602      	mov	r2, r0
 800baca:	460b      	mov	r3, r1
 800bacc:	4650      	mov	r0, sl
 800bace:	4659      	mov	r1, fp
 800bad0:	f7f7 ff42 	bl	8003958 <__aeabi_dsub>
 800bad4:	e9dd 2300 	ldrd	r2, r3, [sp]
 800bad8:	f7f8 f8f6 	bl	8003cc8 <__aeabi_dmul>
 800badc:	4606      	mov	r6, r0
 800bade:	460f      	mov	r7, r1
 800bae0:	2c00      	cmp	r4, #0
 800bae2:	f43f af25 	beq.w	800b930 <__ieee754_log+0x120>
 800bae6:	a30a      	add	r3, pc, #40	@ (adr r3, 800bb10 <__ieee754_log+0x300>)
 800bae8:	e9d3 2300 	ldrd	r2, r3, [r3]
 800baec:	e9dd 0102 	ldrd	r0, r1, [sp, #8]
 800baf0:	f7f8 f8ea 	bl	8003cc8 <__aeabi_dmul>
 800baf4:	a308      	add	r3, pc, #32	@ (adr r3, 800bb18 <__ieee754_log+0x308>)
 800baf6:	e9d3 2300 	ldrd	r2, r3, [r3]
 800bafa:	4604      	mov	r4, r0
 800bafc:	460d      	mov	r5, r1
 800bafe:	e9dd 0102 	ldrd	r0, r1, [sp, #8]
 800bb02:	e729      	b.n	800b958 <__ieee754_log+0x148>
 800bb04:	2000      	movs	r0, #0
 800bb06:	2100      	movs	r1, #0
 800bb08:	e695      	b.n	800b836 <__ieee754_log+0x26>
 800bb0a:	bf00      	nop
 800bb0c:	f3af 8000 	nop.w
 800bb10:	fee00000 	.word	0xfee00000
 800bb14:	3fe62e42 	.word	0x3fe62e42
 800bb18:	35793c76 	.word	0x35793c76
 800bb1c:	3dea39ef 	.word	0x3dea39ef
 800bb20:	55555555 	.word	0x55555555
 800bb24:	3fd55555 	.word	0x3fd55555
 800bb28:	df3e5244 	.word	0xdf3e5244
 800bb2c:	3fc2f112 	.word	0x3fc2f112
 800bb30:	96cb03de 	.word	0x96cb03de
 800bb34:	3fc74664 	.word	0x3fc74664
 800bb38:	94229359 	.word	0x94229359
 800bb3c:	3fd24924 	.word	0x3fd24924
 800bb40:	55555593 	.word	0x55555593
 800bb44:	3fe55555 	.word	0x3fe55555
 800bb48:	d078c69f 	.word	0xd078c69f
 800bb4c:	3fc39a09 	.word	0x3fc39a09
 800bb50:	1d8e78af 	.word	0x1d8e78af
 800bb54:	3fcc71c5 	.word	0x3fcc71c5
 800bb58:	9997fa04 	.word	0x9997fa04
 800bb5c:	3fd99999 	.word	0x3fd99999
 800bb60:	c3500000 	.word	0xc3500000
 800bb64:	43500000 	.word	0x43500000
 800bb68:	7fefffff 	.word	0x7fefffff
 800bb6c:	3ff00000 	.word	0x3ff00000
 800bb70:	3fe00000 	.word	0x3fe00000

0800bb74 <_init>:
 800bb74:	b5f8      	push	{r3, r4, r5, r6, r7, lr}
 800bb76:	bf00      	nop
 800bb78:	bcf8      	pop	{r3, r4, r5, r6, r7}
 800bb7a:	bc08      	pop	{r3}
 800bb7c:	469e      	mov	lr, r3
 800bb7e:	4770      	bx	lr

0800bb80 <_fini>:
 800bb80:	b5f8      	push	{r3, r4, r5, r6, r7, lr}
 800bb82:	bf00      	nop
 800bb84:	bcf8      	pop	{r3, r4, r5, r6, r7}
 800bb86:	bc08      	pop	{r3}
 800bb88:	469e      	mov	lr, r3
 800bb8a:	4770      	bx	lr
